(lp0
(lp1
(lp2
F5.122993
aF8.057087
aF-3.6056678
aa(lp3
F4.770447
aF7.9206176
aF-3.0214825
aa(lp4
F5.12838
aF8.2354555
aF-3.0591912
aa(lp5
F5.0900726
aF8.308478
aF-2.4540567
aa(lp6
F5.3618145
aF8.810063
aF-2.7736826
aa(lp7
F6.739079
aF9.623494
aF-4.0707417
aa(lp8
F9.7007065
aF10.802039
aF-9.610326
aa(lp9
F9.420585
aF8.960898
aF-11.76391
aa(lp10
F7.107786
aF6.217742
aF-12.334928
aa(lp11
F4.71538
aF3.876811
aF-9.174581
aa(lp12
F1.0444705
aF1.6334441
aF-4.5525746
aa(lp13
F-0.6548142
aF0.8379706
aF-3.2878375
aa(lp14
F-1.3862427
aF0.6428431
aF-2.942474
aa(lp15
F-0.5590461
aF0.60094464
aF0.41958386
aa(lp16
F1.5831659
aF2.1164744
aF2.1877017
aa(lp17
F4.8620253
aF5.230732
aF2.8760347
aa(lp18
F7.271789
aF7.701548
aF3.5164838
aa(lp19
F10.422559
aF9.598953
aF2.079364
aa(lp20
F14.423269
aF10.675745
aF1.673547
aa(lp21
F16.810886
aF10.696694
aF-2.3409307
aa(lp22
F17.494432
aF8.357559
aF-3.596091
aa(lp23
F14.846445
aF8.07265
aF-6.9048777
aa(lp24
F13.759478
aF5.6365495
aF-6.5643024
aa(lp25
F12.115259
aF3.5122938
aF-9.7324295
aa(lp26
F10.813412
aF4.0587707
aF-9.498995
aa(lp27
F7.428011
aF3.5206735
aF-8.724471
aa(lp28
F6.4457893
aF4.435259
aF-5.474941
aa(lp29
F3.6032736
aF4.1413703
aF-3.7535098
aa(lp30
F2.847903
aF5.0092683
aF-3.5045128
aa(lp31
F1.6651673
aF5.367202
aF-3.1531637
aa(lp32
F2.429516
aF6.6283474
aF-3.719991
aa(lp33
F1.4700398
aF6.9647326
aF-0.75477207
aa(lp34
F0.9235633
aF8.251018
aF-0.038905777
aa(lp35
F2.136825
aF10.368091
aF-2.32058
aa(lp36
F1.4670471
aF9.442133
aF-1.5310919
aa(lp37
F3.6948519
aF10.298658
aF-4.9081135
aa(lp38
F3.031658
aF9.377489
aF-3.9103298
aaa(lp39
(lp40
F3.4727895
aF8.567052
aF-3.5541923
aa(lp41
F3.5727475
aF8.553286
aF-3.2956185
aa(lp42
F3.2255883
aF8.618527
aF-2.3397336
aa(lp43
F4.0438066
aF9.211093
aF-1.6412252
aa(lp44
F5.7137623
aF9.885659
aF-4.88058
aa(lp45
F7.921815
aF8.84478
aF-12.313379
aa(lp46
F7.295731
aF8.180987
aF-15.954362
aa(lp47
F4.4603977
aF5.6987987
aF-11.753136
aa(lp48
F0.8475474
aF3.4560301
aF-3.9121256
aa(lp49
F-2.0614076
aF1.3323733
aF-4.4298716
aa(lp50
F-2.007538
aF0.6727707
aF-3.9264908
aa(lp51
F-2.4995465
aF-0.12988544
aF-2.598906
aa(lp52
F2.0751743
aF1.389834
aF1.5951369
aa(lp53
F3.5236664
aF4.1000705
aF2.825158
aa(lp54
F8.744224
aF8.445546
aF3.1322143
aa(lp55
F9.415198
aF7.727286
aF4.867412
aa(lp56
F14.203003
aF9.089587
aF1.1444284
aa(lp57
F19.607914
aF10.849325
aF-1.79206
aa(lp58
F14.527417
aF9.873688
aF-7.0090256
aa(lp59
F12.236166
aF5.509058
aF-3.8241386
aa(lp60
F13.007099
aF4.9069166
aF-6.3272767
aa(lp61
F12.726977
aF5.104438
aF-7.615357
aa(lp62
F11.150395
aF4.4017396
aF-8.051701
aa(lp63
F8.731653
aF4.4675803
aF-8.04392
aa(lp64
F6.704962
aF4.2981906
aF-4.9063177
aa(lp65
F4.042011
aF3.8911762
aF-4.0940847
aa(lp66
F2.3451207
aF4.349067
aF-2.2667105
aa(lp67
F1.6879122
aF5.741296
aF-2.5713725
aa(lp68
F1.1336545
aF6.5643024
aF-2.3535004
aa(lp69
F0.33518824
aF6.7265096
aF-1.1007342
aa(lp70
F1.4239515
aF8.999206
aF-2.3690627
aa(lp71
F0.93373865
aF9.114726
aF-1.6938977
aa(lp72
F1.5071499
aF10.139444
aF-2.469619
aa(lp73
F1.8632874
aF9.96766
aF-2.6402059
aa(lp74
F2.6001031
aF10.078991
aF-4.0120835
aa(lp75
F2.8287494
aF9.871892
aF-4.1706996
aa(lp76
F2.7222073
aF9.379884
aF-3.8732197
aaa(lp77
(lp78
F2.4396915
aF8.933365
aF-3.809175
aa(lp79
F2.690484
aF9.337387
aF-3.9019501
aa(lp80
F2.6515784
aF9.850943
aF-3.9043443
aa(lp81
F3.810372
aF10.475231
aF-5.9723363
aa(lp82
F4.8638206
aF10.429143
aF-10.36031
aa(lp83
F2.9855695
aF7.371747
aF-10.478224
aa(lp84
F1.6639702
aF5.469554
aF-8.924985
aa(lp85
F-0.11552023
aF3.2812533
aF-5.1241903
aa(lp86
F-2.516306
aF0.6799533
aF-1.2940661
aa(lp87
F0.31483752
aF1.6047137
aF1.8740613
aa(lp88
F3.2728736
aF4.374805
aF1.7824832
aa(lp89
F5.2618566
aF6.5008564
aF5.5030727
aa(lp90
F10.755951
aF10.436325
aF2.7994204
aa(lp91
F11.993155
aF10.101137
aF10.220248
aa(lp92
F17.519571
aF12.304999
aF-1.276708
aa(lp93
F13.414712
aF9.795278
aF-0.37708676
aa(lp94
F15.0900545
aF9.704897
aF-3.0556
aa(lp95
F14.627974
aF8.535329
aF-6.0250087
aa(lp96
F15.028404
aF8.207922
aF-8.255806
aa(lp97
F11.095329
aF6.475717
aF-7.5944076
aa(lp98
F9.490017
aF6.1626754
aF-5.2846017
aa(lp99
F5.4264584
aF4.196437
aF-3.7235823
aa(lp100
F3.5511997
aF4.091092
aF-3.378817
aa(lp101
F1.7675194
aF4.2221746
aF-2.746748
aa(lp102
F0.5506664
aF5.2678423
aF-1.3521254
aa(lp103
F-0.11791443
aF6.3446345
aF-1.4664485
aa(lp104
F-0.12868834
aF8.557475
aF-0.036511578
aa(lp105
F0.089184016
aF9.770139
aF-0.53091425
aa(lp106
F1.9925743
aF11.489774
aF-1.4425066
aa(lp107
F1.8177977
aF10.846333
aF-1.7322049
aa(lp108
F1.9357121
aF10.36031
aF-3.5380316
aa(lp109
F2.123657
aF9.918579
aF-3.015497
aa(lp110
F1.8896236
aF9.251195
aF-2.9724014
aa(lp111
F2.0081367
aF9.331401
aF-3.3393128
aaa(lp112
(lp113
F2.5845408
aF9.52593
aF-3.1902738
aa(lp114
F2.5905263
aF9.664794
aF-2.6599581
aa(lp115
F3.1549592
aF10.416573
aF-4.0198646
aa(lp116
F4.8105497
aF11.964424
aF-7.057508
aa(lp117
F4.3688197
aF10.372879
aF-8.415619
aa(lp118
F2.2505496
aF7.8368206
aF-7.615357
aa(lp119
F-0.15382746
aF5.629367
aF-5.237316
aa(lp120
F-1.1007342
aF4.1892543
aF-3.321955
aa(lp121
F-0.3633201
aF4.127005
aF-3.879804
aa(lp122
F-1.0785879
aF2.9700072
aF-2.1601684
aa(lp123
F1.6250644
aF3.9444473
aF-1.3443443
aa(lp124
F2.7162218
aF5.006874
aF2.2301989
aa(lp125
F5.7604494
aF6.761824
aF3.8073792
aa(lp126
F9.467272
aF8.722076
aF4.919486
aa(lp127
F16.919823
aF12.795213
aF1.567005
aa(lp128
F18.485033
aF11.855488
aF0.52133745
aa(lp129
F15.97172
aF10.623672
aF-5.243302
aa(lp130
F15.553332
aF6.940192
aF-3.8307228
aa(lp131
F14.516045
aF4.8309007
aF-7.8266454
aa(lp132
F14.058752
aF5.0637364
aF-12.454039
aa(lp133
F11.290457
aF4.5753193
aF-9.045294
aa(lp134
F7.0024414
aF3.1429882
aF-5.6766524
aa(lp135
F3.5990837
aF2.4774003
aF-3.767875
aa(lp136
F-0.44831428
aF2.184709
aF-1.8405426
aa(lp137
F-0.5291186
aF4.083311
aF-1.7776948
aa(lp138
F-1.4867992
aF5.1984105
aF0.20171149
aa(lp139
F0.061052144
aF8.446744
aF0.4369418
aa(lp140
F1.9075803
aF10.981605
aF-1.8273745
aa(lp141
F1.7292122
aF10.868479
aF-2.2762873
aa(lp142
F2.6767175
aF11.328165
aF-3.2052376
aa(lp143
F2.460641
aF10.150218
aF-3.6481647
aa(lp144
F1.7651252
aF9.264363
aF-3.0831332
aa(lp145
F1.8668787
aF9.015965
aF-3.1435869
aa(lp146
F2.2134395
aF9.332599
aF-3.5523968
aaa(lp147
(lp148
F2.3253684
aF9.312247
aF-2.9227216
aa(lp149
F3.007716
aF10.451887
aF-3.6002808
aa(lp150
F3.5889084
aF10.593744
aF-5.3103395
aa(lp151
F4.018069
aF9.82341
aF-8.612542
aa(lp152
F1.804031
aF7.204153
aF-7.8062944
aa(lp153
F-1.0444705
aF3.9959226
aF-6.7145386
aa(lp154
F-2.7138276
aF1.8644845
aF-4.478953
aa(lp155
F-0.99299514
aF1.447295
aF-1.666963
aa(lp156
F3.3680432
aF3.650559
aF3.128623
aa(lp157
F6.5750766
aF6.9599442
aF3.25791
aa(lp158
F8.503606
aF8.256405
aF5.6682725
aa(lp159
F12.698247
aF9.598354
aF6.567894
aa(lp160
F16.74026
aF12.151173
aF2.0787656
aa(lp161
F15.788563
aF10.065823
aF-0.93852705
aa(lp162
F13.86542
aF8.990228
aF-1.7256209
aa(lp163
F14.989498
aF7.4124484
aF-3.7487214
aa(lp164
F14.686632
aF7.091625
aF-5.474941
aa(lp165
F12.8610525
aF6.3805475
aF-7.7967176
aa(lp166
F10.720038
aF5.947197
aF-6.136339
aa(lp167
F7.0221934
aF4.6232033
aF-4.9081135
aa(lp168
F4.703409
aF4.282628
aF-3.292626
aa(lp169
F1.6077064
aF3.867833
aF-3.2549171
aa(lp170
F-0.31603462
aF4.222773
aF-2.4768016
aa(lp171
F-0.5470751
aF5.5766945
aF-1.9422961
aa(lp172
F-2.043451
aF6.0208187
aF0.5650316
aa(lp173
F0.5069722
aF9.150041
aF-2.3307555
aa(lp174
F1.2366052
aF10.136452
aF-1.1941081
aa(lp175
F1.6310499
aF10.634445
aF-1.7100586
aa(lp176
F2.5169046
aF11.076775
aF-1.9961656
aa(lp177
F2.7084408
aF10.806828
aF-2.6318262
aa(lp178
F2.204461
aF10.029311
aF-3.0125043
aa(lp179
F1.8561049
aF9.537302
aF-2.794632
aa(lp180
F1.4862007
aF9.084799
aF-2.6390088
aa(lp181
F2.0045455
aF9.390059
aF-2.9735985
aa(lp182
F2.1655555
aF9.618107
aF-2.8221653
aaa(lp183
(lp184
F2.1140802
aF9.697116
aF-2.621651
aa(lp185
F2.9364884
aF10.471041
aF-2.280477
aa(lp186
F3.8983588
aF11.118074
aF-4.305373
aa(lp187
F2.5995045
aF9.341577
aF-5.5485625
aa(lp188
F1.1563994
aF7.472902
aF-7.8709383
aa(lp189
F-0.825401
aF5.2983685
aF-5.060744
aa(lp190
F-2.0608091
aF3.1681273
aF-4.7788267
aa(lp191
F2.28347
aF4.0186677
aF0.29328972
aa(lp192
F2.7844565
aF4.718373
aF2.0799627
aa(lp193
F8.127118
aF6.8982935
aF6.5068417
aa(lp194
F9.487623
aF7.599196
aF6.0148335
aa(lp195
F19.210476
aF11.560403
aF4.526837
aa(lp196
F17.454927
aF10.38485
aF2.8963854
aa(lp197
F17.236456
aF9.719262
aF-5.0840874
aa(lp198
F16.460735
aF7.838018
aF-1.6705543
aa(lp199
F14.994885
aF6.5738792
aF-4.661511
aa(lp200
F14.155119
aF6.3350577
aF-9.012374
aa(lp201
F9.592968
aF5.0637364
aF-5.620987
aa(lp202
F8.030152
aF5.1882353
aF-4.6603136
aa(lp203
F3.2980127
aF3.6332011
aF-3.4290953
aa(lp204
F0.878672
aF4.0599675
aF-2.4887726
aa(lp205
F-1.0468647
aF4.654328
aF-1.9925743
aa(lp206
F-0.6769605
aF6.2464724
aF-0.48362875
aa(lp207
F0.5494693
aF8.9758625
aF0.46387658
aa(lp208
F1.0648212
aF9.976639
aF1.2958617
aa(lp209
F2.243367
aF11.465234
aF-1.3509283
aa(lp210
F2.03567
aF10.939108
aF-1.6280571
aa(lp211
F1.7196354
aF10.26514
aF-2.5384524
aaa(lp212
(lp213
F2.830545
aF10.459669
aF-2.344522
aa(lp214
F2.954445
aF10.363302
aF-2.368464
aa(lp215
F3.7900212
aF10.66557
aF-5.725135
aa(lp216
F2.146402
aF8.715493
aF-5.2026005
aa(lp217
F-1.0247183
aF5.751471
aF-5.0014873
aa(lp218
F-2.4355016
aF2.7910407
aF-4.312556
aa(lp219
F1.2904748
aF3.1250317
aF-1.9267339
aa(lp220
F3.8055837
aF4.5364137
aF2.5031378
aa(lp221
F7.088034
aF6.2303114
aF5.29777
aa(lp222
F9.664794
aF7.777564
aF6.7091517
aa(lp223
F17.814657
aF10.490194
aF8.973468
aa(lp224
F18.889652
aF11.023503
aF2.9634233
aa(lp225
F17.818247
aF8.839393
aF-0.05805939
aa(lp226
F18.309658
aF7.826047
aF-1.3772645
aa(lp227
F17.644669
aF6.0525417
aF-8.960898
aa(lp228
F14.515447
aF4.8494554
aF-9.198523
aa(lp229
F10.400413
aF4.486734
aF-8.780735
aa(lp230
F6.3578024
aF2.8269536
aF-4.6501384
aa(lp231
F1.7806876
aF1.8608932
aF-2.1338322
aa(lp232
F-0.5446809
aF2.7575219
aF-1.6430209
aa(lp233
F-1.8004397
aF3.8983588
aF0.6715736
aa(lp234
F-0.3561375
aF6.7306995
aF0.6961141
aa(lp235
F0.23942018
aF8.456321
aF1.5562311
aa(lp236
F1.6825253
aF10.50037
aF0.29688102
aa(lp237
F2.2541409
aF11.07438
aF-0.83617496
aa(lp238
F2.8030117
aF11.317391
aF0.1921347
aa(lp239
F3.5290532
aF11.662755
aF-0.75836337
aa(lp240
F2.7180176
aF10.709264
aF-1.3461399
aa(lp241
F2.6360161
aF10.2406
aF-1.2503718
aa(lp242
F2.541445
aF9.817424
aF-1.1534066
aa(lp243
F2.333748
aF9.475053
aF-1.3676877
aaa(lp244
(lp245
F2.5779567
aF10.281301
aF-2.3786395
aa(lp246
F3.2812533
aF10.974422
aF-3.1118636
aa(lp247
F4.531027
aF11.23958
aF-7.029376
aa(lp248
F2.8413188
aF8.407239
aF-8.990826
aa(lp249
F-1.1318588
aF4.020463
aF-6.136339
aa(lp250
F-3.37762
aF0.84694886
aF-3.4464533
aa(lp251
F-1.1384429
aF-0.9175778
aF0.23283611
aa(lp252
F6.4523735
aF4.1491513
aF2.6701334
aa(lp253
F8.556278
aF5.7999535
aF9.437345
aa(lp254
F17.510593
aF12.600085
aF7.135918
aa(lp255
F19.607914
aF14.91468
aF4.441244
aa(lp256
F16.2279
aF9.818023
aF-3.4620156
aa(lp257
F14.544177
aF8.033744
aF-2.1775265
aa(lp258
F14.320319
aF5.710171
aF-1.9847932
aa(lp259
F14.04319
aF6.105813
aF-5.793968
aa(lp260
F11.765107
aF6.63972
aF-8.564658
aa(lp261
F6.8785415
aF4.803367
aF-5.1038394
aa(lp262
F4.8745947
aF4.8763905
aF-3.389591
aa(lp263
F2.296638
aF4.6603136
aF-1.0139444
aa(lp264
F0.40043023
aF5.6066217
aF-1.3904326
aa(lp265
F-0.51954174
aF6.108207
aF-1.7238252
aa(lp266
F-0.16938977
aF7.5722613
aF1.6436194
aa(lp267
F1.5023615
aF10.279505
aF2.6300306
aa(lp268
F2.432509
aF11.571775
aF0.5327099
aa(lp269
F2.574964
aF11.323377
aF-0.48362875
aa(lp270
F1.9865888
aF10.478823
aF-2.3654714
aa(lp271
F2.178125
aF9.847352
aF-2.0219033
aaa(lp272
(lp273
F2.4528596
aF10.578181
aF-1.0019734
aa(lp274
F3.3716345
aF11.485584
aF-1.8608932
aa(lp275
F4.7375264
aF11.836933
aF-5.2564697
aa(lp276
F4.244321
aF10.188525
aF-8.005013
aa(lp277
F1.4215573
aF6.4164605
aF-7.6931686
aa(lp278
F-1.2384008
aF2.6485856
aF-3.8085763
aa(lp279
F-2.1817162
aF0.08259996
aF-1.8339585
aa(lp280
F1.6567876
aF1.3090298
aF1.9782091
aa(lp281
F3.8552632
aF1.7908629
aF3.9085343
aa(lp282
F8.218098
aF4.5783124
aF7.1407065
aa(lp283
F17.494432
aF9.294291
aF9.479243
aa(lp284
F19.607914
aF15.747862
aF8.030751
aa(lp285
F18.460493
aF10.722432
aF1.6681601
aa(lp286
F17.789516
aF7.3897038
aF-0.40402153
aa(lp287
F18.23843
aF5.0745106
aF-6.105813
aa(lp288
F17.930176
aF5.234922
aF-10.292074
aa(lp289
F13.077129
aF3.6194344
aF-10.579379
aa(lp290
F8.939949
aF2.783858
aF-6.329072
aa(lp291
F4.010886
aF2.1547816
aF-3.4141316
aa(lp292
F1.572392
aF2.2691047
aF-2.5115175
aa(lp293
F0.46387658
aF4.168904
aF-1.6514006
aa(lp294
F0.5255273
aF6.105214
aF-0.35913026
aa(lp295
F0.5386954
aF8.464102
aF1.2844892
aa(lp296
F1.5939398
aF10.254965
aF-0.29747957
aa(lp297
F1.4975731
aF10.34355
aF-1.4730326
aa(lp298
F1.8926164
aF10.214263
aF-2.6342204
aa(lp299
F2.006341
aF9.821614
aF-2.9801826
aa(lp300
F1.8890251
aF9.278131
aF-2.6623523
aa(lp301
F1.8243817
aF9.157223
aF-3.1621418
aa(lp302
F2.343325
aF9.437943
aF-3.0256724
aaa(lp303
(lp304
F3.2626984
aF10.542868
aF-2.4157495
aa(lp305
F4.489128
aF10.943896
aF-4.413711
aa(lp306
F3.7960067
aF9.301474
aF-7.9212165
aa(lp307
F0.9498995
aF5.911284
aF-6.4338183
aa(lp308
F-0.3890578
aF4.10845
aF-6.3380504
aa(lp309
F-0.04129998
aF3.0400376
aF-3.5470097
aa(lp310
F1.198298
aF2.8107927
aF0.26755205
aa(lp311
F3.0873232
aF3.691859
aF1.8058267
aa(lp312
F8.303091
aF5.777209
aF5.6461263
aa(lp313
F14.673464
aF9.6049385
aF7.587225
aa(lp314
F19.607914
aF13.8480625
aF5.7646394
aa(lp315
F16.90486
aF8.93935
aF2.2547395
aa(lp316
F15.407287
aF7.996035
aF-4.413112
aa(lp317
F15.449783
aF4.5364137
aF-4.4328647
aa(lp318
F15.941194
aF4.7141833
aF-12.367847
aa(lp319
F11.377247
aF3.728969
aF-10.096349
aa(lp320
F6.269816
aF1.9662381
aF-5.1583076
aa(lp321
F3.3135753
aF3.393781
aF-3.650559
aa(lp322
F1.3814543
aF3.7235823
aF-2.384625
aa(lp323
F0.36870706
aF6.2003837
aF-0.5177461
aa(lp324
F0.6769605
aF7.6746135
aF0.6183026
aa(lp325
F2.191293
aF10.190321
aF-0.207697
aa(lp326
F2.9753942
aF10.865486
aF-0.9475053
aa(lp327
F3.132813
aF10.919355
aF-2.3612814
aa(lp328
F3.0556
aF10.426748
aF-2.9059622
aa(lp329
F2.4678235
aF9.47206
aF-2.207454
aa(lp330
F2.6743233
aF9.333796
aF-2.6868927
aa(lp331
F2.705448
aF9.226056
aF-2.4301147
aaa(lp332
(lp333
F3.0819361
aF10.588956
aF-4.458602
aa(lp334
F2.2691047
aF9.156026
aF-6.461352
aa(lp335
F0.6811504
aF6.6870055
aF-6.1387334
aa(lp336
F-1.0474633
aF4.2580876
aF-5.2397103
aa(lp337
F0.24540567
aF4.164714
aF-4.020463
aa(lp338
F-0.46447513
aF2.618658
aF-1.0899603
aa(lp339
F1.8722657
aF3.2788591
aF-0.6500258
aa(lp340
F7.7614036
aF6.7684083
aF5.647323
aa(lp341
F15.090653
aF12.931682
aF5.9011087
aa(lp342
F15.974712
aF12.493543
aF8.004415
aa(lp343
F14.517242
aF10.905589
aF0.40162733
aa(lp344
F13.088502
aF7.8469963
aF-1.412579
aa(lp345
F14.618397
aF7.6584525
aF-2.712032
aa(lp346
F14.399327
aF8.206126
aF-8.22947
aa(lp347
F11.882423
aF6.8450227
aF-6.3482256
aa(lp348
F10.001179
aF6.6983776
aF-6.4026937
aa(lp349
F6.587646
aF5.1050367
aF-3.674501
aa(lp350
F4.0857053
aF4.9416323
aF-4.1419687
aa(lp351
F0.10594343
aF3.8839936
aF-1.6430209
aa(lp352
F-0.51355624
aF4.6459484
aF-2.327164
aa(lp353
F-0.9127894
aF5.5988407
aF-1.0378864
aa(lp354
F-0.5021838
aF7.386112
aF-0.18016368
aa(lp355
F1.2042835
aF10.5045595
aF0.16400282
aa(lp356
F1.8052281
aF11.365874
aF-1.3503298
aa(lp357
F2.6084828
aF11.620856
aF-2.4558525
aa(lp358
F1.9506758
aF10.779295
aF-2.52289
aa(lp359
F1.6992847
aF9.886856
aF-2.6431987
aa(lp360
F1.30484
aF9.329605
aF-1.8543092
aa(lp361
F1.7238252
aF9.687539
aF-2.5917234
aa(lp362
F1.459266
aF9.531317
aF-2.1888988
aa(lp363
F1.816002
aF9.850943
aF-2.8461072
aa(lp364
F1.608305
aF9.660604
aF-2.3906105
aaa(lp365
(lp366
F2.259528
aF11.234193
aF-2.5420437
aa(lp367
F6.266823
aF13.395558
aF-6.117185
aa(lp368
F5.2139726
aF11.228806
aF-9.367314
aa(lp369
F1.2791022
aF6.469133
aF-7.881712
aa(lp370
F-2.083554
aF0.88166475
aF-8.623316
aa(lp371
F-4.1120415
aF-5.2409077
aF-0.94810385
aa(lp372
F-1.3634979
aF-7.04015
aF3.5877113
aa(lp373
F6.42903
aF-4.590882
aF9.586982
aa(lp374
F19.607914
aF17.8374
aF10.392631
aa(lp375
F19.607914
aF16.18181
aF9.427169
aa(lp376
F19.607914
aF14.143746
aF-19.608511
aa(lp377
F19.607914
aF2.0979192
aF-5.954978
aa(lp378
F16.22371
aF-0.12270284
aF-15.889119
aa(lp379
F7.355586
aF-2.6898856
aF-7.013814
aa(lp380
F0.12330139
aF-4.5860934
aF-0.25977087
aa(lp381
F-2.3505075
aF1.7256209
aF1.903989
aa(lp382
F-3.1004913
aF6.179435
aF3.0556
aa(lp383
F0.90979666
aF10.758944
aF0.5057751
aa(lp384
F2.4594438
aF11.997345
aF-2.3349452
aa(lp385
F2.3714569
aF11.930307
aF-3.3943794
aa(lp386
F1.8267759
aF10.736797
aF-1.9303252
aaa(lp387
(lp388
F3.9606082
aF13.079524
aF-2.7168205
aa(lp389
F7.068282
aF14.126987
aF-9.764751
aa(lp390
F0.85413146
aF5.8292828
aF-13.300987
aa(lp391
F-3.157952
aF-2.597709
aF-9.6288805
aa(lp392
F-4.2784386
aF-7.4124484
aF-0.6596026
aa(lp393
F1.9841946
aF-8.196549
aF6.513426
aa(lp394
F12.969391
aF-4.8985367
aF19.608511
aa(lp395
F19.607914
aF12.303204
aF19.608511
aa(lp396
F19.607914
aF16.855778
aF-1.9973627
aa(lp397
F19.607914
aF5.5461683
aF-12.031462
aa(lp398
F19.607914
aF-0.6775591
aF-18.93215
aa(lp399
F13.692439
aF-3.8253357
aF-10.160394
aa(lp400
F6.235698
aF-4.361038
aF-3.590704
aa(lp401
F-0.62728083
aF-2.260725
aF-0.5434838
aa(lp402
F-2.6449943
aF0.7739257
aF0.29747957
aa(lp403
F-0.76075757
aF5.73112
aF1.5574282
aa(lp404
F-1.5400703
aF7.8691425
aF2.0398598
aa(lp405
F1.1988965
aF11.7627125
aF0.7194576
aa(lp406
F2.0614076
aF12.136209
aF-1.2952632
aa(lp407
F1.9806033
aF11.766304
aF-2.160767
aaa(lp408
(lp409
F2.211644
aF10.981006
aF-0.95468795
aa(lp410
F4.7818193
aF12.202647
aF-3.9869444
aa(lp411
F1.857302
aF8.087613
aF-8.465299
aa(lp412
F-1.4766239
aF3.293823
aF-10.975619
aa(lp413
F-6.215348
aF-4.745308
aF-3.271078
aa(lp414
F-5.5539494
aF-9.87668
aF4.8943467
aa(lp415
F14.227544
aF0.49559975
aF8.877101
aa(lp416
F19.607914
aF16.092627
aF17.438168
aa(lp417
F19.607914
aF19.0764
aF14.711172
aa(lp418
F19.607914
aF12.019491
aF-0.047884032
aa(lp419
F19.607914
aF4.338892
aF-19.608511
aa(lp420
F19.607914
aF0.50517654
aF-19.608511
aa(lp421
F8.634089
aF-3.2668881
aF-8.204929
aa(lp422
F0.7541735
aF-3.654749
aF1.1617863
aa(lp423
F-0.7457938
aF0.50517654
aF1.0295067
aa(lp424
F-3.056797
aF2.8431146
aF3.1346085
aa(lp425
F-0.07062895
aF8.219295
aF0.90500826
aa(lp426
F0.05865794
aF9.871294
aF2.6737247
aa(lp427
F1.62686
aF11.711836
aF-0.28790274
aa(lp428
F1.6579847
aF11.467029
aF-2.0697873
aa(lp429
F0.89603
aF10.183737
aF-1.4371196
aa(lp430
F0.45908818
aF9.465476
aF-1.4227544
aaa(lp431
(lp432
F2.8072014
aF11.358691
aF-2.4277205
aa(lp433
F4.305373
aF12.155961
aF-5.09546
aa(lp434
F2.5851393
aF9.809643
aF-8.296508
aa(lp435
F-0.96306765
aF5.2085857
aF-8.935161
aa(lp436
F-7.0461354
aF-3.1226375
aF-2.8688521
aa(lp437
F-1.4634558
aF-7.5866265
aF2.879626
aa(lp438
F13.39077
aF-0.32022446
aF8.98903
aa(lp439
F19.607914
aF11.40897
aF17.554886
aa(lp440
F19.607914
aF17.551893
aF10.23222
aa(lp441
F19.607914
aF7.920019
aF0.031124622
aa(lp442
F19.607914
aF7.7811556
aF-10.694301
aa(lp443
F19.607914
aF6.097433
aF-17.3011
aa(lp444
F18.904617
aF0.095768064
aF-12.391191
aa(lp445
F8.0606785
aF-2.4271219
aF-4.494515
aa(lp446
F0.3309984
aF-3.0681696
aF-0.14664486
aa(lp447
F-1.127669
aF0.39025488
aF-1.1767502
aa(lp448
F-2.2260091
aF2.6737247
aF1.0067618
aa(lp449
F-2.6437972
aF5.9890957
aF2.690484
aa(lp450
F-0.24361002
aF10.457873
aF0.15622166
aa(lp451
F0.077811554
aF11.444284
aF-0.4141969
aa(lp452
F1.0462662
aF11.792641
aF-2.0446482
aa(lp453
F0.2801216
aF10.58297
aF-1.5233108
aa(lp454
F0.8774749
aF10.46326
aF-2.3654714
aa(lp455
F-0.30526072
aF9.371504
aF-1.3772645
aa(lp456
F0.4950012
aF9.916184
aF-2.6569653
aa(lp457
F0.06943185
aF9.577405
aF-1.4191631
aaa(lp458
(lp459
F3.6296098
aF11.447277
aF-2.4744074
aa(lp460
F5.8484364
aF12.772468
aF-4.185663
aa(lp461
F3.752911
aF9.554661
aF-10.763134
aa(lp462
F0.7757214
aF4.272453
aF-10.53329
aa(lp463
F-1.8483237
aF-1.1492168
aF-1.0773908
aa(lp464
F-5.53719
aF-5.4288526
aF3.4985273
aa(lp465
F4.783615
aF-3.6260185
aF7.2472486
aa(lp466
F19.607914
aF9.7402115
aF19.608511
aa(lp467
F19.607914
aF19.608511
aF8.333617
aa(lp468
F19.607914
aF13.652337
aF0.7266402
aa(lp469
F19.607914
aF7.4776907
aF-9.170391
aa(lp470
F19.607914
aF3.9636009
aF-15.556326
aa(lp471
F15.601217
aF1.027711
aF-16.076466
aa(lp472
F6.238691
aF-2.7832594
aF-3.5380316
aa(lp473
F-0.07182605
aF-2.3774424
aF0.5410896
aa(lp474
F-3.192668
aF1.2204443
aF4.817134
aa(lp475
F-3.0627825
aF6.0130377
aF2.3469162
aa(lp476
F-0.04129998
aF9.992201
aF1.8788497
aa(lp477
F1.6077064
aF11.651981
aF-1.9231426
aa(lp478
F1.6597804
aF11.276092
aF-3.0400376
aa(lp479
F1.1773487
aF10.462662
aF-2.5049336
aa(lp480
F1.067814
aF9.873089
aF-2.2104468
aaa(lp481
(lp482
F2.5863364
aF9.5253315
aF-6.281188
aa(lp483
F1.0708067
aF6.320094
aF-9.879673
aa(lp484
F-1.4215573
aF0.91817635
aF-11.294048
aa(lp485
F-3.5523968
aF-4.152743
aF-1.264737
aa(lp486
F3.2974143
aF-5.103241
aF6.081272
aa(lp487
F19.607914
aF12.004527
aF18.937536
aa(lp488
F19.607914
aF19.608511
aF13.084312
aa(lp489
F19.607914
aF10.479421
aF4.696825
aa(lp490
F19.607914
aF8.444948
aF-18.203115
aa(lp491
F19.607914
aF3.1800983
aF-15.0583315
aa(lp492
F12.901155
aF1.4766239
aF-14.098855
aa(lp493
F4.7614684
aF-0.53211135
aF-2.5929205
aa(lp494
F-0.3489549
aF-0.7338228
aF0.18794483
aa(lp495
F-2.8987796
aF2.2631192
aF0.90859956
aa(lp496
F-1.0911574
aF6.682217
aF2.4187422
aa(lp497
F2.1877017
aF11.547833
aF-0.31543607
aa(lp498
F2.554613
aF11.853693
aF0.29747957
aa(lp499
F2.179322
aF11.178528
aF-3.043629
aa(lp500
F2.0895395
aF10.381857
aF-2.110489
aa(lp501
F1.2802993
aF9.2787285
aF-2.3223755
aa(lp502
F1.1695676
aF8.907627
aF-2.333748
aaa(lp503
(lp504
F2.882619
aF10.515932
aF-1.6352397
aa(lp505
F5.7424927
aF12.157158
aF-3.663727
aa(lp506
F3.6942532
aF9.909601
aF-9.093178
aa(lp507
F1.0073603
aF6.3601966
aF-7.7488337
aa(lp508
F-2.9005754
aF1.775899
aF-4.71957
aa(lp509
F-5.1050367
aF-1.8650831
aF2.255338
aa(lp510
F-0.31304187
aF-3.4045548
aF4.7722425
aa(lp511
F11.902774
aF3.0508115
aF8.815451
aa(lp512
F19.607914
aF13.157934
aF13.448231
aa(lp513
F19.607914
aF18.476652
aF9.303269
aa(lp514
F19.607914
aF12.535441
aF-0.049679685
aa(lp515
F19.607914
aF9.49301
aF-14.6585
aa(lp516
F19.10094
aF2.2930467
aF-16.891092
aa(lp517
F10.9582615
aF-0.65541273
aF-10.785878
aa(lp518
F0.7625532
aF-3.9031472
aF-0.62009823
aa(lp519
F-1.6136919
aF-1.2114661
aF-0.11791443
aa(lp520
F-2.0470424
aF4.578911
aF2.7311857
aa(lp521
F1.1468226
aF10.052654
aF1.2138603
aa(lp522
F1.2114661
aF11.055226
aF1.5496471
aa(lp523
F2.6198552
aF11.973403
aF-3.828927
aa(lp524
F1.8980033
aF10.131064
aF-2.6204538
aa(lp525
F2.0027497
aF9.7958765
aF-2.9652188
aaa(lp526
(lp527
F4.572925
aF11.356895
aF-2.882619
aa(lp528
F7.1101804
aF12.655151
aF-10.31063
aa(lp529
F3.964798
aF8.288726
aF-10.168175
aa(lp530
F-0.9115923
aF2.1535845
aF-9.713276
aa(lp531
F-5.395932
aF-3.7565024
aF3.2782607
aa(lp532
F-1.0767922
aF-6.682217
aF5.100847
aa(lp533
F10.15381
aF-1.4676456
aF7.2993226
aa(lp534
F19.607914
aF18.240225
aF15.092449
aa(lp535
F19.607914
aF15.751453
aF8.445546
aa(lp536
F19.607914
aF8.441357
aF-4.718373
aa(lp537
F19.607914
aF5.7365074
aF-19.608511
aa(lp538
F18.245613
aF1.2880806
aF-17.200544
aa(lp539
F3.7924154
aF-2.8927941
aF-2.8443117
aa(lp540
F-2.19249
aF-1.7669208
aF-0.4333505
aa(lp541
F-3.3955765
aF1.3138182
aF4.2197804
aa(lp542
F-1.6663644
aF6.3512187
aF2.0111294
aa(lp543
F0.9463082
aF9.691729
aF0.6278794
aa(lp544
F2.3265655
aF10.924144
aF0.30286652
aa(lp545
F2.9071593
aF11.232397
aF-2.883816
aa(lp546
F2.610877
aF10.6637745
aF-2.0248961
aa(lp547
F2.3535004
aF10.237008
aF-1.7968484
aa(lp548
F2.381632
aF9.898827
aF-1.5873557
aa(lp549
F1.7824832
aF9.416395
aF-2.1865046
aaa(lp550
(lp551
F4.9972973
aF11.253346
aF-3.5823243
aa(lp552
F4.2383356
aF9.8042555
aF-8.108562
aa(lp553
F1.9261353
aF6.5655
aF-7.9583263
aa(lp554
F-2.7994204
aF1.2545617
aF-5.0320134
aa(lp555
F-5.3127337
aF-3.3261447
aF1.5382746
aa(lp556
F4.995502
aF-2.5767596
aF3.7110126
aa(lp557
F19.607914
aF8.103774
aF13.026852
aa(lp558
F19.607914
aF17.459118
aF9.436746
aa(lp559
F19.607914
aF10.395025
aF0.4321534
aa(lp560
F19.607914
aF6.8001313
aF-9.922769
aa(lp561
F19.607914
aF2.6479871
aF-16.191986
aa(lp562
F15.795746
aF1.6400281
aF-16.230892
aa(lp563
F4.853047
aF-1.2509704
aF-4.4286747
aa(lp564
F-1.3383588
aF-0.11971009
aF-0.0023942017
aa(lp565
F-1.3808558
aF3.1112652
aF-0.3513491
aa(lp566
F-0.061052144
aF7.391499
aF1.2413936
aa(lp567
F1.2437878
aF9.968858
aF3.5936968
aa(lp568
F2.8491
aF11.704654
aF0.23163901
aa(lp569
F1.6627731
aF10.545261
aF-0.96905315
aa(lp570
F3.052607
aF10.43872
aF-1.3281834
aaa(lp571
(lp572
F5.104438
aF11.513118
aF-2.6324248
aa(lp573
F5.374983
aF11.350311
aF-6.7205243
aa(lp574
F2.3702598
aF7.3789296
aF-7.8912888
aa(lp575
F-0.8463503
aF3.7283707
aF-9.240421
aa(lp576
F-5.2720323
aF-3.086126
aF-2.794632
aa(lp577
F-1.074398
aF-4.526837
aF1.9177556
aa(lp578
F17.306486
aF4.754286
aF11.247959
aa(lp579
F19.607914
aF11.416152
aF14.696209
aa(lp580
F19.607914
aF15.178041
aF11.701661
aa(lp581
F19.607914
aF8.120534
aF2.006341
aa(lp582
F19.607914
aF6.767211
aF-14.210186
aa(lp583
F19.607914
aF3.606865
aF-15.978304
aa(lp584
F15.780782
aF1.572392
aF-12.219407
aa(lp585
F5.269638
aF-2.8054059
aF-3.6086605
aa(lp586
F-0.8882488
aF-1.1007342
aF0.87208796
aa(lp587
F-3.0843303
aF1.401805
aF1.7537527
aa(lp588
F-0.97623575
aF6.371569
aF2.2385786
aa(lp589
F1.1887212
aF9.746795
aF2.6300306
aa(lp590
F2.7222073
aF11.455657
aF1.2671312
aa(lp591
F2.9586349
aF11.173141
aF-0.94570965
aa(lp592
F3.3770216
aF11.003153
aF-1.5424645
aa(lp593
F2.8898015
aF10.156203
aF-2.44029
aa(lp594
F2.6078842
aF9.51336
aF-2.2840683
aaa(lp595
(lp596
F3.5541923
aF10.585963
aF-3.405752
aa(lp597
F3.0137014
aF9.968858
aF-5.2636523
aa(lp598
F1.9829975
aF8.98484
aF-4.8099513
aa(lp599
F0.32561144
aF6.999449
aF-4.498705
aa(lp600
F1.0354922
aF6.818088
aF-3.7463272
aa(lp601
F0.24181437
aF5.5868697
aF-3.3039982
aa(lp602
F0.84934306
aF4.7602715
aF-1.7010803
aa(lp603
F3.0879216
aF5.1996074
aF-0.6745663
aa(lp604
F4.0037036
aF5.4761376
aF1.3323733
aa(lp605
F8.520964
aF7.410054
aF3.301604
aa(lp606
F10.230424
aF8.314464
aF2.1410148
aa(lp607
F13.806164
aF9.805453
aF2.3008277
aa(lp608
F14.008474
aF8.72507
aF1.2635399
aa(lp609
F15.720927
aF8.088212
aF0.024540568
aa(lp610
F14.239514
aF7.6560583
aF-4.2503066
aa(lp611
F10.819398
aF4.9643774
aF-3.6768951
aa(lp612
F10.989386
aF5.885546
aF-4.9266686
aa(lp613
F10.31063
aF5.6377463
aF-4.3400893
aa(lp614
F10.160394
aF5.7119665
aF-5.85921
aa(lp615
F7.2634096
aF5.2684407
aF-4.9961004
aa(lp616
F6.521207
aF6.2003837
aF-5.2648497
aa(lp617
F3.4871547
aF5.4605756
aF-2.475006
aa(lp618
F2.6539726
aF6.3667808
aF-3.5104983
aa(lp619
F1.3575124
aF6.3751607
aF-0.61052144
aa(lp620
F1.7866731
aF7.8326306
aF-2.8125885
aa(lp621
F1.0887632
aF8.018182
aF-0.57760113
aa(lp622
F1.0785879
aF9.139266
aF-1.0354922
aa(lp623
F1.4802152
aF10.149021
aF-1.8201919
aa(lp624
F1.0067618
aF9.876082
aF-1.1881226
aaa(lp625
(lp626
F3.405752
aF10.386645
aF-4.2305546
aa(lp627
F2.529474
aF9.534309
aF-4.546589
aa(lp628
F1.7244238
aF8.163031
aF-5.8945246
aa(lp629
F0.033518825
aF6.39611
aF-6.081272
aa(lp630
F-2.5300727
aF3.840898
aF-3.8863878
aa(lp631
F-0.49320555
aF3.8630445
aF-2.5318682
aa(lp632
F1.0857705
aF2.8089972
aF0.20590134
aa(lp633
F3.8654387
aF2.902371
aF1.0139444
aa(lp634
F10.174759
aF5.161899
aF4.9787426
aa(lp635
F16.761208
aF9.444528
aF5.341464
aa(lp636
F19.607914
aF11.829152
aF3.103484
aa(lp637
F15.210363
aF8.968679
aF-0.14185645
aa(lp638
F14.247295
aF7.973889
aF-2.5306711
aa(lp639
F13.423691
aF7.0341644
aF-3.13401
aa(lp640
F13.645154
aF6.4505777
aF-7.5572977
aa(lp641
F11.390414
aF5.0481744
aF-6.4858923
aa(lp642
F10.165182
aF5.2367177
aF-6.3368535
aa(lp643
F6.7965403
aF5.1613
aF-3.3728316
aa(lp644
F4.605247
aF5.4911017
aF-3.482965
aa(lp645
F2.493561
aF5.5485625
aF-1.264737
aa(lp646
F1.9339164
aF6.7630215
aF-1.7082629
aa(lp647
F1.0815806
aF7.245453
aF-0.8110358
aa(lp648
F0.90620536
aF7.8709383
aF-1.785476
aa(lp649
F0.45070848
aF7.849989
aF-1.3946224
aa(lp650
F-0.107739076
aF7.933786
aF-1.2258313
aa(lp651
F0.5722142
aF8.939949
aF-0.89184016
aa(lp652
F2.1057005
aF10.609905
aF-2.2331917
aaa(lp653
(lp654
F2.533664
aF9.651626
aF-3.095703
aa(lp655
F2.544438
aF9.263765
aF-5.9412117
aa(lp656
F1.5598224
aF7.7428484
aF-4.871602
aa(lp657
F-0.60693014
aF5.579687
aF-3.8905778
aa(lp658
F-3.0663738
aF2.1631613
aF-4.1299977
aa(lp659
F-1.7866731
aF0.4758476
aF-1.0737995
aa(lp660
F3.0280666
aF1.3491327
aF0.4782418
aa(lp661
F7.7201033
aF3.6565444
aF4.0001125
aa(lp662
F19.278112
aF9.312247
aF9.368511
aa(lp663
F19.607914
aF14.935629
aF4.367024
aa(lp664
F16.977283
aF8.722675
aF-0.075417355
aa(lp665
F15.620371
aF8.315661
aF-5.0158525
aa(lp666
F11.88781
aF4.6034513
aF-2.4839842
aa(lp667
F11.781867
aF4.335301
aF-5.521628
aa(lp668
F11.513118
aF5.378574
aF-7.7691846
aa(lp669
F9.586982
aF5.108628
aF-5.9705405
aa(lp670
F7.0132155
aF5.6724625
aF-4.2413282
aa(lp671
F4.758476
aF5.159505
aF-2.665345
aa(lp672
F3.426701
aF5.879561
aF-2.1906946
aa(lp673
F1.5496471
aF6.491878
aF-1.4640543
aa(lp674
F0.7314286
aF7.177218
aF-0.46088383
aa(lp675
F0.3716998
aF8.06008
aF-1.0630256
aa(lp676
F0.2693477
aF8.693346
aF-0.31603462
aa(lp677
F0.97503865
aF10.220248
aF-0.6027403
aa(lp678
F1.1534066
aF10.494983
aF-0.031124622
aa(lp679
F1.4628572
aF10.744578
aF-1.7483658
aa(lp680
F1.292869
aF10.1861315
aF-2.0787656
aa(lp681
F1.5334862
aF9.97604
aF-2.4450784
aaa(lp682
(lp683
F2.110489
aF10.022128
aF-1.8644845
aa(lp684
F2.0602105
aF9.965864
aF-2.381632
aa(lp685
F2.211644
aF9.868899
aF-3.347094
aa(lp686
F1.3138182
aF8.727464
aF-4.5567646
aa(lp687
F0.3309984
aF7.3286514
aF-5.1259856
aa(lp688
F-0.9983821
aF5.3803697
aF-4.5058875
aa(lp689
F0.64463884
aF5.2756233
aF-1.7501614
aa(lp690
F2.2337902
aF5.6407394
aF-0.22804771
aa(lp691
F2.9346926
aF5.617396
aF1.7489643
aa(lp692
F7.6345105
aF7.141904
aF3.8151605
aa(lp693
F10.250176
aF8.121731
aF6.113594
aa(lp694
F13.391369
aF9.627085
aF3.1280246
aa(lp695
F13.422493
aF9.473258
aF4.0701427
aa(lp696
F12.828133
aF9.266758
aF-1.4089876
aa(lp697
F13.452421
aF8.262989
aF-0.60094464
aa(lp698
F12.0649805
aF7.4950485
aF-3.0573955
aa(lp699
F11.596316
aF7.4082584
aF-4.0815153
aa(lp700
F9.752182
aF6.8545995
aF-3.5009215
aa(lp701
F7.025785
aF6.1423244
aF-2.4079683
aa(lp702
F5.4085016
aF6.10282
aF-2.5635915
aa(lp703
F3.774459
aF6.0639143
aF-2.1841104
aa(lp704
F1.395221
aF6.0244102
aF-2.0470424
aa(lp705
F0.41240123
aF6.2566476
aF-1.1354501
aa(lp706
F-0.3681085
aF6.8641763
aF-2.3014264
aa(lp707
F-0.17657238
aF7.7201033
aF0.19273324
aa(lp708
F-0.2160767
aF9.192537
aF0.670975
aa(lp709
F0.98700964
aF10.697892
aF0.17178397
aa(lp710
F0.6218939
aF10.571598
aF1.2455834
aa(lp711
F1.7501614
aF11.030685
aF-0.94092125
aa(lp712
F1.4395138
aF10.305243
aF-1.3210008
aa(lp713
F1.804031
aF10.220847
aF-1.8662802
aaa(lp714
(lp715
F1.5227122
aF9.9928
aF-2.022502
aa(lp716
F1.5634137
aF9.677961
aF-2.397793
aa(lp717
F1.9249382
aF9.713875
aF-4.1623197
aa(lp718
F0.78769237
aF8.364143
aF-5.251083
aa(lp719
F-1.0121487
aF6.3745623
aF-4.2610803
aa(lp720
F-0.7086837
aF4.678869
aF-3.731962
aa(lp721
F0.61890113
aF4.3514614
aF-0.76075757
aa(lp722
F1.541866
aF4.380192
aF0.6787562
aa(lp723
F3.6116533
aF4.0653543
aF4.8404775
aa(lp724
F11.247959
aF9.135675
aF5.3713913
aa(lp725
F14.033014
aF9.701305
aF9.617508
aa(lp726
F17.509396
aF11.850699
aF3.6774938
aa(lp727
F13.496115
aF9.572617
aF-0.7338228
aa(lp728
F12.84549
aF8.09719
aF-1.2958617
aa(lp729
F12.014703
aF7.536947
aF-2.9376855
aa(lp730
F11.273099
aF7.12694
aF-2.815581
aa(lp731
F10.140042
aF7.3100963
aF-3.7152026
aa(lp732
F8.526351
aF7.053318
aF-3.9959226
aa(lp733
F6.4787097
aF6.767211
aF-2.866458
aa(lp734
F4.378995
aF6.2003837
aF-1.2808979
aa(lp735
F3.5356374
aF7.3190746
aF-2.3511062
aa(lp736
F0.8900445
aF6.5128274
aF-0.80445176
aa(lp737
F0.39624038
aF7.207744
aF-1.127669
aa(lp738
F0.82719666
aF8.2276745
aF-0.7260417
aa(lp739
F0.53929394
aF8.693945
aF0.14305355
aa(lp740
F0.37708676
aF9.457695
aF-0.13227965
aa(lp741
F0.53091425
aF9.949704
aF-0.7422025
aa(lp742
F1.0313023
aF9.9928
aF-1.1282675
aa(lp743
F1.3006501
aF10.019135
aF-1.2378023
aa(lp744
F1.5448587
aF10.118495
aF-2.1021092
aa(lp745
F1.2605472
aF9.812037
aF-1.2282255
aa(lp746
F1.5520413
aF9.938332
aF-1.5209166
aaa(lp747
(lp748
F1.7788919
aF10.277709
aF-1.8752584
aa(lp749
F1.7250223
aF10.105327
aF-1.8483237
aa(lp750
F2.256535
aF10.357317
aF-3.116652
aa(lp751
F1.2617443
aF9.185355
aF-3.5284548
aa(lp752
F0.110731825
aF7.66384
aF-3.2489316
aa(lp753
F-1.0480618
aF6.2207346
aF-3.8857894
aa(lp754
F0.58298814
aF6.2793927
aF-3.618836
aa(lp755
F0.60693014
aF5.7598505
aF-0.107140526
aa(lp756
F0.65242
aF4.6261964
aF-0.016759412
aa(lp757
F4.970961
aF6.554127
aF2.765303
aa(lp758
F6.5086374
aF6.30932
aF4.228759
aa(lp759
F13.110648
aF9.190742
aF10.010158
aa(lp760
F16.09981
aF11.035474
aF5.8544216
aa(lp761
F15.079281
aF9.790489
aF4.1132383
aa(lp762
F13.79539
aF8.304887
aF-0.08379706
aa(lp763
F13.564948
aF7.6961613
aF-3.0065188
aa(lp764
F12.761095
aF7.08564
aF-4.052785
aa(lp765
F11.134235
aF7.1688385
aF-5.2361193
aa(lp766
F7.9708962
aF6.147113
aF-3.70383
aa(lp767
F5.673061
aF5.9873
aF-2.2649148
aa(lp768
F3.5577838
aF5.8484364
aF-1.282095
aa(lp769
F2.4361002
aF6.1566896
aF-0.82360536
aa(lp770
F1.3802572
aF6.96174
aF-1.5251064
aa(lp771
F1.5891514
aF7.9463553
aF-1.8495208
aa(lp772
F1.0785879
aF8.167819
aF-0.57760113
aa(lp773
F1.4610616
aF9.205706
aF-1.1480197
aa(lp774
F0.40880993
aF8.948928
aF0.11492168
aa(lp775
F1.9297266
aF10.196306
aF-0.31124622
aa(lp776
F1.4586674
aF9.997588
aF0.077213004
aa(lp777
F2.0177135
aF10.411186
aF-1.4802152
aa(lp778
F1.9662381
aF10.173561
aF-0.96785605
aaa(lp779
(lp780
F3.891775
aF9.589975
aF-1.8513165
aa(lp781
F4.2491093
aF9.889849
aF-2.7234044
aa(lp782
F4.734534
aF9.853935
aF-4.9003325
aa(lp783
F4.288614
aF8.614936
aF-7.2472486
aa(lp784
F2.995745
aF6.997653
aF-5.436035
aa(lp785
F2.7401638
aF5.878962
aF-2.6222494
aa(lp786
F2.697667
aF5.935226
aF-1.3000516
aa(lp787
F0.1376666
aF4.0707417
aF0.108936176
aa(lp788
F1.8513165
aF4.325724
aF1.9524715
aa(lp789
F3.8187518
aF5.4019175
aF0.9600749
aa(lp790
F9.633669
aF8.185177
aF5.671864
aa(lp791
F13.343485
aF10.36031
aF1.8662802
aa(lp792
F18.036718
aF12.066178
aF3.705027
aa(lp793
F14.144943
aF9.628283
aF-0.712275
aa(lp794
F13.281834
aF7.9272017
aF-3.0508115
aa(lp795
F12.191874
aF6.8013287
aF-2.5731683
aa(lp796
F11.852495
aF6.0902505
aF-4.19105
aa(lp797
F9.859323
aF5.3504424
aF-6.8545995
aa(lp798
F7.7470384
aF5.3833623
aF-5.7598505
aa(lp799
F5.2540755
aF4.871602
aF-4.1706996
aa(lp800
F4.7123876
aF6.1524997
aF-4.128801
aa(lp801
F2.381632
aF5.563526
aF-1.9428947
aa(lp802
F2.2637177
aF7.129334
aF-2.7539306
aa(lp803
F1.8393455
aF7.5692687
aF-0.748188
aa(lp804
F1.7884687
aF8.565855
aF-0.6302736
aa(lp805
F2.1583729
aF9.900024
aF-0.9911995
aa(lp806
F1.9057846
aF9.97604
aF-0.095169514
aa(lp807
F2.9855695
aF10.684724
aF-2.1667526
aa(lp808
F2.566584
aF9.837775
aF-2.355296
aa(lp809
F2.6623523
aF9.615114
aF-2.5629928
aaa(lp810
(lp811
F2.9706059
aF9.378088
aF-2.8329391
aa(lp812
F2.0500352
aF8.677784
aF-3.470994
aa(lp813
F1.8154035
aF8.154053
aF-4.083311
aa(lp814
F1.9081788
aF7.8158712
aF-5.449203
aa(lp815
F0.25079262
aF6.0363812
aF-4.1946416
aa(lp816
F-0.54767364
aF4.7500963
aF-3.5350387
aa(lp817
F1.9841946
aF5.282806
aF-1.484405
aa(lp818
F1.2868834
aF3.3614593
aF-0.2184709
aa(lp819
F7.8050976
aF5.657499
aF3.9791632
aa(lp820
F10.183737
aF6.333262
aF4.8165355
aa(lp821
F15.6473055
aF8.456321
aF7.626131
aa(lp822
F19.607914
aF11.215039
aF0.66858083
aa(lp823
F14.30775
aF7.813477
aF-4.2024226
aa(lp824
F12.532449
aF5.4462104
aF-3.8025908
aa(lp825
F12.886192
aF4.8620253
aF-5.183447
aa(lp826
F11.812392
aF4.994903
aF-8.184579
aa(lp827
F9.703699
aF4.635773
aF-6.754043
aa(lp828
F8.48984
aF5.441422
aF-6.173449
aa(lp829
F5.524022
aF4.9015293
aF-3.6062663
aa(lp830
F2.657564
aF4.845266
aF-2.8981812
aa(lp831
F1.2844892
aF5.3504424
aF-1.3102269
aa(lp832
F0.1328782
aF6.0651116
aF-0.3597288
aa(lp833
F0.25378537
aF7.569867
aF-1.0402806
aa(lp834
F0.1921347
aF8.540117
aF0.7685388
aa(lp835
F1.3018472
aF9.781511
aF-0.83856916
aa(lp836
F2.2170308
aF10.559627
aF-1.1312603
aa(lp837
F1.7435774
aF9.924564
aF-1.7399861
aaa(lp838
(lp839
F2.9011738
aF9.44333
aF-3.4943373
aa(lp840
F2.6844985
aF8.732851
aF-4.957793
aa(lp841
F1.7543513
aF7.2747817
aF-4.9440265
aa(lp842
F-0.85473
aF4.522647
aF-5.386954
aa(lp843
F-0.91697925
aF2.48578
aF-1.4496891
aa(lp844
F2.5210943
aF2.789245
aF-0.6344634
aa(lp845
F6.5720835
aF5.0930657
aF0.9600749
aa(lp846
F11.812991
aF6.991069
aF6.0597243
aa(lp847
F17.37592
aF10.97502
aF0.14065935
aa(lp848
F19.565416
aF11.963227
aF2.0925324
aa(lp849
F13.595474
aF8.3408
aF-2.066196
aa(lp850
F13.514071
aF6.6265516
aF-4.76925
aa(lp851
F12.707824
aF5.645528
aF-3.6541502
aa(lp852
F12.554595
aF5.7963624
aF-6.375759
aa(lp853
F11.704055
aF5.609016
aF-7.1311297
aa(lp854
F7.675811
aF4.7949877
aF-5.2181625
aa(lp855
F5.3821654
aF4.9069166
aF-3.4596214
aa(lp856
F4.390966
aF5.2899885
aF-3.3141737
aa(lp857
F2.332551
aF5.21517
aF-2.6420016
aa(lp858
F1.6101006
aF6.605004
aF-2.0590134
aa(lp859
F0.6787562
aF6.8569937
aF-0.37708676
aa(lp860
F0.9624691
aF9.049484
aF-0.3585317
aa(lp861
F2.046444
aF10.20289
aF0.676362
aa(lp862
F2.4319103
aF10.749367
aF-0.5105635
aa(lp863
F2.8682537
aF10.748769
aF-1.2958617
aa(lp864
F2.5797524
aF9.993997
aF-2.606687
aaa.