(lp0
(lp1
(lp2
F-0.39145198
aF10.168175
aF-0.6979098
aa(lp3
F-1.1366472
aF9.901819
aF0.2220622
aa(lp4
F-1.3515269
aF9.829993
aF1.3365631
aa(lp5
F-1.4544775
aF9.867104
aF0.88166475
aa(lp6
F-1.2096704
aF10.164583
aF1.2515689
aa(lp7
F-2.8724434
aF9.681553
aF0.4189853
aa(lp8
F-3.6463692
aF9.526528
aF1.7495629
aa(lp9
F-3.144784
aF9.504981
aF2.3558946
aa(lp10
F-4.0001125
aF8.3072815
aF2.6018987
aa(lp11
F-6.491878
aF9.284116
aF-0.92895025
aa(lp12
F-14.163499
aF9.349358
aF-1.9381063
aa(lp13
F-16.361975
aF1.4586674
aF-8.845977
aa(lp14
F-4.823718
aF2.4139538
aF-8.859145
aa(lp15
F16.568474
aF-1.7304093
aF-0.74519527
aa(lp16
F19.607914
aF2.010531
aF-10.986393
aa(lp17
F13.837887
aF7.0706763
aF-11.717223
aa(lp18
F12.639589
aF0.96546185
aF-7.466318
aa(lp19
F7.16405
aF1.7286136
aF-2.3187842
aa(lp20
F0.7823054
aF7.1287355
aF-4.823119
aa(lp21
F-0.91338795
aF8.926781
aF-0.19991584
aa(lp22
F-1.395221
aF11.613674
aF-3.4727895
aa(lp23
F-6.203975
aF8.202535
aF-1.7932571
aa(lp24
F-11.309011
aF9.547478
aF-2.3959973
aa(lp25
F-5.1636944
aF12.270284
aF0.5494693
aa(lp26
F-2.2703018
aF10.40939
aF2.5198972
aa(lp27
F-1.240795
aF9.024943
aF1.1234791
aa(lp28
F-1.4185646
aF8.605359
aF2.8688521
aa(lp29
F-1.1893197
aF9.128492
aF0.9828198
aaa(lp30
(lp31
F-0.64703304
aF9.897031
aF0.2136825
aa(lp32
F-0.44472298
aF10.166978
aF0.545878
aa(lp33
F-0.21787235
aF10.225037
aF0.47884035
aa(lp34
F-0.3369839
aF10.067019
aF0.26515785
aa(lp35
F-0.5895722
aF9.960478
aF0.12868834
aa(lp36
F0.0011971008
aF10.557831
aF0.87448215
aa(lp37
F-3.0771477
aF9.914988
aF-0.036511578
aa(lp38
F-4.655525
aF9.579201
aF-0.3477578
aa(lp39
F-6.55293
aF10.406996
aF-1.632247
aa(lp40
F-11.021708
aF11.484387
aF-1.6950948
aa(lp41
F-18.343775
aF1.8680758
aF-8.244433
aa(lp42
F-11.303625
aF-4.665102
aF-9.931747
aa(lp43
F19.607914
aF-6.237494
aF0.6955156
aa(lp44
F19.607914
aF0.15382746
aF-3.5523968
aa(lp45
F19.607914
aF14.901511
aF-15.603012
aa(lp46
F7.626131
aF-4.654328
aF-10.157999
aa(lp47
F11.27669
aF-0.99658644
aF-3.815759
aa(lp48
F9.54209
aF4.207211
aF-6.563704
aa(lp49
F3.5853171
aF6.4882865
aF-2.902371
aa(lp50
F-1.508347
aF9.062054
aF0.29807812
aa(lp51
F-5.1966147
aF10.740389
aF-3.13401
aa(lp52
F-6.5337763
aF9.554661
aF-4.6980224
aa(lp53
F-13.557167
aF9.166202
aF-5.429451
aa(lp54
F-7.4746976
aF10.761936
aF-0.12150574
aa(lp55
F-3.233968
aF11.095928
aF-1.1815386
aa(lp56
F-0.61052144
aF10.224439
aF1.7208325
aa(lp57
F-0.037708677
aF9.694721
aF1.0570401
aa(lp58
F-0.97025025
aF9.2547865
aF1.0061632
aa(lp59
F-1.6753427
aF9.126099
aF-0.14664486
aaa(lp60
(lp61
F-0.90979666
aF10.068815
aF-0.060453594
aa(lp62
F-0.7990648
aF10.180744
aF-0.0035913025
aa(lp63
F-0.5117606
aF10.147824
aF-0.22026655
aa(lp64
F-1.4101849
aF9.727641
aF-0.20590134
aa(lp65
F-1.1797429
aF9.937134
aF-0.03172317
aa(lp66
F-0.87089086
aF10.461464
aF0.5674258
aa(lp67
F-2.878429
aF9.8437605
aF0.6404489
aa(lp68
F-3.2585084
aF9.804854
aF0.60333884
aa(lp69
F-3.7122097
aF10.199898
aF0.24061728
aa(lp70
F-9.059659
aF12.297817
aF-1.3006501
aa(lp71
F-15.416265
aF9.585785
aF-5.253477
aa(lp72
F-19.60911
aF0.25977087
aF-10.213066
aa(lp73
F-9.211691
aF-3.8163576
aF-8.579023
aa(lp74
F18.096573
aF-3.8013937
aF2.3523033
aa(lp75
F19.607914
aF-0.17896658
aF-11.016919
aa(lp76
F19.607914
aF13.006501
aF-16.378735
aa(lp77
F7.033566
aF-3.8684313
aF-9.89344
aa(lp78
F12.493543
aF-1.7405846
aF-5.99149
aa(lp79
F6.8827314
aF0.7858967
aF-7.3567834
aa(lp80
F0.9876082
aF4.9105077
aF-1.875857
aa(lp81
F-2.9652188
aF8.292916
aF-3.9965212
aa(lp82
F-5.1385555
aF9.618107
aF-3.2752678
aa(lp83
F-6.455366
aF10.87626
aF-3.0669725
aa(lp84
F-6.555324
aF10.614694
aF-4.666898
aa(lp85
F-6.6983776
aF10.90918
aF-0.19393034
aa(lp86
F-4.746505
aF11.0247
aF-0.90261406
aa(lp87
F-1.7902644
aF11.274895
aF-0.9475053
aa(lp88
F-2.3768437
aF9.672575
aF1.5065514
aa(lp89
F-0.6099229
aF9.798869
aF-0.4141969
aa(lp90
F-0.89603
aF9.681553
aF0.97384155
aa(lp91
F-0.45789108
aF9.965864
aF-0.22864626
aa(lp92
F-0.7613561
aF10.202292
aF0.5189432
aa(lp93
F-0.80205756
aF10.242993
aF0.22625206
aa(lp94
F-1.2545617
aF9.856929
aF0.1921347
aaa(lp95
(lp96
F-0.9911995
aF10.048465
aF-0.08319851
aa(lp97
F-1.0247183
aF9.987412
aF-0.15143326
aa(lp98
F-0.943914
aF10.053253
aF0.015562311
aa(lp99
F-1.0791864
aF10.009559
aF-0.008379706
aa(lp100
F-0.9020155
aF10.126276
aF-0.08259996
aa(lp101
F-0.81522566
aF10.113108
aF-0.13826515
aa(lp102
F-0.24181437
aF10.869077
aF-0.048482586
aa(lp103
F-2.4528596
aF10.29806
aF-0.22445641
aa(lp104
F-4.672883
aF10.683527
aF0.36750996
aa(lp105
F-13.467983
aF12.054806
aF-4.224569
aa(lp106
F-18.860323
aF3.9378633
aF-3.5152867
aa(lp107
F-17.009605
aF-0.017956512
aF-8.835203
aa(lp108
F-8.44016
aF2.111686
aF-9.422979
aa(lp109
F13.056779
aF2.190096
aF2.7018566
aa(lp110
F19.607914
aF-0.24600422
aF-6.0285997
aa(lp111
F19.607914
aF6.149507
aF-9.6049385
aa(lp112
F18.677767
aF9.64983
aF-10.3214035
aa(lp113
F14.833277
aF0.6572084
aF-6.813898
aa(lp114
F6.001665
aF2.9472623
aF-5.129577
aa(lp115
F-1.7812861
aF6.459556
aF-4.1653123
aa(lp116
F-10.020332
aF7.7727757
aF-3.1705215
aa(lp117
F-11.484985
aF8.934562
aF-5.903503
aa(lp118
F-7.1939774
aF11.120468
aF-2.6300306
aa(lp119
F-4.3568487
aF11.201273
aF-1.3754689
aa(lp120
F-2.1936872
aF10.177752
aF-0.3705027
aa(lp121
F-1.6885108
aF9.5798
aF0.29688102
aaa(lp122
(lp123
F-1.3742718
aF9.881469
aF-0.26515785
aa(lp124
F-1.0510546
aF10.095152
aF-0.45968673
aa(lp125
F-1.0935516
aF9.985617
aF-0.26755205
aa(lp126
F-1.1605892
aF9.861717
aF-0.35553896
aa(lp127
F-1.2904748
aF9.832987
aF-0.6063316
aa(lp128
F-1.5167267
aF9.909002
aF0.094570965
aa(lp129
F-2.7611132
aF10.238804
aF-0.842759
aa(lp130
F-7.015011
aF11.384429
aF-1.3718776
aa(lp131
F-12.140398
aF11.92911
aF-1.8273745
aa(lp132
F-19.60911
aF4.868609
aF-4.1437645
aa(lp133
F-14.205996
aF0.56323594
aF-8.513782
aa(lp134
F-0.37349546
aF-2.566584
aF-7.5644803
aa(lp135
F19.607914
aF-1.2563573
aF-0.7942764
aa(lp136
F19.607914
aF6.121375
aF-13.095685
aa(lp137
F15.652692
aF6.569091
aF-16.827047
aa(lp138
F12.716204
aF-1.0348936
aF-3.3411086
aa(lp139
F12.515091
aF-0.700304
aF-9.874885
aa(lp140
F1.6023195
aF0.089782566
aF-6.88752
aa(lp141
F-12.599486
aF6.6947865
aF-5.395334
aa(lp142
F-17.529148
aF6.294955
aF-2.8898015
aa(lp143
F-10.188525
aF12.096106
aF-5.97892
aa(lp144
F-2.665345
aF12.879009
aF2.4181437
aa(lp145
F-2.2457612
aF11.2449665
aF-0.31603462
aa(lp146
F-2.111686
aF8.926781
aF-0.6135142
aa(lp147
F-1.9434932
aF8.890269
aF-0.49081135
aa(lp148
F-0.98700964
aF9.565434
aF0.45429978
aaa(lp149
(lp150
F-0.9504981
aF9.862914
aF-0.022744916
aa(lp151
F-0.48123455
aF10.298658
aF0.014963761
aa(lp152
F-0.8355764
aF10.057443
aF-0.012569559
aa(lp153
F-0.7428011
aF10.023924
aF-0.14305355
aa(lp154
F-1.0378864
aF9.814431
aF0.05925649
aa(lp155
F-1.055843
aF9.879673
aF0.029927522
aa(lp156
F-1.2000936
aF9.919178
aF0.18914193
aa(lp157
F-1.0013748
aF10.0748005
aF0.3286042
aa(lp158
F-1.4550761
aF10.044873
aF0.0676362
aa(lp159
F-1.5861586
aF10.51713
aF0.57520694
aa(lp160
F-3.6709096
aF11.3138
aF-1.2868834
aa(lp161
F-8.426991
aF12.003929
aF-0.82899237
aa(lp162
F-15.360001
aF6.2662244
aF-2.598906
aa(lp163
F-13.866019
aF5.6778493
aF-7.3388267
aa(lp164
F-8.829816
aF3.767875
aF-8.200739
aa(lp165
F5.873575
aF1.6364368
aF-5.059547
aa(lp166
F19.607914
aF0.1436521
aF-7.0012445
aa(lp167
F18.503588
aF8.7849245
aF-8.813655
aa(lp168
F11.729194
aF7.1742253
aF-7.716512
aa(lp169
F11.23539
aF3.0256724
aF-10.5291
aa(lp170
F10.217256
aF2.8281507
aF-5.886145
aa(lp171
F5.046977
aF5.6461263
aF-0.4369418
aa(lp172
F-0.65301853
aF7.1233487
aF-4.2221746
aa(lp173
F-4.6962266
aF8.30369
aF-0.272939
aa(lp174
F-4.650737
aF11.349713
aF-3.4290953
aa(lp175
F-8.468291
aF9.488221
aF-4.621408
aa(lp176
F-8.9279785
aF9.989208
aF-4.0216603
aa(lp177
F-6.695385
aF10.4405155
aF-2.9741971
aa(lp178
F-2.9173348
aF10.990582
aF-1.0187328
aa(lp179
F-2.7850552
aF9.886257
aF0.6817489
aa(lp180
F-1.2731167
aF9.845556
aF0.4842273
aa(lp181
F-1.4556746
aF9.535507
aF-0.2908955
aaa(lp182
(lp183
F-1.42455
aF9.936536
aF-0.0005985504
aa(lp184
F-1.3138182
aF9.989208
aF0.09876082
aa(lp185
F-1.3802572
aF9.871892
aF-0.074220255
aa(lp186
F-1.5400703
aF9.81503
aF0.076015905
aa(lp187
F-1.3126211
aF9.954493
aF0.11731588
aa(lp188
F-1.6819267
aF9.649231
aF-0.015562311
aa(lp189
F-2.1733365
aF9.631873
aF-0.33399114
aa(lp190
F-3.276465
aF10.049063
aF-0.23642741
aa(lp191
F-6.4230447
aF12.257714
aF-2.7263973
aa(lp192
F-10.245986
aF12.865841
aF-2.7377696
aa(lp193
F-17.475279
aF3.2291796
aF-4.4795513
aa(lp194
F-10.858902
aF2.705448
aF-8.91481
aa(lp195
F0.8984242
aF0.32321724
aF-4.4957123
aa(lp196
F19.607914
aF-1.7262194
aF-9.31943
aa(lp197
F19.607914
aF6.4062853
aF-14.504672
aa(lp198
F13.980342
aF4.6160207
aF-9.546879
aa(lp199
F17.501614
aF0.7529764
aF-6.0543375
aa(lp200
F6.1129956
aF2.460641
aF-6.625953
aa(lp201
F-3.1376014
aF4.3239284
aF-0.777517
aa(lp202
F-6.602011
aF8.214506
aF-1.3826514
aa(lp203
F-10.928932
aF9.697116
aF-3.86484
aa(lp204
F-7.3962874
aF12.582129
aF-3.0765493
aa(lp205
F-3.887585
aF13.1238165
aF-0.78888947
aa(lp206
F-3.0388405
aF10.523115
aF1.721431
aa(lp207
F-1.7633295
aF9.5013895
aF-0.16998832
aa(lp208
F-1.5939398
aF9.305065
aF0.87328506
aa(lp209
F-0.60932434
aF9.974244
aF0.09756372
aa(lp210
F-1.5915456
aF9.599552
aF1.5280992
aaa(lp211
(lp212
F-1.4975731
aF9.940725
aF0.3824737
aa(lp213
F-1.2952632
aF10.134057
aF0.44831428
aa(lp214
F-1.2336124
aF10.049063
aF0.3866636
aa(lp215
F-1.4951789
aF9.886856
aF0.38367084
aa(lp216
F-1.6567876
aF9.618107
aF0.6823475
aa(lp217
F-1.8746599
aF9.582193
aF0.21547815
aa(lp218
F-1.8046296
aF9.689334
aF0.44352585
aa(lp219
F-1.7741034
aF9.88925
aF0.5267244
aa(lp220
F-2.5222914
aF9.9473095
aF0.4405331
aa(lp221
F-8.499416
aF12.846687
aF-0.91817635
aa(lp222
F-16.871342
aF11.225813
aF-2.183512
aa(lp223
F-19.60911
aF-2.1625626
aF-15.442601
aa(lp224
F2.0278888
aF-4.2371383
aF-2.983774
aa(lp225
F19.607914
aF-3.305794
aF-3.9474401
aa(lp226
F19.607914
aF7.764396
aF-17.220894
aa(lp227
F14.375984
aF6.109404
aF-12.037448
aa(lp228
F15.474324
aF-0.5895722
aF-8.8088665
aa(lp229
F8.452729
aF-2.9053638
aF-3.9576154
aa(lp230
F5.3498435
aF4.3221326
aF2.2948422
aa(lp231
F-3.5045128
aF8.366538
aF-0.4321534
aa(lp232
F-7.41185
aF9.820416
aF0.7846996
aa(lp233
F-10.9187565
aF11.23539
aF-1.2659341
aa(lp234
F-11.657967
aF12.764088
aF-4.203021
aa(lp235
F-5.5060654
aF12.8209505
aF2.4366987
aa(lp236
F-3.277662
aF10.407595
aF1.2922704
aa(lp237
F-1.7645266
aF9.170391
aF-0.11731588
aa(lp238
F-0.7260417
aF9.3583355
aF-0.062249243
aa(lp239
F-1.5215151
aF8.967483
aF2.2463598
aaa(lp240
(lp241
F-1.1210849
aF10.011953
aF0.9151836
aa(lp242
F-0.97862995
aF10.088568
aF0.9151836
aa(lp243
F-1.0295067
aF9.974244
aF0.717662
aa(lp244
F-1.2904748
aF9.829993
aF0.8230068
aa(lp245
F-1.2497733
aF9.836577
aF0.6003461
aa(lp246
F-1.1043255
aF9.961675
aF0.96665895
aa(lp247
F-1.5879543
aF9.841366
aF0.78888947
aa(lp248
F-1.2413936
aF10.016742
aF1.0887632
aa(lp249
F-1.9961656
aF10.378265
aF0.1340753
aa(lp250
F-5.954978
aF11.794436
aF-0.30526072
aa(lp251
F-12.891579
aF12.873623
aF-1.3263878
aa(lp252
F-19.518131
aF3.916914
aF-2.4528596
aa(lp253
F-11.945271
aF1.6675615
aF-11.292253
aa(lp254
F-1.4047978
aF-3.3608606
aF-4.5663414
aa(lp255
F19.607914
aF-0.89184016
aF-6.411672
aa(lp256
F19.607914
aF3.50152
aF-8.878897
aa(lp257
F16.296732
aF10.365696
aF-10.936115
aa(lp258
F14.762648
aF2.172738
aF-8.574833
aa(lp259
F10.368689
aF0.22744916
aF-3.1399956
aa(lp260
F9.146449
aF4.0839095
aF-5.6736593
aa(lp261
F-5.6042275
aF5.763442
aF0.6727707
aa(lp262
F-15.904682
aF10.007165
aF-3.8379054
aa(lp263
F-9.293094
aF13.324929
aF-7.838018
aa(lp264
F-3.016694
aF13.060968
aF2.4247277
aa(lp265
F-3.0310593
aF9.783307
aF1.6657659
aa(lp266
F-0.78769237
aF9.857527
aF-0.3321955
aa(lp267
F-1.9865888
aF8.780735
aF2.457648
aaa(lp268
(lp269
F-1.1043255
aF9.925761
aF0.56922144
aa(lp270
F-1.0001777
aF10.019135
aF0.6476316
aa(lp271
F-1.1492168
aF10.1304655
aF0.492607
aa(lp272
F-1.3976152
aF9.928755
aF0.90261406
aa(lp273
F-1.8471266
aF9.797672
aF0.39324763
aa(lp274
F-2.9987376
aF9.908403
aF0.50637364
aa(lp275
F-5.9346275
aF10.3639
aF-0.2861071
aa(lp276
F-10.280702
aF11.334749
aF-2.2337902
aa(lp277
F-14.355035
aF8.054094
aF-5.8226986
aa(lp278
F-12.217012
aF2.3427265
aF-8.495226
aa(lp279
F0.44831428
aF-4.050989
aF-5.1020436
aa(lp280
F19.607914
aF-2.9071593
aF-2.2152352
aa(lp281
F19.568409
aF14.793174
aF-15.6473055
aa(lp282
F9.664195
aF0.35913026
aF-13.893553
aa(lp283
F9.066842
aF1.0594343
aF-0.4782418
aa(lp284
F8.196549
aF3.7068229
aF-10.374076
aa(lp285
F6.5241995
aF5.032612
aF-5.221155
aa(lp286
F-0.31304187
aF7.380127
aF-4.4843397
aa(lp287
F-3.9983168
aF9.363124
aF-6.5726824
aa(lp288
F-2.1918917
aF9.715072
aF-6.010045
aa(lp289
F-8.157643
aF9.414599
aF-3.1771057
aa(lp290
F-7.893683
aF9.69113
aF-1.0965444
aa(lp291
F-4.8045645
aF10.731411
aF0.19931729
aa(lp292
F-3.2962172
aF10.597335
aF-0.46148238
aa(lp293
F-2.3780408
aF9.901819
aF1.5693992
aa(lp294
F-1.7555484
aF9.425373
aF1.359308
aa(lp295
F-1.7537527
aF9.686341
aF1.7435774
aa(lp296
F-1.5125369
aF9.749189
aF0.7763199
aa(lp297
F-1.5310919
aF9.753978
aF0.090381116
aa(lp298
F-1.9794062
aF9.711481
aF1.6238673
aaa(lp299
(lp300
F-1.6759412
aF9.947908
aF0.31423897
aa(lp301
F-1.5460558
aF10.005369
aF0.15322891
aa(lp302
F-1.0714053
aF10.414778
aF-0.23762453
aa(lp303
F-6.302736
aF10.093356
aF-0.24241292
aa(lp304
F-14.219763
aF10.476428
aF-1.1360487
aa(lp305
F-19.60911
aF3.3381157
aF-4.691438
aa(lp306
F-11.705851
aF0.19632454
aF-8.731055
aa(lp307
F12.102091
aF0.1448492
aF-4.5082817
aa(lp308
F19.607914
aF0.86370826
aF-2.2619221
aa(lp309
F19.207483
aF8.813655
aF-19.255966
aa(lp310
F13.135189
aF6.43741
aF-5.4527946
aa(lp311
F13.494319
aF2.7539306
aF-7.4004774
aa(lp312
F10.159196
aF1.0127473
aF-4.514866
aa(lp313
F1.572392
aF2.2918496
aF1.3826514
aa(lp314
F-10.605715
aF7.4926543
aF-0.9355343
aa(lp315
F-17.893066
aF8.525154
aF-7.9714947
aa(lp316
F-9.791088
aF12.465411
aF-2.4067712
aa(lp317
F-4.024653
aF12.524069
aF2.3157916
aa(lp318
F-2.2164323
aF11.171345
aF3.663727
aa(lp319
F-1.6956934
aF8.966884
aF0.6727707
aaa(lp320
(lp321
F-2.1577742
aF9.64564
aF0.5979519
aa(lp322
F-1.9075803
aF10.019135
aF0.700304
aa(lp323
F-2.022502
aF9.861717
aF0.66139823
aa(lp324
F-2.4013844
aF9.537302
aF0.49679685
aa(lp325
F-2.6276364
aF9.45171
aF0.8050503
aa(lp326
F-1.9273324
aF10.224439
aF0.78290397
aa(lp327
F-3.9372647
aF9.518148
aF1.1324574
aa(lp328
F-4.06296
aF9.484032
aF0.38067806
aa(lp329
F-5.975329
aF10.394426
aF0.16519992
aa(lp330
F-16.762405
aF11.760918
aF-1.9829975
aa(lp331
F-19.60911
aF0.95349085
aF-6.5870476
aa(lp332
F-19.598337
aF-15.950171
aF-14.865
aa(lp333
F19.607914
aF-7.0587053
aF-2.7377696
aa(lp334
F19.607914
aF3.6762967
aF-3.141791
aa(lp335
F19.607914
aF10.685322
aF-10.514136
aa(lp336
F19.607914
aF-6.3284736
aF2.6880898
aa(lp337
F-13.28782
aF-10.263943
aF-6.001665
aa(lp338
F-19.60911
aF3.353678
aF-9.147646
aa(lp339
F-12.173319
aF17.673998
aF-3.6900635
aa(lp340
F-3.8253357
aF16.85518
aF2.645593
aa(lp341
F-2.5923219
aF9.5809965
aF-2.0135236
aa(lp342
F-1.7423803
aF9.578603
aF-0.9295488
aa(lp343
F-0.9684546
aF9.72824
aF0.682946
aaa(lp344
(lp345
F-1.5155296
aF10.225037
aF0.19393034
aa(lp346
F-1.1833342
aF10.497976
aF0.5033809
aa(lp347
F-1.0366893
aF10.434529
aF-0.30047232
aa(lp348
F-1.8231846
aF10.97502
aF0.22565351
aa(lp349
F-10.593145
aF10.078991
aF0.53211135
aa(lp350
F-19.60911
aF10.523115
aF-3.1585505
aa(lp351
F-19.60911
aF9.192537
aF-8.283937
aa(lp352
F6.4326215
aF-19.608511
aF-9.030929
aa(lp353
F19.607914
aF-9.386468
aF3.3812113
aa(lp354
F19.607914
aF18.998589
aF-16.54154
aa(lp355
F19.607914
aF-7.8170686
aF8.024167
aa(lp356
F9.045893
aF-7.869741
aF-2.9011738
aa(lp357
F-19.60911
aF-6.6391215
aF-16.960526
aa(lp358
F-19.60911
aF4.1401734
aF-12.70124
aa(lp359
F-2.8526914
aF17.95771
aF7.679402
aa(lp360
F-3.6661212
aF10.44231
aF2.2463598
aa(lp361
F-2.3307555
aF7.996035
aF-1.9895816
aa(lp362
F-2.0033484
aF9.488221
aF-0.504578
aa(lp363
F-2.3145945
aF9.3733
aF0.09816227
aaa(lp364
(lp365
F-2.3582888
aF9.569026
aF-0.42197806
aa(lp366
F-2.3391352
aF9.737817
aF0.25737667
aa(lp367
F-2.167351
aF10.15381
aF0.36990416
aa(lp368
F-1.3479356
aF10.825383
aF0.45489833
aa(lp369
F-1.5029601
aF11.585542
aF0.034715924
aa(lp370
F-5.451597
aF10.447698
aF0.10175357
aa(lp371
F-19.60911
aF7.2430587
aF-6.9090676
aa(lp372
F-19.60911
aF-18.790293
aF-19.608511
aa(lp373
F16.50802
aF-19.608511
aF-8.139089
aa(lp374
F19.607914
aF3.1597476
aF6.2805896
aa(lp375
F19.607914
aF8.087015
aF-8.480263
aa(lp376
F19.607914
aF-9.41879
aF-2.2816741
aa(lp377
F-5.3444567
aF-10.06283
aF-1.9542671
aa(lp378
F-19.60911
aF3.8510735
aF-19.59714
aa(lp379
F-15.519216
aF14.78659
aF-13.405135
aa(lp380
F-4.1695023
aF14.203003
aF9.51336
aa(lp381
F-1.0109516
aF11.587936
aF2.540248
aaa(lp382
(lp383
F-3.1184478
aF11.24377
aF0.65900403
aa(lp384
F-10.02572
aF9.326612
aF1.6567876
aa(lp385
F-19.396027
aF9.00579
aF-5.852626
aa(lp386
F-19.60911
aF-5.7245364
aF-16.298529
aa(lp387
F9.97604
aF-16.546328
aF-7.9649105
aa(lp388
F19.607914
aF-12.967595
aF5.2319293
aa(lp389
F19.607914
aF10.940305
aF-6.0998273
aa(lp390
F19.607914
aF-9.053075
aF0.32621
aa(lp391
F5.1541176
aF-6.505046
aF-5.7790046
aa(lp392
F-11.406575
aF2.7180176
aF-6.475717
aa(lp393
F-19.60911
aF8.1319065
aF-9.551069
aa(lp394
F-10.509947
aF13.630789
aF-1.6172832
aa(lp395
F-2.621651
aF14.107834
aF0.14903906
aa(lp396
F-2.1308396
aF11.03727
aF-4.052785
aa(lp397
F-1.8884265
aF10.368689
aF0.521936
aa(lp398
F-1.7004818
aF9.626487
aF0.28790274
aaa(lp399
(lp400
F-1.7399861
aF9.816227
aF-0.4285621
aa(lp401
F-1.9919758
aF9.912594
aF-0.4770447
aa(lp402
F-2.0853498
aF9.948506
aF-0.5374983
aa(lp403
F-3.2980127
aF9.393052
aF1.1599907
aa(lp404
F-3.180697
aF9.781511
aF1.1294646
aa(lp405
F-5.2606597
aF9.871294
aF1.3192052
aa(lp406
F-12.771869
aF10.166978
aF1.780089
aa(lp407
F-18.827404
aF4.1102457
aF-4.4639893
aa(lp408
F-19.60911
aF-5.727529
aF-19.605518
aa(lp409
F-4.2664676
aF-11.352706
aF-7.4723034
aa(lp410
F19.607914
aF-16.025589
aF1.0755951
aa(lp411
F19.607914
aF19.608511
aF8.556278
aa(lp412
F19.607914
aF-6.1327477
aF-3.2632968
aa(lp413
F12.966996
aF-7.86196
aF-8.844181
aa(lp414
F-19.540277
aF-2.930503
aF-6.4469867
aa(lp415
F-17.7967
aF15.2570505
aF-15.524602
aa(lp416
F-9.167996
aF14.181456
aF10.475231
aa(lp417
F-5.01286
aF11.92911
aF5.2397103
aa(lp418
F-3.6481647
aF7.997831
aF2.243367
aaa(lp419
(lp420
F-1.8788497
aF9.607931
aF1.7998412
aa(lp421
F-1.3162124
aF10.047267
aF1.7220296
aa(lp422
F-1.8836381
aF9.610924
aF1.1953052
aa(lp423
F-1.7381904
aF9.999982
aF-0.17717093
aa(lp424
F-2.0518308
aF10.121488
aF0.6218939
aa(lp425
F-1.7878702
aF10.581175
aF1.7561469
aa(lp426
F-2.8455088
aF10.323199
aF1.2988545
aa(lp427
F-5.5288105
aF9.333197
aF0.7757214
aa(lp428
F-11.250953
aF8.995016
aF-0.5781997
aa(lp429
F-18.616116
aF10.3226
aF-3.3626564
aa(lp430
F-19.60911
aF-10.21546
aF-13.182474
aa(lp431
F0.27114335
aF-19.608511
aF-11.139622
aa(lp432
F19.607914
aF0.09876082
aF19.557037
aa(lp433
F19.607914
aF17.098192
aF-19.608511
aa(lp434
F13.041217
aF-17.223288
aF9.999982
aa(lp435
F-16.86356
aF-0.557849
aF-10.029909
aa(lp436
F-19.60911
aF10.170568
aF-9.089587
aa(lp437
F-11.064803
aF17.190968
aF-3.3518825
aa(lp438
F-6.0627174
aF14.504672
aF6.467936
aa(lp439
F-0.9756372
aF11.664551
aF-0.8230068
aa(lp440
F-1.4814123
aF9.51336
aF1.1552023
aa(lp441
F-0.11432313
aF10.788273
aF1.79206
aa(lp442
F-1.7328035
aF8.938153
aF2.180519
aaa(lp443
(lp444
F-1.1480197
aF10.256162
aF-0.30107087
aa(lp445
F-0.9451111
aF10.22384
aF-0.12928689
aa(lp446
F-0.7918822
aF10.202292
aF-0.54647654
aa(lp447
F-2.541445
aF9.213487
aF0.22685061
aa(lp448
F-3.2597055
aF9.3583355
aF0.6973112
aa(lp449
F-5.2049947
aF9.837775
aF1.163582
aa(lp450
F-11.623849
aF10.09575
aF1.7705121
aa(lp451
F-19.60911
aF10.128671
aF-0.22266077
aa(lp452
F-19.60911
aF0.6326678
aF-8.540716
aa(lp453
F12.363059
aF-18.03193
aF-2.0805612
aa(lp454
F19.607914
aF-11.868058
aF12.925696
aa(lp455
F19.607914
aF19.608511
aF-18.426374
aa(lp456
F12.473192
aF-6.2075663
aF4.6363716
aa(lp457
F-14.862007
aF1.1941081
aF-6.9288197
aa(lp458
F-15.6712475
aF11.200674
aF-13.252505
aa(lp459
F-9.975441
aF14.462175
aF-3.0603883
aa(lp460
F-2.9059622
aF13.827712
aF3.1812954
aa(lp461
F-2.3397336
aF9.504981
aF-2.0123265
aa(lp462
F-0.6015432
aF9.66659
aF0.641646
aa(lp463
F-0.08499416
aF10.875063
aF-0.87089086
aa(lp464
F-0.61112
aF10.038289
aF0.04309563
aa(lp465
F-0.9068039
aF9.633669
aF-0.82360536
aa(lp466
F-0.9636662
aF9.458294
aF-0.54527944
aaa(lp467
(lp468
F-1.3293805
aF9.914988
aF0.074818805
aa(lp469
F-0.81881696
aF10.304046
aF-0.23403321
aa(lp470
F-2.9885623
aF9.5732155
aF-0.24480712
aa(lp471
F-7.0227923
aF9.519346
aF0.1592144
aa(lp472
F-15.989676
aF10.451887
aF-0.80445176
aa(lp473
F-19.60911
aF7.7985134
aF-9.901819
aa(lp474
F-19.60911
aF-16.670826
aF-15.566501
aa(lp475
F19.607914
aF-19.608511
aF-2.0207062
aa(lp476
F19.607914
aF19.608511
aF18.277935
aa(lp477
F19.095554
aF-19.541473
aF5.619191
aa(lp478
F19.607914
aF-0.7044938
aF-0.16579847
aa(lp479
F4.1395745
aF-0.1328782
aF-10.447099
aa(lp480
F-19.60911
aF3.0520086
aF-8.531737
aa(lp481
F-15.821484
aF14.24131
aF-8.189367
aa(lp482
F-2.6162639
aF16.059109
aF3.5110967
aa(lp483
F-3.477578
aF10.281301
aF5.1900306
aa(lp484
F-1.2228385
aF9.749788
aF0.57520694
aa(lp485
F-1.2366052
aF10.228628
aF2.5306711
aa(lp486
F-0.7990648
aF9.725846
aF0.014963761
aa(lp487
F-1.1390414
aF9.592369
aF0.89064306
aa(lp488
F-2.2379801
aF8.752005
aF0.7691373
aaa(lp489
(lp490
F-1.9015948
aF9.498397
aF1.3251907
aa(lp491
F-3.1573534
aF9.287707
aF1.2360066
aa(lp492
F-8.513782
aF9.93893
aF-1.9608512
aa(lp493
F-14.553155
aF11.121665
aF-2.6970682
aa(lp494
F-19.60911
aF7.2089415
aF-3.4805708
aa(lp495
F-18.171991
aF-16.214132
aF-19.608511
aa(lp496
F19.607914
aF-19.608511
aF14.191032
aa(lp497
F19.607914
aF19.608511
aF3.0933087
aa(lp498
F10.744578
aF-14.065336
aF-6.899491
aa(lp499
F8.495825
aF-3.1495724
aF6.2261214
aa(lp500
F12.516887
aF4.739322
aF-9.407417
aa(lp501
F1.6992847
aF4.211401
aF-4.7740383
aa(lp502
F-17.393875
aF6.9467764
aF-7.140108
aa(lp503
F-17.557878
aF10.659584
aF-8.423999
aa(lp504
F-5.377377
aF15.188217
aF-0.31783026
aa(lp505
F-2.930503
aF9.939528
aF4.8021703
aa(lp506
F-1.8716671
aF9.425972
aF-0.7146692
aa(lp507
F-0.48722005
aF9.659407
aF0.7918822
aa(lp508
F-1.46585
aF9.614515
aF0.05925649
aaa(lp509
(lp510
F-2.1877017
aF9.683349
aF1.2210429
aa(lp511
F-2.2948422
aF9.4217825
aF1.3186066
aa(lp512
F-2.1906946
aF9.433753
aF1.204882
aa(lp513
F-2.1146786
aF9.321824
aF1.2210429
aa(lp514
F-2.4660277
aF9.072228
aF1.2180501
aa(lp515
F-1.7022774
aF9.989806
aF1.7968484
aa(lp516
F-2.3780408
aF10.129868
aF1.774702
aa(lp517
F-6.1716533
aF9.340978
aF-0.6937199
aa(lp518
F-8.647857
aF9.249998
aF-0.688333
aa(lp519
F-9.627684
aF9.128492
aF-0.30107087
aa(lp520
F-11.061212
aF5.377377
aF-0.7104794
aa(lp521
F-7.374141
aF5.6539073
aF-4.231153
aa(lp522
F-4.2730513
aF6.054936
aF-6.4541693
aa(lp523
F2.007538
aF5.1487308
aF-7.4016747
aa(lp524
F5.003283
aF3.7433343
aF-6.981492
aa(lp525
F7.6847887
aF5.391742
aF-8.815451
aa(lp526
F5.5527525
aF4.6046486
aF-6.8282633
aa(lp527
F5.8244944
aF4.687847
aF-9.0237465
aa(lp528
F4.665102
aF4.380192
aF-9.900024
aa(lp529
F5.48332
aF3.9600096
aF-10.827179
aa(lp530
F4.8638206
aF4.055179
aF-9.573814
aa(lp531
F5.2085857
aF3.891775
aF-9.106945
aa(lp532
F5.553351
aF5.377377
aF-8.057087
aa(lp533
F3.0244753
aF5.6664767
aF-3.8247373
aa(lp534
F3.115455
aF7.471705
aF-4.2778397
aa(lp535
F1.4766239
aF7.9864583
aF-2.8754363
aa(lp536
F-0.6015432
aF8.203134
aF-4.563947
aa(lp537
F-0.4902128
aF9.161413
aF-3.6104562
aa(lp538
F-1.8602947
aF9.709086
aF-4.0641575
aa(lp539
F-1.5340848
aF9.885659
aF-3.9079356
aa(lp540
F-1.8303672
aF9.973047
aF-3.7349546
aa(lp541
F-1.6621746
aF9.583989
aF-0.93852705
aa(lp542
F-2.0763714
aF9.710283
aF-1.7621324
aa(lp543
F-2.7964275
aF8.910022
aF0.724246
aa(lp544
F-2.6324248
aF10.217256
aF-1.5598224
aa(lp545
F-2.7850552
aF9.998186
aF-0.055066638
aa(lp546
F-2.7461493
aF10.230424
aF0.049081136
aa(lp547
F-1.365892
aF10.599131
aF-0.6015432
aa(lp548
F-0.6979098
aF10.521319
aF1.827973
aaa(lp549
(lp550
F-0.36272156
aF10.096947
aF-0.18255788
aa(lp551
F-0.3633201
aF10.046669
aF-0.22625206
aa(lp552
F-0.5279215
aF9.904214
aF-0.27114335
aa(lp553
F-0.6290765
aF9.849147
aF-0.31244332
aa(lp554
F-0.34476504
aF10.123882
aF-0.10354923
aa(lp555
F-0.4441244
aF10.120291
aF-0.31543607
aa(lp556
F-0.5734113
aF10.266935
aF-0.6793547
aa(lp557
F-1.115698
aF10.2896805
aF0.19393034
aa(lp558
F-1.8608932
aF10.483611
aF0.045489833
aa(lp559
F-3.9797618
aF10.901998
aF-0.43634325
aa(lp560
F-5.6539073
aF11.717223
aF-0.9163807
aa(lp561
F-9.593566
aF7.675212
aF-3.7307649
aa(lp562
F-8.671799
aF6.432023
aF-6.5337763
aa(lp563
F-6.4523735
aF4.859032
aF-3.9025488
aa(lp564
F-2.2679076
aF3.7098155
aF-4.395156
aa(lp565
F4.9865236
aF5.0661306
aF-5.6736593
aa(lp566
F10.307038
aF4.5005007
aF-8.626308
aa(lp567
F10.921151
aF4.5418005
aF-8.724471
aa(lp568
F10.412982
aF7.724293
aF-10.02572
aa(lp569
F7.9463553
aF6.9198413
aF-7.639299
aa(lp570
F6.4416
aF4.4639893
aF-9.359533
aa(lp571
F6.105214
aF3.7140055
aF-10.016143
aa(lp572
F5.6467247
aF3.7223852
aF-7.0461354
aa(lp573
F4.5364137
aF5.529409
aF-4.791396
aa(lp574
F3.697246
aF7.20954
aF-3.5655649
aa(lp575
F2.0087352
aF8.44016
aF-4.187459
aa(lp576
F-0.60573304
aF9.242217
aF-2.5617957
aa(lp577
F-1.7495629
aF10.220248
aF-2.010531
aa(lp578
F-2.7503393
aF9.804854
aF-1.2138603
aa(lp579
F-2.7665
aF10.009559
aF-3.3997664
aa(lp580
F-3.0250738
aF9.817424
aF-0.060453594
aa(lp581
F-4.8422728
aF9.604341
aF-1.292869
aa(lp582
F-4.321534
aF10.503363
aF0.30585927
aa(lp583
F-2.3475149
aF11.405378
aF-0.092176765
aa(lp584
F-1.863886
aF10.749966
aF0.27114335
aa(lp585
F-0.9528923
aF10.011354
aF0.2160767
aa(lp586
F-0.86849666
aF9.722853
aF0.9487024
aaa(lp587
(lp588
F-0.76434886
aF9.991602
aF0.27593175
aa(lp589
F-0.6027403
aF10.160394
aF0.20231004
aa(lp590
F-0.79966336
aF10.094553
aF0.13587095
aa(lp591
F-0.7218518
aF10.06283
aF0.035314474
aa(lp592
F-0.9355343
aF9.821614
aF0.10654198
aa(lp593
F-0.670975
aF10.077793
aF-0.061052144
aa(lp594
F-1.5358804
aF9.966463
aF0.08678981
aa(lp595
F-3.5781345
aF10.932524
aF-0.40701428
aa(lp596
F-5.6497173
aF12.281057
aF-2.0991163
aa(lp597
F-7.133524
aF9.314043
aF-4.1264067
aa(lp598
F-5.66528
aF7.465719
aF-4.381389
aa(lp599
F-7.2981253
aF5.8334723
aF-2.5234885
aa(lp600
F-2.3373394
aF6.452972
aF-6.0848637
aa(lp601
F-0.050876785
aF5.2756233
aF-4.973954
aa(lp602
F3.0933087
aF5.0541596
aF-7.0305734
aa(lp603
F5.2780175
aF2.943671
aF-10.998962
aa(lp604
F6.3141084
aF3.0603883
aF-9.482835
aa(lp605
F6.903681
aF3.913921
aF-11.460445
aa(lp606
F5.7179523
aF4.4645877
aF-10.466252
aa(lp607
F4.347272
aF2.0727801
aF-11.657368
aa(lp608
F4.3676224
aF2.9430726
aF-10.316016
aa(lp609
F4.9984946
aF4.4316673
aF-10.149021
aa(lp610
F4.39336
aF6.6882024
aF-4.0653543
aa(lp611
F2.9951463
aF7.9714947
aF-2.9514523
aa(lp612
F0.54767364
aF7.8787193
aF-4.4681787
aa(lp613
F-1.039682
aF8.318654
aF-2.0284874
aa(lp614
F-1.3108255
aF9.455301
aF-2.907758
aa(lp615
F-2.1350293
aF9.026739
aF-1.3060371
aa(lp616
F-3.900753
aF8.726267
aF-1.1899183
aa(lp617
F-1.8489223
aF10.077793
aF-4.8464627
aa(lp618
F-2.4522612
aF9.320028
aF-0.76195467
aa(lp619
F-2.1787236
aF10.322002
aF-2.7790697
aa(lp620
F-3.714604
aF9.833585
aF-0.7858967
aa(lp621
F-2.3774424
aF10.910975
aF-0.99299514
aa(lp622
F-1.7776948
aF10.824186
aF-0.272939
aa(lp623
F-0.78649527
aF11.001955
aF-0.961272
aaa(lp624
(lp625
F-0.40282443
aF10.23222
aF-1.1432313
aa(lp626
F-0.5231331
aF10.101735
aF-0.8912416
aa(lp627
F-0.47644615
aF9.982025
aF-1.2569559
aa(lp628
F-0.688333
aF9.924564
aF-1.0043676
aa(lp629
F-1.6089035
aF9.812635
aF-1.6633717
aa(lp630
F-2.1200657
aF10.930728
aF-2.134431
aa(lp631
F-3.6822822
aF11.587936
aF-1.8782512
aa(lp632
F-6.0597243
aF10.339958
aF-2.9245174
aa(lp633
F-5.9968767
aF9.827001
aF-4.056975
aa(lp634
F-8.421604
aF6.3446345
aF-2.054225
aa(lp635
F-6.0082493
aF6.168062
aF-4.833295
aa(lp636
F-6.1938
aF3.7660792
aF-3.2190042
aa(lp637
F0.029927522
aF4.7734394
aF-5.233725
aa(lp638
F4.392163
aF5.555745
aF-7.138911
aa(lp639
F6.3847375
aF3.8145618
aF-8.230667
aa(lp640
F8.998607
aF2.8508956
aF-10.854114
aa(lp641
F8.961497
aF3.9396589
aF-12.346299
aa(lp642
F7.759608
aF4.653131
aF-11.282077
aa(lp643
F5.0397944
aF1.7250223
aF-10.482413
aa(lp644
F5.569512
aF1.8626889
aF-10.681132
aa(lp645
F4.268263
aF2.5121162
aF-8.376115
aa(lp646
F5.0038815
aF4.7070007
aF-5.395334
aa(lp647
F2.0350714
aF6.578069
aF-4.0916905
aa(lp648
F0.66498953
aF8.011598
aF-6.151303
aa(lp649
F-1.3802572
aF8.290522
aF-4.322731
aa(lp650
F-2.6264393
aF8.7370405
aF-2.6809072
aa(lp651
F-1.95307
aF10.138845
aF-4.3047748
aa(lp652
F-3.3147724
aF8.905233
aF-1.3455414
aa(lp653
F-3.1082723
aF9.870695
aF-2.6755204
aa(lp654
F-4.1760864
aF8.689157
aF-0.46507367
aa(lp655
F-4.619014
aF9.200917
aF-2.1152773
aa(lp656
F-3.466804
aF10.137649
aF-0.8936358
aa(lp657
F-2.64679
aF10.2735195
aF-1.009156
aa(lp658
F-1.5424645
aF10.543466
aF-0.7625532
aaa(lp659
(lp660
F-1.3682863
aF9.721656
aF-1.2324153
aa(lp661
F-1.3934253
aF9.891046
aF-0.99778354
aa(lp662
F-1.3652935
aF9.983821
aF-1.0079589
aa(lp663
F-1.2318168
aF9.961076
aF-0.9463082
aa(lp664
F-1.3012487
aF10.352529
aF-0.85293436
aa(lp665
F-1.4335283
aF10.128072
aF-0.44771573
aa(lp666
F-1.5999253
aF9.709086
aF-1.0307038
aa(lp667
F-1.9189527
aF9.531916
aF-1.2785037
aa(lp668
F-2.6677392
aF9.041104
aF-0.9247604
aa(lp669
F-3.8732197
aF9.792884
aF-1.3640964
aa(lp670
F-6.0920463
aF10.751761
aF-1.1043255
aa(lp671
F-7.9714947
aF9.965266
aF-4.12102
aa(lp672
F-8.109161
aF8.610746
aF-6.393716
aa(lp673
F-7.711724
aF6.121375
aF-3.502717
aa(lp674
F-1.4856021
aF6.279991
aF-5.468955
aa(lp675
F1.234211
aF5.358822
aF-5.8442464
aa(lp676
F3.031658
aF5.7879825
aF-5.93343
aa(lp677
F5.3564277
aF3.1794999
aF-9.82341
aa(lp678
F6.735488
aF2.0416555
aF-10.511144
aa(lp679
F6.819285
aF4.07553
aF-9.403227
aa(lp680
F5.3779755
aF2.8233624
aF-11.112687
aa(lp681
F4.929063
aF1.8626889
aF-10.638037
aa(lp682
F5.3276973
aF1.9674352
aF-7.8972745
aa(lp683
F4.7979803
aF3.4105403
aF-8.210915
aa(lp684
F3.731962
aF4.8859673
aF-9.120112
aa(lp685
F1.988983
aF6.5349736
aF-7.275979
aa(lp686
F1.5969325
aF7.339425
aF-6.133945
aa(lp687
F-1.2940661
aF7.4854717
aF-6.3889275
aa(lp688
F-1.7830818
aF9.473258
aF-3.852869
aa(lp689
F-4.6022544
aF7.992444
aF-1.3138182
aa(lp690
F-4.8225207
aF9.369708
aF-2.247557
aa(lp691
F-4.9123034
aF9.073426
aF-1.4161704
aa(lp692
F-4.6579194
aF9.722853
aF-3.4847605
aa(lp693
F-3.095703
aF10.763732
aF-0.6853402
aa(lp694
F-2.7635074
aF10.294469
aF-1.0205284
aa(lp695
F-1.6196774
aF10.362105
aF-0.82001406
aaa(lp696
(lp697
F-1.1779473
aF9.953894
aF-0.61530983
aa(lp698
F-0.908001
aF10.193314
aF-0.76315176
aa(lp699
F-1.1019313
aF9.948506
aF-0.6476316
aa(lp700
F-1.1408371
aF9.902418
aF-0.7493851
aa(lp701
F-0.9660604
aF10.017939
aF-0.6362591
aa(lp702
F-1.0630256
aF10.040085
aF-0.7104794
aa(lp703
F-0.9876082
aF10.168773
aF-0.62249243
aa(lp704
F-1.3904326
aF9.842564
aF-0.5033809
aa(lp705
F-1.1121067
aF9.91798
aF-1.0402806
aa(lp706
F-1.3341689
aF9.80665
aF-0.66618663
aa(lp707
F-1.0767922
aF10.081385
aF-0.6967127
aa(lp708
F-1.2132617
aF10.092757
aF-0.533907
aa(lp709
F-2.308609
aF9.774328
aF-1.1528081
aa(lp710
F-4.485537
aF10.123882
aF-1.9812019
aa(lp711
F-7.029376
aF10.304046
aF-2.7952304
aa(lp712
F-9.1033535
aF7.9128366
aF-2.694674
aa(lp713
F-6.5026517
aF8.661025
aF-3.6290112
aa(lp714
F-5.566519
aF7.3873096
aF-4.1904516
aa(lp715
F-0.8230068
aF5.8107276
aF-3.7229836
aa(lp716
F2.5755625
aF4.4077253
aF-6.5230026
aa(lp717
F6.2009826
aF5.3085437
aF-7.693767
aa(lp718
F6.271611
aF3.5835214
aF-10.470443
aa(lp719
F6.1943984
aF1.9746178
aF-11.925519
aa(lp720
F5.313332
aF3.6541502
aF-8.815451
aa(lp721
F6.6265516
aF4.223372
aF-12.2319765
aa(lp722
F4.8698063
aF2.3505075
aF-11.374852
aa(lp723
F5.893926
aF2.4013844
aF-9.667188
aa(lp724
F5.8963203
aF3.4398694
aF-6.463746
aa(lp725
F4.63278
aF4.8177323
aF-2.7760768
aa(lp726
F2.873042
aF7.6440873
aF-5.3474493
aa(lp727
F-0.074818805
aF8.391677
aF-4.490924
aa(lp728
F-1.3934253
aF9.259575
aF-4.0001125
aa(lp729
F-2.208651
aF9.235035
aF-3.8337154
aa(lp730
F-2.9700072
aF9.113529
aF-0.5662287
aa(lp731
F-2.4486697
aF9.507974
aF-3.8498764
aa(lp732
F-6.3943143
aF8.801684
aF-1.1647792
aa(lp733
F-6.357204
aF9.357139
aF-0.027533319
aa(lp734
F-4.457405
aF10.520123
aF-1.8590976
aa(lp735
F-3.1471782
aF10.129868
aF-1.2797008
aa(lp736
F-2.0799627
aF10.229825
aF-1.0175357
aa(lp737
F-1.4305356
aF10.278308
aF-0.4770447
aa(lp738
F-1.3311762
aF9.981427
aF-0.25977087
aaa(lp739
(lp740
F-1.6891093
aF9.883265
aF-0.45489833
aa(lp741
F-1.3688848
aF10.083779
aF-1.1216835
aa(lp742
F-1.7088615
aF9.797672
aF-0.48243165
aa(lp743
F-1.7393875
aF9.841366
aF-1.0313023
aa(lp744
F-2.1015105
aF9.559449
aF-0.6859388
aa(lp745
F-2.1906946
aF9.172785
aF-0.8607155
aa(lp746
F-1.8028339
aF9.703101
aF-0.76434886
aa(lp747
F-2.835932
aF10.222643
aF-0.4770447
aa(lp748
F-6.147113
aF12.4151325
aF-1.6478093
aa(lp749
F-10.693104
aF8.981249
aF-5.795764
aa(lp750
F-10.606912
aF5.5880666
aF-4.466982
aa(lp751
F-5.903503
aF6.0477533
aF-2.7820623
aa(lp752
F0.075417355
aF5.6868277
aF-1.5310919
aa(lp753
F2.2266076
aF5.4779334
aF-7.1233487
aa(lp754
F11.398794
aF2.368464
aF-7.217321
aa(lp755
F9.211691
aF1.8938135
aF-13.711593
aa(lp756
F6.701969
aF2.7988217
aF-11.854291
aa(lp757
F6.752846
aF2.7736826
aF-10.943297
aa(lp758
F5.4940944
aF1.6932992
aF-11.470022
aa(lp759
F6.0148335
aF1.228824
aF-7.513005
aa(lp760
F5.704784
aF2.903568
aF-9.772532
aa(lp761
F4.4478283
aF3.9755719
aF-7.059902
aa(lp762
F2.593519
aF6.1112
aF-6.1004257
aa(lp763
F0.44113165
aF6.907272
aF-6.2763996
aa(lp764
F-2.5498247
aF7.4166384
aF-2.902371
aa(lp765
F-2.971803
aF9.18715
aF-4.6178164
aa(lp766
F-4.551976
aF8.978256
aF-0.4914099
aa(lp767
F-2.6402059
aF10.561422
aF-3.4596214
aa(lp768
F-3.8576574
aF9.378687
aF-0.8690952
aa(lp769
F-5.8262897
aF9.556456
aF-1.5454572
aa(lp770
F-4.1276035
aF10.455479
aF-1.0013748
aa(lp771
F-2.8107927
aF10.691906
aF-0.33399114
aa(lp772
F-1.7088615
aF10.006566
aF-0.6619968
aa(lp773
F-1.3198037
aF9.663596
aF-0.2753332
aaa(lp774
(lp775
F-1.0336965
aF9.69951
aF-0.3842694
aa(lp776
F-1.8369513
aF9.6767645
aF-0.08259996
aa(lp777
F-2.2337902
aF9.619304
aF0.09636662
aa(lp778
F-2.360683
aF9.723452
aF0.19991584
aa(lp779
F-1.8255788
aF10.056246
aF-0.0017956513
aa(lp780
F-1.323395
aF10.246585
aF0.7218518
aa(lp781
F-1.0767922
aF9.983223
aF-0.16160862
aa(lp782
F-1.9794062
aF9.491813
aF-0.66259533
aa(lp783
F-5.3444567
aF10.279505
aF-1.7866731
aa(lp784
F-7.0688806
aF11.2312
aF-2.2307975
aa(lp785
F-8.57184
aF8.118738
aF-2.7287915
aa(lp786
F-8.046912
aF6.4499793
aF-5.7706246
aa(lp787
F-4.3239284
aF6.4469867
aF-4.168904
aa(lp788
F2.071583
aF6.945579
aF-5.319318
aa(lp789
F5.1666875
aF8.743026
aF-5.7424927
aa(lp790
F3.3093853
aF6.994062
aF-5.231331
aa(lp791
F5.116409
aF3.9959226
aF-8.350377
aa(lp792
F6.9006877
aF4.551976
aF-8.838794
aa(lp793
F5.703587
aF5.225345
aF-9.087791
aa(lp794
F6.0998273
aF4.7040076
aF-10.181941
aa(lp795
F3.7457285
aF2.9125464
aF-11.508329
aa(lp796
F4.975151
aF3.459023
aF-11.35929
aa(lp797
F5.7903767
aF4.8656163
aF-8.938752
aa(lp798
F4.3783965
aF5.175067
aF-2.553416
aa(lp799
F4.2437224
aF8.728063
aF-4.1299977
aa(lp800
F1.7764976
aF7.469909
aF-3.6391866
aa(lp801
F-0.49679685
aF8.622718
aF-3.779846
aa(lp802
F-0.9271546
aF9.060856
aF-2.6671407
aa(lp803
F-3.3955765
aF8.854357
aF-2.1242554
aa(lp804
F-3.3560722
aF8.957906
aF-1.7178397
aa(lp805
F-5.3378725
aF8.987833
aF-2.5288756
aa(lp806
F-6.6403184
aF8.613141
aF-0.9415198
aa(lp807
F-5.0517654
aF10.272921
aF-0.8391677
aa(lp808
F-3.5482068
aF9.935339
aF0.47764325
aa(lp809
F-1.5089456
aF11.072584
aF-1.0049661
aa(lp810
F-1.5496471
aF10.152613
aF-0.15143326
aa(lp811
F-1.2425907
aF9.564836
aF-0.28670564
aaa(lp812
(lp813
F-1.2611457
aF10.083779
aF0.12988544
aa(lp814
F-0.7661445
aF10.374675
aF-0.5859809
aa(lp815
F-1.4556746
aF9.776723
aF-0.073621705
aa(lp816
F-1.2120646
aF9.392453
aF-0.2717419
aa(lp817
F-2.5971103
aF9.4535055
aF-0.9068039
aa(lp818
F-5.005677
aF9.921572
aF-0.9211691
aa(lp819
F-4.4526167
aF11.825561
aF-1.1127052
aa(lp820
F-6.9348054
aF10.832565
aF-0.89662856
aa(lp821
F-8.316858
aF8.437167
aF-1.7399861
aa(lp822
F-10.200497
aF4.3502645
aF-3.3033998
aa(lp823
F-4.847061
aF4.565144
aF-4.0342298
aa(lp824
F0.6290765
aF4.5801077
aF-2.3690627
aa(lp825
F7.3699512
aF7.717709
aF-6.1465144
aa(lp826
F8.405443
aF5.1642933
aF-8.38629
aa(lp827
F8.610746
aF4.9787426
aF-10.000581
aa(lp828
F7.767389
aF5.5922565
aF-10.068815
aa(lp829
F7.3591776
aF6.3697734
aF-10.329783
aa(lp830
F7.016208
aF5.318719
aF-9.93893
aa(lp831
F5.269039
aF4.1623197
aF-5.5743003
aa(lp832
F2.9412768
aF5.9837084
aF-4.4675803
aa(lp833
F3.3081882
aF7.526173
aF-6.5361705
aa(lp834
F0.9744401
aF6.88333
aF-4.623802
aa(lp835
F-0.95947635
aF9.128492
aF-4.086902
aa(lp836
F-2.6970682
aF8.878299
aF-4.3065705
aa(lp837
F-2.6791117
aF9.649231
aF-2.566584
aa(lp838
F-2.771887
aF9.146449
aF-1.9339164
aa(lp839
F-3.165733
aF9.619903
aF-1.9991584
aa(lp840
F-4.1102457
aF9.331401
aF1.2144588
aa(lp841
F-4.917092
aF9.507974
aF-0.9068039
aa(lp842
F-5.9956794
aF8.857349
aF-0.4818331
aa(lp843
F-4.4681787
aF9.727641
aF-0.017357962
aa(lp844
F-2.380435
aF9.788095
aF0.6943185
aa(lp845
F-1.839944
aF10.03769
aF0.6823475
aa(lp846
F-2.0907366
aF9.386468
aF1.42455
aaa(lp847
(lp848
F-0.9504981
aF10.096349
aF-0.32321724
aa(lp849
F-0.76195467
aF10.25676
aF-0.15981296
aa(lp850
F-0.40701428
aF10.381259
aF-0.62009823
aa(lp851
F-1.0726024
aF10.156203
aF-1.1121067
aa(lp852
F-3.2291796
aF9.304466
aF0.21308395
aa(lp853
F-6.6427126
aF9.222465
aF0.5177461
aa(lp854
F-6.413468
aF11.195886
aF-0.8110358
aa(lp855
F-8.647857
aF10.055647
aF-1.0857705
aa(lp856
F-9.02614
aF8.376713
aF-2.348712
aa(lp857
F-8.981848
aF6.2351
aF-2.517503
aa(lp858
F-2.1649568
aF4.4280763
aF-1.1839328
aa(lp859
F5.8987145
aF5.501277
aF-4.7016134
aa(lp860
F7.699154
aF2.285864
aF-11.183915
aa(lp861
F11.41735
aF2.7898436
aF-10.20289
aa(lp862
F8.848371
aF6.0022635
aF-12.522273
aa(lp863
F6.92044
aF3.3566709
aF-10.290877
aa(lp864
F7.0186024
aF3.0573955
aF-10.493188
aa(lp865
F5.752668
aF3.4225113
aF-8.632893
aa(lp866
F4.4047327
aF6.196194
aF-4.796783
aa(lp867
F2.493561
aF7.7811556
aF-6.165668
aa(lp868
F-0.15263036
aF7.2310877
aF-2.581548
aa(lp869
F-3.8031895
aF7.689577
aF-2.4061728
aa(lp870
F-3.1387985
aF9.491813
aF-3.8869865
aa(lp871
F-5.349245
aF8.860342
aF0.02633622
aa(lp872
F-4.8482585
aF9.680955
aF-3.2465374
aa(lp873
F-5.8520274
aF9.281721
aF-3.0244753
aa(lp874
F-6.113594
aF8.862138
aF-0.439336
aa(lp875
F-2.9412768
aF10.119692
aF-2.4139538
aaa.