(lp0
(lp1
(lp2
F-3.5577838
aF9.161413
aF0.45250413
aa(lp3
F-3.5021186
aF9.32781
aF0.7374141
aa(lp4
F-3.2315738
aF9.376292
aF0.13467385
aa(lp5
F-3.6421793
aF9.409213
aF0.31304187
aa(lp6
F-3.957017
aF9.5253315
aF0.62009823
aa(lp7
F-7.9313917
aF11.305421
aF1.0426749
aa(lp8
F-11.572374
aF12.625224
aF0.2124854
aa(lp9
F-19.60911
aF2.8951883
aF0.2124854
aa(lp10
F-19.60911
aF-1.5191209
aF-9.828796
aa(lp11
F-15.060726
aF0.50637364
aF-6.045958
aa(lp12
F9.714474
aF-12.261904
aF9.874885
aa(lp13
F19.21706
aF-19.608511
aF-19.608511
aa(lp14
F17.080833
aF14.40651
aF1.5269021
aa(lp15
F9.702502
aF-8.205527
aF-12.23078
aa(lp16
F13.8402815
aF-8.071452
aF-16.072874
aa(lp17
F2.3331497
aF-7.07726
aF-4.4304705
aa(lp18
F-3.8468835
aF3.1531637
aF-2.5019407
aa(lp19
F-12.947245
aF4.1683054
aF3.2369606
aa(lp20
F-14.258668
aF6.603807
aF2.6168625
aa(lp21
F-14.102447
aF8.228272
aF-0.4381389
aa(lp22
F-12.228385
aF6.647501
aF2.8383262
aa(lp23
F-7.061698
aF8.644265
aF-2.1877017
aa(lp24
F-9.35235
aF6.459556
aF0.7380127
aaa(lp25
(lp26
F-2.8682537
aF9.221268
aF2.5133133
aa(lp27
F-2.6479871
aF9.496601
aF2.4372973
aa(lp28
F-2.896984
aF9.842564
aF2.5845408
aa(lp29
F-3.9510314
aF9.081207
aF2.878429
aa(lp30
F-5.439626
aF9.068039
aF2.5713725
aa(lp31
F-12.163143
aF12.832921
aF1.6053122
aa(lp32
F-13.247118
aF11.711836
aF-0.8858546
aa(lp33
F-19.60911
aF-6.420052
aF-8.675988
aa(lp34
F-8.029554
aF-11.98298
aF1.6112977
aa(lp35
F19.607914
aF-19.608511
aF-4.595072
aa(lp36
F19.607914
aF12.302606
aF-19.608511
aa(lp37
F16.95813
aF1.423353
aF-13.263279
aa(lp38
F19.607914
aF-12.395381
aF-15.9256315
aa(lp39
F4.644751
aF-11.735778
aF-5.4498014
aa(lp40
F-12.758102
aF3.0059202
aF-10.1460285
aa(lp41
F-19.552847
aF3.21661
aF3.1196449
aa(lp42
F-17.480066
aF7.9505453
aF-11.700463
aa(lp43
F-14.0312195
aF6.5110316
aF1.003769
aa(lp44
F-8.8567505
aF8.397064
aF-5.391144
aa(lp45
F-7.2071457
aF7.24665
aF4.3915644
aa(lp46
F-4.38498
aF9.683948
aF0.98940384
aa(lp47
F-5.149329
aF7.937976
aF3.3051953
aa(lp48
F-4.5142674
aF8.58022
aF0.9223662
aa(lp49
F-5.5389857
aF7.6189485
aF2.5803509
aa(lp50
F-4.9655743
aF8.742428
aF-0.4165911
aaa(lp51
(lp52
F-4.4448357
aF8.349778
aF1.8100165
aa(lp53
F-4.3197384
aF8.526949
aF1.638831
aa(lp54
F-4.5962687
aF8.507795
aF1.5747862
aa(lp55
F-5.6898203
aF9.060856
aF1.769315
aa(lp56
F-8.325238
aF10.427945
aF0.39683893
aa(lp57
F-13.196839
aF10.079589
aF-0.82360536
aa(lp58
F-18.712482
aF4.5992613
aF-1.0139444
aa(lp59
F-19.60911
aF-7.6375036
aF-6.278794
aa(lp60
F-11.850699
aF-9.706094
aF4.739322
aa(lp61
F19.607914
aF-15.2492695
aF-10.139444
aa(lp62
F18.769943
aF-17.320852
aF-19.608511
aa(lp63
F16.386515
aF14.479533
aF2.7886465
aa(lp64
F8.978256
aF-12.207436
aF-11.366472
aa(lp65
F16.620548
aF-4.4394484
aF-17.174208
aa(lp66
F8.78672
aF-7.319673
aF-8.786121
aa(lp67
F0.34715924
aF0.7224504
aF-3.582923
aa(lp68
F-9.476251
aF2.220622
aF-1.1444284
aa(lp69
F-11.128848
aF6.9826894
aF-2.5767596
aa(lp70
F-12.0332575
aF9.011177
aF-1.3329718
aa(lp71
F-12.39957
aF5.4683566
aF-2.332551
aa(lp72
F-13.608044
aF4.643554
aF-0.75477207
aa(lp73
F-9.559449
aF6.5032506
aF1.7908629
aa(lp74
F-8.523358
aF7.1395097
aF0.53689975
aa(lp75
F-5.901707
aF7.6865845
aF4.944625
aa(lp76
F-5.170877
aF7.741651
aF2.9125464
aaa(lp77
(lp78
F-4.064756
aF8.921992
aF1.4814123
aa(lp79
F-4.279037
aF9.236232
aF1.5688007
aa(lp80
F-4.857237
aF9.452907
aF1.1976994
aa(lp81
F-8.118139
aF10.1304655
aF0.42317516
aa(lp82
F-13.806763
aF10.162787
aF-1.8537107
aa(lp83
F-19.60911
aF2.7868507
aF-0.8774749
aa(lp84
F-19.60911
aF-1.2719196
aF-9.637859
aa(lp85
F-9.176376
aF-12.01171
aF1.3335704
aa(lp86
F19.607914
aF-19.608511
aF-4.3927617
aa(lp87
F19.607914
aF1.359308
aF-19.608511
aa(lp88
F18.09418
aF16.246454
aF-3.6846764
aa(lp89
F19.607914
aF-9.570223
aF-19.608511
aa(lp90
F8.537724
aF-7.225701
aF-4.509479
aa(lp91
F-5.9477954
aF2.622848
aF-7.925406
aa(lp92
F-17.83381
aF3.13401
aF4.180875
aa(lp93
F-19.60911
aF4.6680946
aF5.043386
aa(lp94
F-12.754511
aF10.128072
aF-4.4328647
aa(lp95
F-7.7757688
aF9.630077
aF3.0376434
aa(lp96
F-6.6846113
aF7.1305313
aF-0.2633622
aa(lp97
F-5.517438
aF7.2526355
aF6.059126
aa(lp98
F-4.26527
aF8.941146
aF-0.2681506
aa(lp99
F-3.9354692
aF8.702923
aF5.0643353
aa(lp100
F-4.402937
aF8.690952
aF0.65062433
aa(lp101
F-4.857237
aF7.4908586
aF3.731962
aa(lp102
F-4.681263
aF7.9732904
aF1.1534066
aaa(lp103
(lp104
F-5.0344076
aF8.136096
aF2.0326772
aa(lp105
F-5.401319
aF7.9307933
aF2.1763294
aa(lp106
F-6.452972
aF8.206126
aF3.6074634
aa(lp107
F-9.867104
aF10.117298
aF3.3159695
aa(lp108
F-17.859547
aF6.4589577
aF-2.8802247
aa(lp109
F-19.60911
aF2.2337902
aF-4.6321816
aa(lp110
F-19.60911
aF-5.0284224
aF-4.3155484
aa(lp111
F5.482722
aF-18.536509
aF-2.5731683
aa(lp112
F19.607914
aF-19.608511
aF-16.819866
aa(lp113
F19.607914
aF16.387712
aF-16.35599
aa(lp114
F9.197925
aF-3.4901476
aF-19.608511
aa(lp115
F18.703505
aF-4.064756
aF-13.725958
aa(lp116
F14.90211
aF-8.300697
aF-16.980875
aa(lp117
F1.5496471
aF-2.9340942
aF5.583877
aa(lp118
F-10.964247
aF4.1305966
aF-6.700772
aa(lp119
F-16.733076
aF7.6770077
aF-10.827179
aa(lp120
F-19.065626
aF3.7576995
aF-0.53450555
aa(lp121
F-14.052767
aF5.589264
aF-6.1345434
aa(lp122
F-11.320983
aF5.3498435
aF5.118803
aa(lp123
F-4.9901147
aF8.824429
aF4.2880154
aa(lp124
F-4.613028
aF8.178593
aF2.4546554
aa(lp125
F-5.0284224
aF7.755418
aF2.9454668
aa(lp126
F-4.045004
aF8.45213
aF2.190096
aaa(lp127
(lp128
F-5.1170077
aF7.6345105
aF2.8682537
aa(lp129
F-4.899135
aF7.8428063
aF2.56419
aa(lp130
F-5.2020016
aF8.002619
aF3.0142999
aa(lp131
F-6.9485717
aF8.393473
aF3.0705638
aa(lp132
F-12.577939
aF9.976639
aF2.8101943
aa(lp133
F-19.60911
aF4.4478283
aF-0.6703765
aa(lp134
F-19.60911
aF-0.9900024
aF0.6302736
aa(lp135
F-19.60911
aF-10.627861
aF-3.364452
aa(lp136
F-1.6023195
aF-7.293337
aF-7.6668324
aa(lp137
F19.607914
aF-19.608511
aF-0.91099375
aa(lp138
F18.072033
aF-17.398664
aF-19.608511
aa(lp139
F18.713081
aF10.7673235
aF-8.41502
aa(lp140
F19.607914
aF-12.651561
aF-11.250953
aa(lp141
F8.462306
aF-16.457144
aF-15.473725
aa(lp142
F-8.453926
aF-4.414908
aF5.4282537
aa(lp143
F-11.99495
aF4.449624
aF-19.125483
aa(lp144
F-18.737621
aF2.735974
aF-1.3652935
aa(lp145
F-14.532206
aF6.5720835
aF-5.916671
aa(lp146
F-10.411186
aF8.729858
aF-3.4261026
aa(lp147
F-11.118074
aF6.5846534
aF3.3291376
aa(lp148
F-7.01142
aF8.480263
aF-3.0561984
aa(lp149
F-7.7608047
aF6.399701
aF2.991555
aa(lp150
F-4.26527
aF8.342596
aF0.95349085
aa(lp151
F-5.722142
aF7.587824
aF3.1268275
aa(lp152
F-4.960786
aF8.346188
aF0.05805939
aa(lp153
F-5.895123
aF7.409456
aF1.863886
aa(lp154
F-5.8442464
aF6.9527617
aF1.8794483
aaa(lp155
(lp156
F-5.21936
aF7.6811976
aF2.2427685
aa(lp157
F-5.0146556
aF8.063073
aF2.2319946
aa(lp158
F-5.8358665
aF7.849989
aF2.0069396
aa(lp159
F-7.941567
aF8.001422
aF2.8209682
aa(lp160
F-12.345701
aF9.739613
aF1.3108255
aa(lp161
F-18.831593
aF4.751293
aF-0.40462008
aa(lp162
F-19.60911
aF-3.5577838
aF-8.419808
aa(lp163
F-17.232267
aF-3.1465795
aF-6.214749
aa(lp164
F-1.0223241
aF-13.924677
aF1.1204864
aa(lp165
F19.607914
aF-19.608511
aF-14.312538
aa(lp166
F19.607914
aF17.917606
aF-13.163919
aa(lp167
F19.607914
aF-10.700885
aF-15.105019
aa(lp168
F14.723742
aF-13.742718
aF-8.869919
aa(lp169
F-4.754286
aF-3.4554317
aF2.5605986
aa(lp170
F-12.253524
aF5.8226986
aF-7.9068513
aa(lp171
F-15.682021
aF6.6175733
aF-5.969942
aa(lp172
F-16.378735
aF6.3925185
aF3.359065
aa(lp173
F-9.725247
aF10.404602
aF-0.6931214
aa(lp174
F-9.057863
aF7.2753806
aF-1.8309658
aa(lp175
F-6.2901664
aF7.235876
aF0.6787562
aa(lp176
F-5.715558
aF7.892486
aF0.108337626
aa(lp177
F-5.1529207
aF7.917625
aF2.3169887
aa(lp178
F-4.357447
aF8.978855
aF0.8158242
aa(lp179
F-4.9428296
aF8.274361
aF2.4001873
aa(lp180
F-5.5264163
aF7.9451585
aF1.4850036
aaa(lp181
(lp182
F-5.0984526
aF8.169016
aF2.1278467
aa(lp183
F-5.33069
aF8.16363
aF1.917157
aa(lp184
F-6.9916677
aF8.444349
aF1.9129672
aa(lp185
F-11.341932
aF10.5919485
aF1.1366472
aa(lp186
F-17.642872
aF6.909666
aF0.7092823
aa(lp187
F-19.60911
aF-0.79367787
aF-6.945579
aa(lp188
F-19.60911
aF-10.287286
aF0.56922144
aa(lp189
F16.465523
aF-18.678963
aF-6.0902505
aa(lp190
F19.607914
aF-19.608511
aF-11.634624
aa(lp191
F19.511547
aF15.590443
aF-3.020884
aa(lp192
F14.814721
aF-13.802573
aF-13.944429
aa(lp193
F16.62414
aF-9.589376
aF-15.783176
aa(lp194
F3.2076318
aF-8.095394
aF-3.6529531
aa(lp195
F-13.731944
aF1.7525556
aF-2.4833858
aa(lp196
F-14.157514
aF9.388862
aF-8.087613
aa(lp197
F-19.264944
aF4.279037
aF8.384495
aa(lp198
F-16.373346
aF7.6811976
aF-7.357382
aa(lp199
F-7.945757
aF8.337209
aF1.4095862
aa(lp200
F-5.638345
aF9.051878
aF-1.4466964
aa(lp201
F-5.583877
aF7.6931686
aF2.8640637
aa(lp202
F-5.7149596
aF7.6548615
aF3.2154129
aa(lp203
F-4.666898
aF8.366538
aF1.8207904
aa(lp204
F-5.073313
aF7.994838
aF2.4301147
aa(lp205
F-5.365406
aF7.755418
aF2.594716
aaa(lp206
(lp207
F-4.44304
aF8.499416
aF2.119467
aa(lp208
F-4.759673
aF8.515577
aF2.4121583
aa(lp209
F-6.3230867
aF8.558074
aF3.1112652
aa(lp210
F-7.2424603
aF10.970232
aF1.5688007
aa(lp211
F-11.933898
aF11.501745
aF-0.25019407
aa(lp212
F-19.60911
aF5.043386
aF0.91458505
aa(lp213
F-19.60911
aF-11.21085
aF-8.316259
aa(lp214
F-16.724695
aF-18.615517
aF5.521628
aa(lp215
F19.607914
aF-19.608511
aF-17.201141
aa(lp216
F19.607914
aF19.588161
aF-17.076046
aa(lp217
F10.66976
aF-14.392743
aF-6.8402343
aa(lp218
F14.216769
aF-5.8520274
aF-17.126923
aa(lp219
F1.8728642
aF-6.4421983
aF-14.343064
aa(lp220
F-4.6603136
aF-4.0456023
aF-10.927735
aa(lp221
F-16.50862
aF-4.9907136
aF-2.6252422
aa(lp222
F-7.911041
aF6.542156
aF-0.16699557
aa(lp223
F-13.772047
aF2.6922798
aF11.529279
aa(lp224
F-11.847109
aF8.230667
aF1.4736311
aa(lp225
F-12.860455
aF7.6351094
aF-1.8974048
aa(lp226
F-7.410054
aF8.077438
aF2.6449943
aa(lp227
F-5.5401826
aF6.1405287
aF4.2359414
aa(lp228
F-5.3594203
aF7.1113777
aF2.5103204
aa(lp229
F-4.362834
aF7.809886
aF2.6659436
aa(lp230
F-5.0212393
aF7.129334
aF3.4141316
aaa(lp231
(lp232
F-4.8638206
aF7.6345105
aF3.0304608
aa(lp233
F-4.7004166
aF7.793725
aF2.7090392
aa(lp234
F-4.89315
aF7.9182234
aF2.8119898
aa(lp235
F-5.055357
aF7.961918
aF3.1950622
aa(lp236
F-5.265448
aF8.21271
aF2.9945478
aa(lp237
F-6.199187
aF8.356362
aF2.3906105
aa(lp238
F-10.147225
aF9.818023
aF2.4522612
aa(lp239
F-15.055938
aF8.186374
aF-0.5374983
aa(lp240
F-18.954296
aF3.3225534
aF0.10354923
aa(lp241
F-19.60911
aF-9.486425
aF-3.9360676
aa(lp242
F-0.020350715
aF-19.07221
aF-6.652888
aa(lp243
F19.607914
aF-19.608511
aF-9.836577
aa(lp244
F15.098434
aF-7.6668324
aF-19.608511
aa(lp245
F16.649878
aF8.901043
aF-5.9783216
aa(lp246
F12.641984
aF-11.6507845
aF-5.743091
aa(lp247
F10.685921
aF-10.137649
aF-16.51221
aa(lp248
F7.4788876
aF-9.849746
aF-13.6732855
aa(lp249
F0.09935937
aF-2.27928
aF-9.871294
aa(lp250
F-11.179127
aF0.93613285
aF-0.7835025
aa(lp251
F-16.794128
aF5.6000376
aF-3.2453403
aa(lp252
F-15.292365
aF6.439804
aF0.40761283
aa(lp253
F-12.985552
aF7.3603745
aF-0.4890157
aa(lp254
F-8.589199
aF7.6985555
aF2.2361844
aa(lp255
F-6.640917
aF7.677606
aF0.41000703
aa(lp256
F-5.807735
aF6.7785835
aF3.435081
aa(lp257
F-5.504868
aF7.2664022
aF2.5677812
aa(lp258
F-6.0567317
aF6.9988503
aF2.9861681
aa(lp259
F-4.947019
aF7.9756846
aF1.7633295
aa(lp260
F-5.6335564
aF7.475296
aF2.6910827
aa(lp261
F-5.975329
aF7.253234
aF3.527856
aa(lp262
F-5.858013
aF7.627328
aF2.5210943
aaa(lp263
(lp264
F-6.4505777
aF8.8088665
aF2.0751743
aa(lp265
F-14.92665
aF9.511565
aF7.3244615
aa(lp266
F-19.60911
aF5.9477954
aF2.5941176
aa(lp267
F-19.60911
aF-14.386758
aF-17.257406
aa(lp268
F-12.892178
aF-19.608511
aF19.608511
aa(lp269
F19.607914
aF-19.608511
aF-15.541961
aa(lp270
F19.607914
aF18.01158
aF-19.608511
aa(lp271
F19.607914
aF-15.586852
aF-4.931457
aa(lp272
F17.065271
aF-9.091981
aF-14.103643
aa(lp273
F-1.4814123
aF-6.0447607
aF-4.1796775
aa(lp274
F-19.284697
aF-3.122039
aF-8.067862
aa(lp275
F-19.60911
aF-0.83018947
aF5.3761797
aa(lp276
F-15.194801
aF13.300987
aF-6.10282
aa(lp277
F-10.128671
aF9.050681
aF3.031658
aaa(lp278
(lp279
F-4.2754455
aF8.392874
aF1.9566613
aa(lp280
F-4.59567
aF8.613141
aF1.9387048
aa(lp281
F-5.1523223
aF8.87351
aF1.7483658
aa(lp282
F-9.355942
aF9.147048
aF4.1814733
aa(lp283
F-18.438345
aF11.224017
aF3.4434607
aa(lp284
F-19.60911
aF0.23283611
aF-2.1122844
aa(lp285
F-19.60911
aF-19.608511
aF-6.3129115
aa(lp286
F19.607914
aF-19.608511
aF-14.343064
aa(lp287
F19.607914
aF19.608511
aF-18.137873
aa(lp288
F17.94155
aF-18.016367
aF-11.548432
aa(lp289
F19.094955
aF-15.521011
aF-13.128007
aa(lp290
F-1.3934253
aF-4.441244
aF-6.567894
aa(lp291
F-19.60911
aF0.4818331
aF-5.6467247
aa(lp292
F-19.60911
aF2.6156654
aF2.7114334
aa(lp293
F-13.094487
aF10.864288
aF-2.947861
aa(lp294
F-8.868123
aF8.686762
aF1.596334
aa(lp295
F-4.709395
aF9.671976
aF3.7247794
aa(lp296
F-3.4398694
aF9.670779
aF1.6819267
aa(lp297
F-4.06296
aF9.214086
aF-1.9381063
aaa(lp298
(lp299
F-4.471172
aF8.717887
aF2.280477
aa(lp300
F-7.9553337
aF9.229049
aF3.1507695
aa(lp301
F-12.889185
aF12.3989725
aF4.4047327
aa(lp302
F-19.60911
aF4.1706996
aF2.2930467
aa(lp303
F-19.60911
aF-10.825383
aF-13.068151
aa(lp304
F-16.406866
aF-19.608511
aF18.996195
aa(lp305
F19.607914
aF-19.608511
aF-19.608511
aa(lp306
F19.607914
aF19.608511
aF5.4881086
aa(lp307
F19.607914
aF-18.855536
aF1.9925743
aa(lp308
F19.607914
aF-12.409746
aF-14.1108265
aa(lp309
F-0.24420857
aF-9.533113
aF-4.3460746
aa(lp310
F-17.809868
aF-1.0552444
aF-10.715848
aa(lp311
F-19.60911
aF4.868609
aF-2.697667
aa(lp312
F-16.331448
aF11.219828
aF-0.19393034
aa(lp313
F-12.220604
aF11.255741
aF-4.856638
aa(lp314
F-6.419453
aF7.550115
aF6.202778
aa(lp315
F-3.3195608
aF10.251971
aF2.31639
aa(lp316
F-5.1247888
aF7.3244615
aF2.4534583
aaa(lp317
(lp318
F-4.350863
aF8.413823
aF2.2774844
aa(lp319
F-4.7046065
aF8.070255
aF2.719813
aa(lp320
F-4.9972973
aF8.414422
aF2.6719291
aa(lp321
F-6.2141504
aF8.322245
aF2.9783869
aa(lp322
F-6.278794
aF8.627506
aF3.371036
aa(lp323
F-8.500613
aF8.940548
aF2.3421278
aa(lp324
F-19.407398
aF9.527127
aF-1.4317327
aa(lp325
F-19.60911
aF5.905897
aF-1.1492168
aa(lp326
F-19.60911
aF-19.537285
aF-12.055404
aa(lp327
F18.418594
aF-19.608511
aF3.2770636
aa(lp328
F19.607914
aF-19.608511
aF-19.608511
aa(lp329
F19.607914
aF19.608511
aF-18.237831
aa(lp330
F13.8325
aF-19.608511
aF6.781576
aa(lp331
F14.293385
aF-13.766061
aF-18.131289
aa(lp332
F-4.643554
aF-6.517616
aF3.6242228
aa(lp333
F-19.60911
aF2.5845408
aF-2.907758
aa(lp334
F-19.60911
aF10.744578
aF-15.572487
aa(lp335
F-15.62875
aF6.489484
aF7.5148005
aa(lp336
F-10.019734
aF8.508993
aF-2.4510639
aa(lp337
F-7.896077
aF6.6630635
aF3.8624458
aa(lp338
F-4.766257
aF9.088988
aF0.545878
aa(lp339
F-4.9559975
aF7.104195
aF3.151368
aa(lp340
F-5.0679264
aF7.716512
aF2.5737667
aaa(lp341
(lp342
F-3.845088
aF8.74542
aF2.6779146
aa(lp343
F-4.6142254
aF8.59698
aF2.7431567
aa(lp344
F-9.445126
aF10.244789
aF3.4811692
aa(lp345
F-14.821305
aF12.282853
aF2.5157075
aa(lp346
F-19.60911
aF1.3012487
aF-0.14185645
aa(lp347
F-19.60911
aF-12.480375
aF-8.776545
aa(lp348
F19.607914
aF-19.608511
aF-9.409811
aa(lp349
F19.607914
aF-2.3786395
aF-19.608511
aa(lp350
F18.714277
aF4.408324
aF-19.49718
aa(lp351
F14.793773
aF-11.059416
aF-6.2524576
aa(lp352
F16.093824
aF-13.206416
aF-15.423448
aa(lp353
F0.22505496
aF-0.92176765
aF-8.13849
aa(lp354
F-13.328521
aF-0.31064767
aF-14.456788
aa(lp355
F-17.125126
aF5.507262
aF-0.533907
aa(lp356
F-19.186533
aF6.0567317
aF1.0085574
aa(lp357
F-12.535441
aF9.317635
aF-5.518635
aa(lp358
F-9.403227
aF6.9240313
aF3.4877534
aa(lp359
F-5.1888337
aF8.641273
aF-1.3377602
aa(lp360
F-5.077503
aF6.8121023
aF2.2882583
aaa(lp361
(lp362
F-4.1066546
aF8.352173
aF2.0362685
aa(lp363
F-4.732738
aF8.663419
aF1.6927006
aa(lp364
F-6.569091
aF8.292317
aF2.4133554
aa(lp365
F-13.662512
aF10.563816
aF4.210802
aa(lp366
F-19.60911
aF9.630077
aF1.7902644
aa(lp367
F-19.60911
aF-7.9325886
aF-1.1390414
aa(lp368
F-19.60911
aF-18.616116
aF6.7318964
aa(lp369
F19.607914
aF-19.608511
aF-15.299547
aa(lp370
F19.607914
aF-4.548983
aF-19.608511
aa(lp371
F19.607914
aF-1.4508862
aF-19.608511
aa(lp372
F19.607914
aF-13.695433
aF-17.294516
aa(lp373
F6.196194
aF-14.783597
aF-12.706627
aa(lp374
F-9.835381
aF0.6099229
aF-9.425373
aa(lp375
F-19.60911
aF1.543063
aF-4.032434
aa(lp376
F-19.60911
aF6.4697313
aF1.3269863
aa(lp377
F-8.180987
aF10.796653
aF-4.8722005
aa(lp378
F-4.9200845
aF9.762956
aF-1.2330139
aa(lp379
F-4.4125137
aF8.1319065
aF3.5063083
aa(lp380
F-4.4017396
aF8.693346
aF-1.0049661
aaa(lp381
(lp382
F-4.5166616
aF8.522161
aF2.2182279
aa(lp383
F-4.4208937
aF8.695142
aF1.0821792
aa(lp384
F-4.4119153
aF8.649054
aF1.5370775
aa(lp385
F-5.0020857
aF8.24204
aF1.4526819
aa(lp386
F-4.731541
aF8.478467
aF1.1701661
aa(lp387
F-4.659715
aF8.432977
aF1.632247
aa(lp388
F-4.7399206
aF8.505402
aF1.3108255
aa(lp389
F-4.8704047
aF8.403648
aF1.977012
aa(lp390
F-5.6586957
aF8.437167
aF0.9367314
aa(lp391
F-8.762778
aF9.552865
aF2.8377275
aa(lp392
F-18.60594
aF12.46601
aF-0.7787141
aa(lp393
F-19.60911
aF5.795165
aF-0.6769605
aa(lp394
F-19.60911
aF-12.621035
aF-13.620613
aa(lp395
F-14.441226
aF-19.608511
aF8.497022
aa(lp396
F19.607914
aF-19.608511
aF-17.256807
aa(lp397
F19.607914
aF19.608511
aF-14.870985
aa(lp398
F14.544177
aF-19.608511
aF2.3122003
aa(lp399
F19.607914
aF-9.796474
aF-19.608511
aa(lp400
F0.45310268
aF-12.0889225
aF-7.365163
aa(lp401
F-11.246762
aF2.6521769
aF-18.692131
aa(lp402
F-19.60911
aF2.5127146
aF-4.7177744
aa(lp403
F-16.891691
aF6.823475
aF-7.8517847
aa(lp404
F-6.522404
aF10.770316
aF-4.2305546
aa(lp405
F-6.2488666
aF7.1113777
aF7.410054
aaa(lp406
(lp407
F-4.533421
aF8.137293
aF2.079364
aa(lp408
F-4.6285906
aF8.368932
aF2.1039047
aa(lp409
F-4.6285906
aF8.6257105
aF2.1960814
aa(lp410
F-6.3482256
aF8.62152
aF1.6801311
aa(lp411
F-11.398794
aF10.860099
aF3.441665
aa(lp412
F-19.60911
aF8.395268
aF1.8698715
aa(lp413
F-19.60911
aF1.7794905
aF-5.9370217
aa(lp414
F-19.60911
aF-16.37993
aF-9.118318
aa(lp415
F19.607914
aF-19.608511
aF-11.73518
aa(lp416
F19.607914
aF9.630676
aF-19.608511
aa(lp417
F19.607914
aF-12.369643
aF-19.608511
aa(lp418
F15.059528
aF-18.43655
aF-13.721768
aa(lp419
F-6.2003837
aF-0.24839842
aF-11.804013
aa(lp420
F-19.60911
aF0.919972
aF-1.8489223
aa(lp421
F-19.60911
aF3.6014779
aF-16.131533
aa(lp422
F-15.841235
aF6.26383
aF3.8337154
aa(lp423
F-6.7785835
aF10.346542
aF-3.846285
aa(lp424
F-6.381745
aF7.3298483
aF4.6830587
aa(lp425
F-2.5498247
aF11.39221
aF-0.39145198
aa(lp426
F-4.5322237
aF8.832211
aF0.3513491
aaa(lp427
(lp428
F-4.5938745
aF8.373122
aF2.195483
aa(lp429
F-4.9224787
aF8.380903
aF1.620276
aa(lp430
F-4.933253
aF8.595782
aF1.6537948
aa(lp431
F-7.295731
aF8.063073
aF1.8489223
aa(lp432
F-11.458051
aF9.953295
aF2.8060043
aa(lp433
F-19.60911
aF9.403826
aF3.2076318
aa(lp434
F-19.60911
aF4.1180267
aF-4.4418426
aa(lp435
F-19.60911
aF-19.608511
aF-6.907272
aa(lp436
F19.607914
aF-19.608511
aF-1.1408371
aa(lp437
F19.607914
aF-18.904018
aF-19.608511
aa(lp438
F19.607914
aF19.147629
aF-6.2099605
aa(lp439
F19.607914
aF-14.369999
aF-5.547964
aa(lp440
F19.37388
aF-13.463195
aF-14.730326
aa(lp441
F-4.3209357
aF-5.511452
aF-3.4674027
aa(lp442
F-14.284406
aF1.875857
aF-18.943521
aa(lp443
F-19.60911
aF7.653664
aF-5.632958
aa(lp444
F-16.774376
aF7.5333557
aF1.0941502
aa(lp445
F-9.007586
aF7.8116817
aF-3.8379054
aa(lp446
F-6.417059
aF8.313866
aF5.8215013
aa(lp447
F-3.894169
aF10.146626
aF-2.243367
aa(lp448
F-4.8979383
aF8.415619
aF3.551798
aaa(lp449
(lp450
F-4.5418005
aF8.325238
aF1.3940239
aa(lp451
F-4.368221
aF8.474875
aF2.4797945
aa(lp452
F-4.5513773
aF8.531737
aF2.3331497
aa(lp453
F-4.7506948
aF8.422203
aF2.0254946
aa(lp454
F-4.383185
aF8.4234
aF2.2391772
aa(lp455
F-4.8656163
aF8.255207
aF2.0655975
aa(lp456
F-4.735731
aF8.439561
aF1.9979613
aa(lp457
F-4.929063
aF8.243835
aF2.0213048
aa(lp458
F-5.6120086
aF8.14687
aF2.0871453
aa(lp459
F-6.8522053
aF9.210494
aF2.4378958
aa(lp460
F-19.573795
aF13.089101
aF1.0462662
aa(lp461
F-19.60911
aF6.1740475
aF-4.1581297
aa(lp462
F-19.60911
aF-12.552201
aF-9.120711
aa(lp463
F-2.9550436
aF-19.608511
aF7.157466
aa(lp464
F19.607914
aF-19.608511
aF-19.608511
aa(lp465
F19.607914
aF19.608511
aF-11.456854
aa(lp466
F19.607914
aF-19.608511
aF2.4169466
aa(lp467
F15.680824
aF-12.552201
aF-8.104971
aa(lp468
F-7.482479
aF-1.1587936
aF-8.701127
aa(lp469
F-15.702372
aF5.773019
aF-11.401189
aa(lp470
F-19.327192
aF6.0250087
aF-5.1726727
aa(lp471
F-16.593016
aF6.717531
aF1.0121487
aa(lp472
F-8.750209
aF9.377489
aF-2.256535
aa(lp473
F-6.4523735
aF7.953538
aF3.9564183
aa(lp474
F-3.4955344
aF9.52174
aF4.289212
aa(lp475
F-4.3197384
aF8.686164
aF0.16101007
aaa(lp476
(lp477
F-3.915717
aF8.783129
aF2.260725
aa(lp478
F-5.204396
aF8.537724
aF2.7910407
aa(lp479
F-7.81647
aF8.335413
aF4.4442368
aa(lp480
F-11.628039
aF10.168175
aF1.0690111
aa(lp481
F-14.948797
aF5.4821234
aF-0.717662
aa(lp482
F-10.794258
aF5.5826797
aF-4.276643
aa(lp483
F-13.623607
aF1.09834
aF-3.9187095
aa(lp484
F-3.448249
aF0.5847838
aF-11.474811
aa(lp485
F4.574721
aF-6.019622
aF-4.1862617
aa(lp486
F14.147937
aF-4.520851
aF-12.908937
aa(lp487
F11.365275
aF-5.057751
aF-11.000758
aa(lp488
F7.702147
aF0.7140707
aF-11.458051
aa(lp489
F4.9218802
aF-2.3535004
aF-9.985617
aa(lp490
F9.203311
aF-3.0765493
aF-14.834474
aa(lp491
F8.042722
aF-6.1884127
aF-8.548497
aa(lp492
F7.53156
aF-0.90500826
aF-13.990518
aa(lp493
F0.5734113
aF-2.3780408
aF-8.728063
aa(lp494
F-3.1376014
aF3.8839936
aF-2.918532
aa(lp495
F-6.4008985
aF6.862979
aF-6.977302
aa(lp496
F-8.085817
aF8.4904375
aF-4.143166
aa(lp497
F-8.971672
aF8.37013
aF-0.076614454
aa(lp498
F-10.530896
aF6.545149
aF-3.1950622
aa(lp499
F-8.046313
aF6.2943563
aF2.0530279
aa(lp500
F-8.632295
aF6.773795
aF-1.3916297
aa(lp501
F-7.5890207
aF6.609792
aF2.6671407
aa(lp502
F-6.585252
aF8.862736
aF-0.6560113
aa(lp503
F-6.4487824
aF8.282741
aF2.5558102
aaa(lp504
(lp505
F-5.2498856
aF7.755418
aF2.202067
aa(lp506
F-5.0625396
aF8.290522
aF1.3982137
aa(lp507
F-5.430648
aF8.072051
aF2.0350714
aa(lp508
F-6.338649
aF8.397662
aF2.4426842
aa(lp509
F-7.855974
aF10.2495775
aF1.1905168
aa(lp510
F-10.041282
aF8.654441
aF0.2172738
aa(lp511
F-12.744934
aF5.9142766
aF0.20290859
aa(lp512
F-13.435661
aF3.691859
aF-5.6138043
aa(lp513
F-8.516774
aF4.947618
aF-2.3511062
aa(lp514
F-3.8474822
aF3.8271315
aF-6.7684083
aa(lp515
F1.2868834
aF1.4065934
aF-7.915829
aa(lp516
F6.201581
aF-1.4808137
aF-11.289858
aa(lp517
F8.698134
aF-3.0909145
aF-8.192958
aa(lp518
F5.4521956
aF-3.8325183
aF-10.143634
aa(lp519
F5.6138043
aF-0.8487445
aF-13.278841
aa(lp520
F7.2167225
aF-0.8499416
aF-15.4641485
aa(lp521
F11.517307
aF-4.0665517
aF-14.93922
aa(lp522
F12.81676
aF-5.3235073
aF-15.704167
aa(lp523
F6.1955953
aF-2.2613235
aF-5.595249
aa(lp524
F-2.315193
aF0.7691373
aF-5.566519
aa(lp525
F-6.699575
aF4.1515455
aF-1.0462662
aa(lp526
F-12.237962
aF4.9703627
aF0.17477672
aa(lp527
F-11.84651
aF6.6708446
aF-4.912902
aa(lp528
F-10.272323
aF5.644929
aF-2.7449522
aa(lp529
F-9.003395
aF5.3755813
aF-3.9971197
aa(lp530
F-8.689755
aF5.234922
aF-1.2276269
aa(lp531
F-7.631518
aF6.8240733
aF0.26994625
aa(lp532
F-6.542156
aF9.008782
aF-1.1348516
aa(lp533
F-6.5696893
aF8.380903
aF0.87687635
aa(lp534
F-6.136339
aF8.224682
aF0.3597288
aa(lp535
F-6.0465565
aF7.776367
aF0.88046765
aa(lp536
F-5.5467668
aF8.127118
aF-0.4985925
aa(lp537
F-5.7963624
aF7.4735007
aF1.4520833
aa(lp538
F-5.0559554
aF8.004415
aF0.26755205
aa(lp539
F-5.9729347
aF7.479486
aF1.5041572
aaa(lp540
(lp541
F-5.9448028
aF7.6111674
aF1.0666169
aa(lp542
F-5.6443305
aF7.7973166
aF0.8451532
aa(lp543
F-6.0699
aF7.662044
aF1.0749966
aa(lp544
F-7.828441
aF7.4711065
aF1.1534066
aa(lp545
F-10.557831
aF8.796896
aF-0.30645782
aa(lp546
F-13.050195
aF6.733692
aF-2.3038206
aa(lp547
F-15.808914
aF4.1395745
aF-1.5957354
aa(lp548
F-12.846687
aF4.291008
aF-4.11264
aa(lp549
F-11.626244
aF0.6206968
aF-6.1369376
aa(lp550
F1.1486182
aF-3.4733882
aF-6.0405707
aa(lp551
F12.634202
aF-9.43076
aF-12.185888
aa(lp552
F13.5457945
aF-8.1558485
aF-12.3876
aa(lp553
F7.897873
aF-0.8762778
aF-11.48738
aa(lp554
F4.879383
aF-1.7806876
aF-10.773309
aa(lp555
F9.071032
aF-3.2638955
aF-13.174693
aa(lp556
F10.144233
aF-8.007407
aF-14.867394
aa(lp557
F10.035895
aF-3.7535098
aF-11.079767
aa(lp558
F3.4847605
aF-0.37708676
aF-9.258378
aa(lp559
F-6.083068
aF0.6344634
aF-3.004723
aa(lp560
F-7.7488337
aF6.1004257
aF-4.83509
aa(lp561
F-9.065644
aF6.2674217
aF-1.775899
aa(lp562
F-10.763732
aF6.2087636
aF-2.321777
aa(lp563
F-11.09473
aF5.947197
aF0.57041854
aa(lp564
F-10.596138
aF6.9970546
aF-2.698864
aa(lp565
F-8.098388
aF6.9796963
aF-0.92895025
aa(lp566
F-8.176199
aF6.695385
aF-0.08020575
aa(lp567
F-7.8212585
aF7.3723454
aF0.80325466
aa(lp568
F-6.4284315
aF7.765593
aF1.5693992
aaa(lp569
(lp570
F-3.7020345
aF9.293693
aF1.3760674
aa(lp571
F-3.8654387
aF9.658808
aF0.8343793
aa(lp572
F-5.1636944
aF9.742006
aF2.4277205
aa(lp573
F-7.8613615
aF10.503363
aF1.5747862
aa(lp574
F-10.874464
aF10.544662
aF-0.095768064
aa(lp575
F-11.777079
aF9.351752
aF-1.1713632
aa(lp576
F-16.282967
aF5.8622026
aF-1.8034325
aa(lp577
F-11.45865
aF2.8832173
aF-5.5042696
aa(lp578
F-6.431424
aF0.641646
aF-8.291121
aa(lp579
F3.405752
aF-2.7617116
aF-4.8907557
aa(lp580
F11.732785
aF-3.241749
aF-9.606734
aa(lp581
F11.671135
aF-6.0561333
aF-6.973711
aa(lp582
F6.120178
aF-2.2038627
aF-14.829086
aa(lp583
F2.6671407
aF-1.4389153
aF-10.893618
aa(lp584
F1.2551602
aF-4.3873744
aF-9.731832
aa(lp585
F6.570288
aF-4.3580456
aF-12.576143
aa(lp586
F8.22528
aF-8.189965
aF-14.353239
aa(lp587
F7.2849574
aF-4.7381253
aF-9.076419
aa(lp588
F1.5813702
aF-2.7132292
aF-10.498574
aa(lp589
F-4.5154643
aF1.8088194
aF-8.061277
aa(lp590
F-8.241441
aF4.6513352
aF-1.3994108
aa(lp591
F-9.288305
aF7.633912
aF-2.2936451
aa(lp592
F-7.4992385
aF10.565014
aF-4.8362875
aa(lp593
F-7.6387005
aF8.550293
aF-0.027533319
aa(lp594
F-7.325659
aF7.639898
aF1.1150994
aa(lp595
F-9.101558
aF7.161656
aF0.3286042
aa(lp596
F-6.851607
aF7.380127
aF2.1092918
aa(lp597
F-8.081029
aF7.315483
aF-0.37110126
aa(lp598
F-5.841852
aF7.1353197
aF3.6391866
aa(lp599
F-6.0291986
aF7.9343843
aF0.8619126
aaa(lp600
(lp601
F-5.0643353
aF7.8649526
aF1.8046296
aa(lp602
F-5.631761
aF7.7027454
aF2.1230583
aa(lp603
F-5.8813562
aF8.008605
aF1.8393455
aa(lp604
F-7.0371575
aF8.482059
aF2.0368671
aa(lp605
F-8.995614
aF8.103774
aF2.19249
aa(lp606
F-9.592369
aF8.327632
aF-1.2755109
aa(lp607
F-8.771756
aF7.9714947
aF-1.2042835
aa(lp608
F-10.573393
aF5.6102133
aF-0.9151836
aa(lp609
F-7.5854297
aF6.0758853
aF-6.8144965
aa(lp610
F-8.027759
aF3.66672
aF-2.5737667
aa(lp611
F-3.1675289
aF1.3599066
aF-10.144233
aa(lp612
F0.83497787
aF-3.2357635
aF-9.39365
aa(lp613
F9.425373
aF-4.3903675
aF-10.16578
aa(lp614
F8.135497
aF-5.9944825
aF-13.469779
aa(lp615
F7.0527196
aF-1.0432734
aF-9.586982
aa(lp616
F2.1481974
aF-2.630629
aF-8.862736
aa(lp617
F0.24061728
aF-4.426879
aF-8.279149
aa(lp618
F1.5382746
aF-3.7666779
aF-9.895834
aa(lp619
F2.932897
aF-3.9995139
aF-12.625823
aa(lp620
F7.5764513
aF-3.532046
aF-9.561244
aa(lp621
F8.412626
aF-3.4093432
aF-17.370531
aa(lp622
F5.348048
aF-5.070919
aF-11.932103
aa(lp623
F1.6861166
aF1.8435353
aF-6.663662
aa(lp624
F-4.0479965
aF5.504868
aF-3.084929
aa(lp625
F-10.228628
aF4.268862
aF2.2331917
aa(lp626
F-8.557475
aF9.715072
aF-5.7640405
aa(lp627
F-11.543644
aF6.419453
aF3.3452983
aa(lp628
F-11.256938
aF6.715137
aF-1.851915
aa(lp629
F-10.337564
aF7.2568254
aF-4.3209357
aa(lp630
F-7.792528
aF6.581062
aF0.7009025
aa(lp631
F-6.991069
aF7.7853456
aF-2.1386206
aa(lp632
F-5.599439
aF7.923012
aF2.7192147
aa(lp633
F-6.5218053
aF7.8266454
aF-0.7739257
aa(lp634
F-5.6179943
aF7.2508397
aF1.5406688
aa(lp635
F-5.555745
aF8.063671
aF-0.15502456
aaa(lp636
(lp637
F-5.711368
aF7.9487495
aF1.0181342
aa(lp638
F-6.229114
aF8.201338
aF1.3263878
aa(lp639
F-7.0090256
aF8.892664
aF0.9427169
aa(lp640
F-8.526351
aF7.81228
aF0.2657564
aa(lp641
F-12.392986
aF5.7227407
aF-1.9812019
aa(lp642
F-9.218874
aF7.905654
aF-3.4991257
aa(lp643
F-11.261127
aF4.620809
aF0.11312603
aa(lp644
F-10.380061
aF4.8003745
aF-5.461174
aa(lp645
F-7.5387425
aF0.28311434
aF-4.9284644
aa(lp646
F4.2275615
aF-2.379238
aF-8.009203
aa(lp647
F8.389881
aF-9.222465
aF-8.968679
aa(lp648
F12.801797
aF-6.399701
aF-14.890139
aa(lp649
F7.668628
aF-2.6671407
aF-12.71381
aa(lp650
F2.1320367
aF-3.1094694
aF-9.084799
aa(lp651
F1.0791864
aF-4.6244006
aF-7.5171947
aa(lp652
F1.2922704
aF-5.21517
aF-8.660426
aa(lp653
F4.987122
aF-3.4674027
aF-13.015479
aa(lp654
F7.3992805
aF-6.6349316
aF-13.847464
aa(lp655
F8.053496
aF-6.7348895
aF-14.563929
aa(lp656
F5.4659624
aF-2.724003
aF-6.3589997
aa(lp657
F1.9387048
aF2.19668
aF-8.9758625
aa(lp658
F-4.4023385
aF4.1186256
aF-5.3384714
aa(lp659
F-5.885546
aF5.3037553
aF-5.3767786
aa(lp660
F-8.488044
aF6.8683662
aF-0.04249708
aa(lp661
F-8.441956
aF7.5734587
aF-4.9146976
aa(lp662
F-10.675745
aF5.5922565
aF1.3796587
aa(lp663
F-9.3978405
aF6.777985
aF-4.0426097
aa(lp664
F-9.701305
aF5.846042
aF0.66139823
aa(lp665
F-7.608773
aF7.460931
aF-3.0310593
aa(lp666
F-7.253234
aF7.1227503
aF0.15502456
aa(lp667
F-6.618172
aF7.4046674
aF0.10235212
aa(lp668
F-6.241085
aF7.3645644
aF1.435324
aa(lp669
F-5.7760115
aF7.764396
aF0.3309984
aa(lp670
F-6.2129536
aF7.643489
aF0.9020155
aa(lp671
F-5.6670756
aF7.939771
aF0.81043726
aa(lp672
F-5.9639564
aF7.8757267
aF1.5969325
aa(lp673
F-5.6640825
aF8.181585
aF0.6901286
aaa(lp674
(lp675
F-4.758476
aF8.592192
aF-0.58538234
aa(lp676
F-5.113416
aF8.6574335
aF-0.020949265
aa(lp677
F-5.023035
aF8.578424
aF-0.43035775
aa(lp678
F-5.3923407
aF8.709507
aF-0.16220717
aa(lp679
F-7.2951326
aF9.420585
aF-0.33159694
aa(lp680
F-11.270106
aF8.704719
aF-0.842759
aa(lp681
F-14.956578
aF3.153762
aF-3.5098996
aa(lp682
F-15.905879
aF0.12270284
aF-7.5345526
aa(lp683
F-11.944074
aF-0.3369839
aF-6.907272
aa(lp684
F-4.5872903
aF-2.397793
aF-7.925406
aa(lp685
F6.151303
aF-8.284536
aF-7.137714
aa(lp686
F14.931438
aF-5.0781016
aF-11.447875
aa(lp687
F8.53054
aF-2.1386206
aF-11.720815
aa(lp688
F3.4674027
aF-2.528277
aF-9.428965
aa(lp689
F3.3746274
aF-2.2870612
aF-10.484808
aa(lp690
F4.9787426
aF-3.879804
aF-15.94239
aa(lp691
F6.4589577
aF-5.0116625
aF-12.344504
aa(lp692
F6.7013707
aF-4.3999443
aF-17.135302
aa(lp693
F3.1411927
aF-1.9476831
aF-7.1191587
aa(lp694
F-0.5410896
aF1.1965023
aF-5.7365074
aa(lp695
F-3.6601357
aF5.5168395
aF-1.2725182
aa(lp696
F-6.135142
aF6.917447
aF-3.7469256
aa(lp697
F-9.237429
aF6.8528037
aF-0.32441434
aa(lp698
F-7.764396
aF9.230247
aF-6.041768
aa(lp699
F-10.803835
aF6.975507
aF-1.2198458
aa(lp700
F-8.950125
aF7.969699
aF-3.032855
aa(lp701
F-8.981848
aF6.941988
aF-0.7368156
aa(lp702
F-7.129933
aF7.7709804
aF-2.4570496
aa(lp703
F-7.937377
aF6.8348475
aF1.3988123
aa(lp704
F-5.701193
aF8.008605
aF0.55964464
aa(lp705
F-5.5629277
aF7.7213006
aF0.9995792
aa(lp706
F-5.755661
aF7.86615
aF0.7404069
aa(lp707
F-5.071518
aF8.21271
aF0.6242881
aaa(lp708
(lp709
F-5.1080294
aF8.519168
aF0.0011971008
aa(lp710
F-5.9477954
aF8.450335
aF0.54647654
aa(lp711
F-6.220136
aF8.941146
aF0.7966706
aa(lp712
F-8.181585
aF8.654441
aF-0.66020113
aa(lp713
F-9.903017
aF8.308478
aF-0.25558102
aa(lp714
F-11.014524
aF6.915652
aF-4.222773
aa(lp715
F-11.385028
aF6.2087636
aF-4.3209357
aa(lp716
F-9.202713
aF3.6655228
aF-4.1042604
aa(lp717
F-6.073491
aF3.1370027
aF-6.2249246
aa(lp718
F-1.0648212
aF1.5568297
aF-7.7494326
aa(lp719
F5.3276973
aF1.1965023
aF-8.371924
aa(lp720
F6.333262
aF-1.3617022
aF-7.41604
aa(lp721
F6.011242
aF-2.5013423
aF-12.667123
aa(lp722
F4.173692
aF-2.7132292
aF-11.183915
aa(lp723
F3.1477766
aF-2.610877
aF-7.5285673
aa(lp724
F2.6060886
aF-1.2144588
aF-15.424644
aa(lp725
F4.9182887
aF-1.0941502
aF-12.264298
aa(lp726
F8.401853
aF-2.6018987
aF-14.225748
aa(lp727
F5.4498014
aF-5.336077
aF-12.647969
aa(lp728
F6.6959834
aF-0.24720132
aF-9.717466
aa(lp729
F0.7757214
aF2.0147207
aF-4.4580035
aa(lp730
F-3.2908301
aF4.72376
aF-2.8125885
aa(lp731
F-5.807735
aF7.1047935
aF-2.271499
aa(lp732
F-8.652046
aF6.843227
aF-1.0336965
aa(lp733
F-7.414244
aF9.128492
aF-2.9670146
aa(lp734
F-8.74961
aF8.230667
aF-3.8361096
aa(lp735
F-9.028535
aF6.871359
aF-0.9151836
aa(lp736
F-8.7538
aF7.056311
aF-3.9594111
aa(lp737
F-7.321469
aF6.3829417
aF-0.7374141
aa(lp738
F-7.7679873
aF7.7853456
aF-2.148796
aa(lp739
F-6.4044895
aF8.036138
aF0.56922144
aa(lp740
F-6.155493
aF8.26658
aF-1.0803835
aa(lp741
F-5.389348
aF7.687782
aF1.721431
aa(lp742
F-5.6257753
aF7.7159133
aF-0.01616086
aaa(lp743
(lp744
F-4.9518075
aF8.528147
aF0.44771573
aa(lp745
F-5.9807158
aF8.377312
aF0.6344634
aa(lp746
F-6.8731546
aF9.749189
aF0.635062
aa(lp747
F-9.26556
aF9.140464
aF-0.10115502
aa(lp748
F-13.139977
aF5.9370217
aF-1.4167689
aa(lp749
F-11.547235
aF5.5204306
aF-4.581305
aa(lp750
F-12.165538
aF3.9366663
aF-3.447052
aa(lp751
F-12.35049
aF-0.39923313
aF-4.6680946
aa(lp752
F-1.9524715
aF-3.3770216
aF-6.9252286
aa(lp753
F7.8571715
aF-4.947618
aF-7.433398
aa(lp754
F11.6986685
aF-9.841965
aF-11.771691
aa(lp755
F9.081207
aF-4.383185
aF-19.603125
aa(lp756
F7.414244
aF1.1432313
aF-9.972448
aa(lp757
F3.1735144
aF-4.119224
aF-9.789292
aa(lp758
F8.1558485
aF-3.5230677
aF-14.410102
aa(lp759
F5.593454
aF-5.7083755
aF-8.611943
aa(lp760
F6.9066734
aF-0.017956512
aF-14.3813715
aa(lp761
F2.0350714
aF-1.5448587
aF-7.1610575
aa(lp762
F-0.50876784
aF3.9683893
aF-4.349067
aa(lp763
F-2.617461
aF7.225701
aF-5.6347537
aa(lp764
F-8.224083
aF5.5707088
aF-1.5304934
aa(lp765
F-7.1425023
aF8.925584
aF-4.152743
aa(lp766
F-9.425972
aF7.223905
aF-1.9997569
aa(lp767
F-8.209119
aF7.8703394
aF-4.349067
aa(lp768
F-9.207501
aF6.493075
aF-1.7196354
aa(lp769
F-8.040328
aF7.3430166
aF-3.6272156
aa(lp770
F-6.8384385
aF7.7350674
aF-0.21428105
aa(lp771
F-5.543774
aF8.823831
aF-0.8242039
aa(lp772
F-5.5264163
aF8.2593975
aF1.5412674
aa(lp773
F-5.568913
aF7.8793178
aF-0.2801216
aa(lp774
F-5.1660886
aF7.825448
aF0.048482586
aaa(lp775
(lp776
F-4.9494133
aF9.085996
aF-0.036511578
aa(lp777
F-5.3438582
aF9.361329
aF-0.0796072
aa(lp778
F-5.9172697
aF9.675568
aF0.84216046
aa(lp779
F-7.252037
aF8.815451
aF0.39444473
aa(lp780
F-10.075998
aF8.237849
aF-5.2265425
aa(lp781
F-12.981361
aF5.401319
aF-3.9091327
aa(lp782
F-17.025766
aF0.25797522
aF-5.544971
aa(lp783
F-10.908582
aF-4.080917
aF-7.9786773
aa(lp784
F1.1127052
aF-4.1000705
aF-11.133636
aa(lp785
F13.731944
aF-11.538856
aF-4.3418846
aa(lp786
F15.732898
aF-9.138668
aF-17.376518
aa(lp787
F9.828198
aF3.5529952
aF-17.07784
aa(lp788
F1.7741034
aF-3.9695864
aF-9.767744
aa(lp789
F4.6657004
aF-3.430891
aF-8.125322
aa(lp790
F8.222287
aF-4.758476
aF-15.312716
aa(lp791
F6.1064115
aF-5.4641666
aF-13.306973
aa(lp792
F3.515885
aF-1.8986019
aF-8.658031
aa(lp793
F-1.359308
aF2.267309
aF-6.925827
aa(lp794
F-7.374141
aF6.0681043
aF-1.4383167
aa(lp795
F-7.1263413
aF8.26658
aF-4.3754034
aa(lp796
F-7.8853035
aF9.082404
aF-4.4400473
aa(lp797
F-7.5614877
aF9.003994
aF-1.9722236
aa(lp798
F-7.7201033
aF8.594585
aF-3.0119057
aa(lp799
F-8.218696
aF7.557896
aF-1.0989386
aa(lp800
F-6.2261214
aF8.488044
aF-4.2066126
aa(lp801
F-6.9168487
aF7.2430587
aF0.34955344
aa(lp802
F-5.8382607
aF8.118738
aF-1.074398
aa(lp803
F-5.7257333
aF7.937976
aF2.1021092
aa(lp804
F-5.0362034
aF8.234259
aF1.520318
aa(lp805
F-4.782418
aF8.330027
aF1.6256629
aa(lp806
F-4.879383
aF8.082825
aF0.26755205
aaa.