(lp0
(lp1
(lp2
F3.9612067
aF8.453327
aF4.1545386
aa(lp3
F4.466982
aF8.401254
aF1.8590976
aa(lp4
F6.293159
aF9.07582
aF-2.268506
aa(lp5
F7.0982094
aF8.925584
aF-5.8065376
aa(lp6
F11.139024
aF10.095152
aF-7.668628
aa(lp7
F12.598887
aF8.733449
aF-6.7606273
aa(lp8
F14.223353
aF6.775591
aF-6.341642
aa(lp9
F14.272435
aF4.437653
aF-3.1250317
aa(lp10
F16.031574
aF4.560954
aF-4.693234
aa(lp11
F15.84363
aF2.1739352
aF-0.7098808
aa(lp12
F16.266806
aF2.2499511
aF3.7912183
aa(lp13
F15.972917
aF0.31244332
aF5.450999
aa(lp14
F16.028582
aF-2.4588451
aF17.353174
aa(lp15
F9.850345
aF-2.7407625
aF19.399618
aa(lp16
F4.8105497
aF-1.4341269
aF16.041151
aa(lp17
F3.2483332
aF-0.10534488
aF13.812748
aa(lp18
F2.2523453
aF0.825401
aF12.768876
aa(lp19
F4.2742486
aF2.3139958
aF15.026608
aa(lp20
F6.2339025
aF2.1613655
aF8.871715
aa(lp21
F5.8215013
aF2.9454668
aF10.092757
aa(lp22
F10.829573
aF4.563947
aF4.5753193
aa(lp23
F10.478224
aF4.3981485
aF2.7018566
aa(lp24
F11.358691
aF10.061034
aF-4.653131
aa(lp25
F7.8948803
aF8.49343
aF-2.5983074
aa(lp26
F5.9448028
aF9.554062
aF-3.1370027
aa(lp27
F6.257845
aF10.763134
aF-6.59004
aa(lp28
F3.9504328
aF10.125677
aF-1.4287399
aaa(lp29
(lp30
F2.7419596
aF9.229049
aF2.19249
aa(lp31
F2.8778305
aF9.035119
aF2.6928782
aa(lp32
F2.8083985
aF8.480861
aF2.7694929
aa(lp33
F5.6736593
aF9.405023
aF-1.9099745
aa(lp34
F7.273585
aF9.355942
aF-8.315661
aa(lp35
F7.677606
aF8.729858
aF-10.59973
aa(lp36
F10.839149
aF8.50181
aF-10.837354
aa(lp37
F12.093711
aF7.023391
aF-8.249821
aa(lp38
F13.590686
aF5.1846437
aF-6.59423
aa(lp39
F14.350246
aF3.3243492
aF-3.3375173
aa(lp40
F12.543821
aF0.142455
aF5.79337
aa(lp41
F13.120824
aF0.16819267
aF3.4997244
aa(lp42
F15.278598
aF-2.710835
aF13.208811
aa(lp43
F9.584588
aF-4.8578353
aF19.17576
aa(lp44
F5.1786585
aF-1.99437
aF17.733852
aa(lp45
F4.11264
aF-1.0600328
aF14.461576
aa(lp46
F7.0634937
aF0.9540894
aF14.746487
aa(lp47
F4.7165775
aF1.1354501
aF9.881469
aa(lp48
F7.978079
aF4.361038
aF5.257068
aa(lp49
F5.9723363
aF5.043386
aF7.16824
aa(lp50
F8.926781
aF6.510433
aF-0.6631939
aa(lp51
F7.2568254
aF8.0606785
aF0.05626374
aa(lp52
F8.550293
aF10.538677
aF-4.927267
aa(lp53
F4.705205
aF10.292673
aF-0.7278373
aa(lp54
F5.7903767
aF11.780071
aF-5.3037553
aa(lp55
F3.2920272
aF10.678739
aF-1.5286977
aaa(lp56
(lp57
F2.0973208
aF9.544485
aF1.6310499
aa(lp58
F2.146402
aF9.514558
aF1.9165585
aa(lp59
F2.0967221
aF9.43495
aF0.9648633
aa(lp60
F2.814384
aF9.398438
aF-0.8798691
aa(lp61
F5.93343
aF10.465654
aF-7.915829
aa(lp62
F9.725846
aF10.50875
aF-10.228029
aa(lp63
F9.697116
aF7.93199
aF-6.2979474
aa(lp64
F10.526108
aF6.867169
aF-4.3502645
aa(lp65
F11.654375
aF6.4362125
aF-2.678513
aa(lp66
F13.204022
aF5.276222
aF-1.0989386
aa(lp67
F13.296798
aF1.1935096
aF6.4350157
aa(lp68
F11.927315
aF-2.7449522
aF14.264055
aa(lp69
F5.234922
aF-4.744709
aF19.608511
aa(lp70
F3.9839516
aF-2.6791117
aF18.86631
aa(lp71
F4.6686935
aF0.45070848
aF10.949283
aa(lp72
F4.9242744
aF2.9562407
aF11.276092
aa(lp73
F5.449203
aF3.9079356
aF8.139089
aa(lp74
F6.825869
aF5.7646394
aF7.5375457
aa(lp75
F7.0862384
aF5.8041434
aF3.5033157
aa(lp76
F7.391499
aF7.0784574
aF3.7481227
aa(lp77
F8.409634
aF7.9421654
aF-4.3329067
aa(lp78
F6.8306575
aF9.184157
aF-1.352724
aa(lp79
F6.3326635
aF10.879252
aF-6.145916
aa(lp80
F4.0144777
aF9.770737
aF-1.4478935
aa(lp81
F4.097078
aF11.311406
aF-5.9424086
aa(lp82
F2.4480712
aF10.266935
aF-0.95349085
aaa(lp83
(lp84
F2.397793
aF9.670779
aF1.0301052
aa(lp85
F1.9099745
aF9.245809
aF1.4329298
aa(lp86
F3.0651767
aF9.11293
aF0.43035775
aa(lp87
F7.44896
aF10.778097
aF-4.724957
aa(lp88
F7.5549035
aF9.56723
aF-6.509236
aa(lp89
F10.807426
aF9.58818
aF-9.464279
aa(lp90
F11.838729
aF7.939771
aF-7.69257
aa(lp91
F14.507666
aF5.533599
aF-5.7664347
aa(lp92
F17.996017
aF4.1521444
aF-5.333084
aa(lp93
F19.607914
aF-0.70509243
aF1.3551182
aa(lp94
F19.607914
aF-7.657854
aF10.109517
aa(lp95
F12.271481
aF-4.23235
aF19.608511
aa(lp96
F4.020463
aF-4.1060557
aF19.608511
aa(lp97
F3.9097314
aF-0.4237737
aF14.251486
aa(lp98
F2.6024973
aF2.794632
aF12.575544
aa(lp99
F3.7565024
aF2.2152352
aF9.210494
aa(lp100
F2.8502972
aF4.6154222
aF13.508684
aa(lp101
F6.0250087
aF6.265626
aF5.5982423
aa(lp102
F4.39755
aF4.841076
aF6.4404025
aa(lp103
F11.538257
aF9.206305
aF-2.5719712
aa(lp104
F2.9771898
aF7.9708962
aF1.8058267
aa(lp105
F5.7203465
aF10.471041
aF-3.8552632
aa(lp106
F6.095039
aF11.499351
aF-3.9881415
aa(lp107
F3.5655649
aF10.59973
aF-2.3995886
aa(lp108
F3.3752258
aF10.349535
aF-1.1288661
aaa(lp109
(lp110
F1.8483237
aF9.485827
aF2.2272062
aa(lp111
F2.5270798
aF8.878299
aF4.122815
aa(lp112
F1.8004397
aF8.252813
aF-2.8844144
aa(lp113
F6.7265096
aF8.895657
aF-2.078167
aa(lp114
F7.7727757
aF8.690952
aF-9.563639
aa(lp115
F11.452065
aF8.4904375
aF-7.404069
aa(lp116
F15.802928
aF7.5309615
aF-8.4826565
aa(lp117
F14.917672
aF4.1024647
aF-0.16998832
aa(lp118
F19.38226
aF4.1012673
aF-4.687248
aa(lp119
F19.607914
aF-1.6998832
aF3.1735144
aa(lp120
F17.821838
aF-0.22146365
aF12.987347
aa(lp121
F8.978855
aF-1.9764135
aF19.608511
aa(lp122
F5.8891377
aF-0.99060094
aF19.608511
aa(lp123
F4.923077
aF0.60573304
aF15.827469
aa(lp124
F6.980295
aF3.4404678
aF13.992912
aa(lp125
F5.456984
aF3.8552632
aF10.1699705
aa(lp126
F6.367978
aF4.677073
aF6.482301
aa(lp127
F5.3522377
aF5.945401
aF5.48332
aa(lp128
F9.028535
aF8.098986
aF0.11552023
aa(lp129
F4.1401734
aF6.7630215
aF-0.29987377
aa(lp130
F9.582792
aF9.710882
aF-0.15083471
aa(lp131
F5.6580973
aF10.641628
aF-6.595427
aaa(lp132
(lp133
F2.404377
aF9.420585
aF1.8734628
aa(lp134
F2.3648727
aF8.021174
aF4.209007
aa(lp135
F4.674679
aF8.2833395
aF0.8475474
aa(lp136
F9.0429
aF8.6017685
aF-1.4401124
aa(lp137
F10.025121
aF5.8382607
aF-4.3783965
aa(lp138
F17.298107
aF8.08462
aF-7.3148847
aa(lp139
F17.308882
aF4.5322237
aF-5.659893
aa(lp140
F19.607914
aF0.3345897
aF-2.7407625
aa(lp141
F19.607914
aF-3.7110126
aF5.305551
aa(lp142
F19.356522
aF-5.261258
aF19.03091
aa(lp143
F10.936115
aF-5.650316
aF19.442116
aa(lp144
F3.4871547
aF-2.6503813
aF18.388666
aa(lp145
F2.0027497
aF0.7218518
aF13.29141
aa(lp146
F3.8708255
aF4.021062
aF8.503606
aa(lp147
F4.39755
aF5.3265004
aF9.801263
aa(lp148
F4.0563765
aF4.2503066
aF6.895301
aa(lp149
F4.1264067
aF5.255273
aF7.821857
aa(lp150
F3.8672342
aF5.345055
aF4.5938745
aa(lp151
F6.6612678
aF7.4429746
aF1.3634979
aa(lp152
F9.10455
aF8.471284
aF0.8295909
aa(lp153
F5.4659624
aF9.81922
aF1.234211
aaa(lp154
(lp155
F2.8646624
aF9.35235
aF2.4450784
aa(lp156
F2.533664
aF9.179369
aF2.35769
aa(lp157
F3.6152446
aF8.589199
aF2.9179332
aa(lp158
F7.778163
aF8.3629465
aF-3.193865
aa(lp159
F8.002021
aF7.920019
aF-7.5411367
aa(lp160
F11.370663
aF9.548675
aF-10.327389
aa(lp161
F12.554595
aF6.602011
aF-7.937976
aa(lp162
F13.190256
aF4.6399627
aF-8.432977
aa(lp163
F17.635092
aF1.4047978
aF-4.097078
aa(lp164
F19.472042
aF-0.020949265
aF1.2892777
aa(lp165
F17.845182
aF-6.711546
aF8.842385
aa(lp166
F13.350069
aF-7.48607
aF19.608511
aa(lp167
F4.6483426
aF-6.1106014
aF19.608511
aa(lp168
F4.2718544
aF-1.3575124
aF14.645331
aa(lp169
F5.1918263
aF2.3989902
aF8.782531
aa(lp170
F6.015432
aF3.6703112
aF12.471396
aa(lp171
F6.687604
aF3.5835214
aF8.783728
aa(lp172
F7.102998
aF4.8099513
aF7.946954
aa(lp173
F7.4842744
aF5.4551888
aF3.3913867
aa(lp174
F9.533113
aF8.054094
aF-1.3521254
aa(lp175
F9.716867
aF10.860099
aF-4.8907557
aa(lp176
F6.0447607
aF11.186309
aF-2.6671407
aa(lp177
F6.192004
aF11.995549
aF-5.0505686
aa(lp178
F2.6569653
aF9.811439
aF-0.89782566
aa(lp179
F2.0739772
aF9.776723
aF-1.3084313
aa(lp180
F1.4742297
aF9.318831
aF0.82599956
aa(lp181
F1.894412
aF10.149021
aF0.9295488
aa(lp182
F1.3628993
aF9.898827
aF1.1677719
aa(lp183
F1.6843209
aF10.0341
aF1.0630256
aa(lp184
F1.5334862
aF9.941324
aF0.8026561
aa(lp185
F1.6382325
aF9.915586
aF0.39444473
aaa(lp186
(lp187
F1.6693572
aF9.087791
aF3.2932243
aa(lp188
F2.2284033
aF7.717709
aF4.83928
aa(lp189
F7.368156
aF7.3322425
aF-0.6123171
aa(lp190
F10.8469305
aF7.9475527
aF-8.450933
aa(lp191
F10.679935
aF6.867768
aF-10.039486
aa(lp192
F15.528193
aF7.665635
aF-11.419744
aa(lp193
F18.61013
aF3.9576154
aF-4.3406878
aa(lp194
F16.748638
aF3.1920695
aF-2.0614076
aa(lp195
F19.607914
aF-0.56084174
aF1.1827357
aa(lp196
F19.607914
aF-0.7978677
aF0.2705448
aa(lp197
F18.819622
aF-3.2225955
aF19.153614
aa(lp198
F8.777742
aF-2.393603
aF14.788385
aa(lp199
F5.6826377
aF-0.74878657
aF17.985842
aa(lp200
F1.9093759
aF3.3704374
aF11.196485
aa(lp201
F5.731719
aF3.8133647
aF14.180857
aa(lp202
F5.398925
aF3.6487634
aF10.412982
aa(lp203
F4.413112
aF4.71119
aF6.5265937
aa(lp204
F6.769605
aF6.725911
aF6.695385
aa(lp205
F6.333262
aF8.226477
aF4.1437645
aa(lp206
F8.008605
aF6.879739
aF-0.46028528
aa(lp207
F5.6185927
aF9.220071
aF-0.61291564
aaa(lp208
(lp209
F0.5446809
aF8.404845
aF3.9923313
aa(lp210
F4.4262805
aF7.7997108
aF3.6733038
aa(lp211
F8.734647
aF6.678027
aF-0.84575176
aa(lp212
F10.486604
aF6.613982
aF-10.713454
aa(lp213
F15.97172
aF9.419987
aF-9.329605
aa(lp214
F14.672865
aF5.149329
aF-4.827309
aa(lp215
F15.946581
aF2.6443958
aF-1.9458874
aa(lp216
F18.087595
aF0.6925228
aF-1.5688007
aa(lp217
F16.080057
aF-1.5334862
aF0.8643068
aa(lp218
F13.948021
aF-2.0159178
aF18.480843
aa(lp219
F8.180987
aF-2.7455509
aF19.608511
aa(lp220
F4.4562078
aF-0.55006784
aF19.561226
aa(lp221
F1.489792
aF2.0721815
aF10.819996
aa(lp222
F2.980781
aF3.5511997
aF8.641871
aa(lp223
F2.183512
aF3.4739866
aF11.25215
aa(lp224
F3.46022
aF3.5242648
aF7.441179
aa(lp225
F3.7391446
aF3.6990416
aF7.8104844
aa(lp226
F5.525219
aF5.2115784
aF3.840898
aa(lp227
F9.765948
aF7.961319
aF1.1079168
aa(lp228
F13.157335
aF11.34253
aF-1.395221
aa(lp229
F4.537012
aF9.883265
aF-3.4662056
aa(lp230
F6.8611836
aF11.328764
aF-2.7605145
aaa(lp231
(lp232
F2.3900118
aF9.618107
aF0.9355343
aa(lp233
F2.4941597
aF9.362526
aF1.6304513
aa(lp234
F2.834735
aF8.572439
aF2.1481974
aa(lp235
F7.7183075
aF8.359954
aF-4.969166
aa(lp236
F7.641693
aF7.6231384
aF-9.519944
aa(lp237
F8.441956
aF6.192004
aF-8.09719
aa(lp238
F12.825739
aF6.229114
aF-8.058883
aa(lp239
F15.416863
aF4.2538977
aF-7.441179
aa(lp240
F16.600796
aF0.91099375
aF0.0017956513
aa(lp241
F17.079039
aF-2.8580782
aF7.2322845
aa(lp242
F15.548544
aF-0.6242881
aF19.607315
aa(lp243
F8.250419
aF-2.022502
aF16.081255
aa(lp244
F6.307524
aF-0.3573346
aF18.726847
aa(lp245
F6.9198413
aF-0.26396075
aF15.227123
aa(lp246
F5.571307
aF0.23822308
aF10.96664
aa(lp247
F6.218939
aF1.5682021
aF9.351153
aa(lp248
F6.4230447
aF4.6662993
aF7.5351515
aa(lp249
F6.6774287
aF5.1529207
aF2.1930888
aa(lp250
F10.580576
aF7.8954787
aF0.5883751
aa(lp251
F6.976105
aF8.89805
aF0.2100912
aa(lp252
F11.197681
aF11.020511
aF-0.3238158
aa(lp253
F5.803545
aF10.380061
aF-5.917868
aaa(lp254
(lp255
F2.3439236
aF9.985018
aF0.8511387
aa(lp256
F2.1206641
aF9.877877
aF0.60094464
aa(lp257
F5.9202623
aF9.401431
aF-0.3226187
aa(lp258
F6.0226145
aF9.016563
aF-7.321469
aa(lp259
F7.161656
aF8.015189
aF-6.495469
aa(lp260
F8.056489
aF7.801506
aF-8.825027
aa(lp261
F11.944673
aF8.532935
aF-10.211869
aa(lp262
F12.898762
aF5.201403
aF-9.190144
aa(lp263
F17.536331
aF4.0695443
aF-7.2352777
aa(lp264
F19.166782
aF0.044891283
aF1.3455414
aa(lp265
F15.7323
aF-3.5847185
aF10.228029
aa(lp266
F16.01242
aF-2.7132292
aF18.146852
aa(lp267
F8.16363
aF-2.8670566
aF19.608511
aa(lp268
F4.0617633
aF-1.1390414
aF16.4751
aa(lp269
F0.8702923
aF0.093373865
aF12.41214
aa(lp270
F7.217321
aF1.1234791
aF15.014039
aa(lp271
F5.8771667
aF2.124854
aF10.672154
aa(lp272
F8.037335
aF3.429694
aF8.161235
aa(lp273
F9.533113
aF4.1060557
aF5.16549
aa(lp274
F14.571112
aF6.329671
aF0.39444473
aa(lp275
F12.273875
aF9.992201
aF-1.0929531
aa(lp276
F13.886969
aF13.9755535
aF-9.454104
aa(lp277
F5.140351
aF11.225813
aF-6.218939
aa(lp278
F4.8500543
aF11.115082
aF-2.7503393
aaa(lp279
(lp280
F1.6927006
aF8.947132
aF2.7204118
aa(lp281
F7.3567834
aF9.611523
aF0.027533319
aa(lp282
F12.922105
aF12.16434
aF-19.265543
aa(lp283
F19.607914
aF14.292187
aF-19.608511
aa(lp284
F19.607914
aF5.2822075
aF-19.608511
aa(lp285
F19.607914
aF-4.6279917
aF1.0666169
aa(lp286
F19.607914
aF-19.608511
aF19.608511
aa(lp287
F8.818443
aF-19.608511
aF19.608511
aa(lp288
F9.044097
aF-7.356185
aF19.608511
aa(lp289
F2.979584
aF1.6172832
aF8.928576
aa(lp290
F3.946243
aF4.5992613
aF10.447099
aa(lp291
F4.586692
aF4.2401314
aF9.5492735
aa(lp292
F11.3138
aF7.6680293
aF-0.33518824
aa(lp293
F6.8222775
aF6.0327897
aF9.415796
aa(lp294
F12.299014
aF10.122087
aF-2.475006
aa(lp295
F10.053851
aF10.039486
aF-1.9141643
aa(lp296
F12.621633
aF12.680889
aF-5.795165
aa(lp297
F5.143344
aF10.58716
aF0.9403227
aa(lp298
F7.912238
aF12.416928
aF-7.6321163
aa(lp299
F4.018069
aF10.939706
aF-2.77069
aa(lp300
F2.5270798
aF9.715072
aF0.48961425
aa(lp301
F2.7928362
aF10.148422
aF0.45250413
aa(lp302
F1.2312182
aF9.2494
aF2.1230583
aa(lp303
F2.6803088
aF9.790489
aF1.1923125
aaa(lp304
(lp305
F0.7637503
aF8.735245
aF3.8061821
aa(lp306
F1.3634979
aF8.635287
aF6.054936
aa(lp307
F9.346365
aF11.464635
aF-13.862428
aa(lp308
F19.607914
aF11.145009
aF-19.608511
aa(lp309
F19.607914
aF0.13706805
aF-19.608511
aa(lp310
F19.607914
aF-6.716933
aF12.3115835
aa(lp311
F19.607914
aF-8.022371
aF19.102737
aa(lp312
F19.607914
aF-19.37388
aF19.608511
aa(lp313
F-0.8098387
aF-14.572907
aF19.608511
aa(lp314
F1.4700398
aF-2.4498668
aF14.57171
aa(lp315
F2.3020248
aF3.82773
aF8.962095
aa(lp316
F5.976526
aF5.8388596
aF8.00621
aa(lp317
F5.6347537
aF6.531981
aF4.212598
aa(lp318
F7.1311297
aF6.1608796
aF1.9698294
aa(lp319
F11.442489
aF8.089409
aF-2.0608091
aa(lp320
F9.036316
aF9.7563715
aF-0.7410054
aa(lp321
F14.480132
aF13.790602
aF-9.102755
aa(lp322
F7.762002
aF11.942877
aF-1.7393875
aa(lp323
F7.326257
aF11.808802
aF-3.7900212
aa(lp324
F4.5316253
aF10.4171715
aF-2.7299886
aaa(lp325
(lp326
F2.2301989
aF8.926781
aF4.4274774
aa(lp327
F2.3451207
aF7.41185
aF6.8988924
aa(lp328
F5.90889
aF9.239823
aF-0.5626374
aa(lp329
F11.291654
aF7.8912888
aF-2.2499511
aa(lp330
F15.648502
aF7.7799582
aF-17.09879
aa(lp331
F19.607914
aF3.3435028
aF-15.099033
aa(lp332
F19.607914
aF-4.490924
aF-16.62414
aa(lp333
F19.607914
aF-11.9374895
aF4.739322
aa(lp334
F19.607914
aF-19.608511
aF9.411008
aa(lp335
F19.607914
aF-12.36246
aF19.608511
aa(lp336
F7.0108213
aF-13.874997
aF19.608511
aa(lp337
F4.3622355
aF-0.5835867
aF13.621212
aa(lp338
F3.5883098
aF2.4612393
aF13.76247
aa(lp339
F6.493075
aF1.2808979
aF16.49605
aa(lp340
F7.875128
aF2.3391352
aF5.5485625
aa(lp341
F11.926117
aF7.173627
aF1.38325
aa(lp342
F9.080608
aF7.677606
aF-1.0654198
aa(lp343
F8.7532015
aF8.716091
aF-3.4745853
aa(lp344
F11.380837
aF12.629414
aF-5.8921304
aa(lp345
F6.5164185
aF11.784261
aF-3.6846764
aa(lp346
F5.1930237
aF12.316971
aF-6.7845693
aaa(lp347
(lp348
F2.6485856
aF9.023148
aF6.664859
aa(lp349
F1.5753847
aF8.53054
aF3.7984009
aa(lp350
F4.1521444
aF8.599973
aF2.132635
aa(lp351
F9.07582
aF8.189367
aF-11.8022175
aa(lp352
F19.607914
aF6.941389
aF-18.94831
aa(lp353
F19.607914
aF2.1619642
aF-19.34096
aa(lp354
F19.607914
aF-2.3642743
aF-4.1066546
aa(lp355
F19.607914
aF-17.29332
aF2.8101943
aa(lp356
F19.607914
aF-9.448118
aF14.461576
aa(lp357
F13.113043
aF-12.434885
aF19.608511
aa(lp358
F10.308834
aF-5.8867435
aF19.608511
aa(lp359
F0.5422867
aF3.9055414
aF10.925341
aa(lp360
F5.064934
aF2.847903
aF13.257892
aa(lp361
F7.215525
aF4.4681787
aF14.481928
aa(lp362
F7.4465656
aF5.357625
aF5.4091
aa(lp363
F7.917625
aF4.8416743
aF1.7052702
aa(lp364
F10.563816
aF7.9086466
aF-0.64823014
aa(lp365
F11.441292
aF10.353127
aF1.1881226
aa(lp366
F11.472416
aF12.459426
aF-12.395979
aa(lp367
F7.904457
aF12.106879
aF-2.3535004
aa(lp368
F6.919243
aF12.574945
aF-7.9116397
aaa(lp369
(lp370
F2.5516205
aF9.830592
aF1.347337
aa(lp371
F1.9788077
aF9.444528
aF3.7217865
aa(lp372
F3.1519666
aF9.15423
aF8.195353
aa(lp373
F2.3361423
aF7.545925
aF6.10701
aa(lp374
F7.6746135
aF7.6530657
aF-6.2608376
aa(lp375
F12.184691
aF7.666234
aF-19.32839
aa(lp376
F19.607914
aF7.599196
aF-19.608511
aa(lp377
F19.607914
aF-0.18315643
aF-15.194202
aa(lp378
F19.607914
aF-2.4396915
aF3.1441853
aa(lp379
F19.607914
aF-15.341446
aF19.608511
aa(lp380
F19.607914
aF-18.175583
aF19.608511
aa(lp381
F14.651318
aF-13.930064
aF19.608511
aa(lp382
F-2.5905263
aF-4.711789
aF16.516998
aa(lp383
F7.2687964
aF-2.8574798
aF19.608511
aa(lp384
F12.476185
aF-0.8888474
aF13.371018
aa(lp385
F12.849082
aF2.6563668
aF5.225345
aa(lp386
F12.56896
aF4.289212
aF6.364985
aa(lp387
F18.134283
aF6.033388
aF-1.804031
aa(lp388
F14.218565
aF7.0994067
aF-1.7908629
aa(lp389
F14.592659
aF12.640188
aF-8.672996
aa(lp390
F8.891466
aF12.798205
aF-9.793482
aaa(lp391
(lp392
F2.094328
aF9.703101
aF1.9117701
aa(lp393
F1.9033904
aF9.440936
aF4.2066126
aa(lp394
F1.0241197
aF7.711125
aF9.046491
aa(lp395
F2.2170308
aF7.939771
aF5.406706
aa(lp396
F7.8733325
aF7.080253
aF-5.3995233
aa(lp397
F18.026543
aF7.436989
aF-18.488625
aa(lp398
F19.607914
aF7.2993226
aF-19.608511
aa(lp399
F19.607914
aF0.55725044
aF-10.001778
aa(lp400
F19.607914
aF-10.514735
aF3.6206315
aa(lp401
F19.607914
aF-9.545084
aF8.111555
aa(lp402
F19.607914
aF-19.324799
aF19.608511
aa(lp403
F13.946225
aF-15.014637
aF19.608511
aa(lp404
F-4.260482
aF0.9379285
aF12.134413
aa(lp405
F6.5619082
aF-1.596334
aF19.534891
aa(lp406
F10.526108
aF-0.009576807
aF13.2273655
aa(lp407
F8.197148
aF1.0749966
aF5.016451
aa(lp408
F14.407108
aF6.669647
aF3.8594532
aa(lp409
F10.281899
aF5.231331
aF0.6560113
aa(lp410
F15.053543
aF8.261193
aF-3.3446999
aa(lp411
F12.364855
aF10.761338
aF-4.260482
aa(lp412
F9.870096
aF12.918514
aF-7.6069775
aa(lp413
F7.0132155
aF12.904149
aF-6.701969
aaa(lp414
(lp415
F1.775899
aF9.293693
aF1.5747862
aa(lp416
F1.7717092
aF9.911396
aF2.3307555
aa(lp417
F1.316811
aF9.19553
aF5.828684
aa(lp418
F2.2026656
aF8.143877
aF7.6428905
aa(lp419
F6.203975
aF7.739856
aF2.154183
aa(lp420
F12.756906
aF7.6524673
aF-9.533711
aa(lp421
F19.607914
aF8.669404
aF-19.608511
aa(lp422
F19.607914
aF-0.14903906
aF-15.93042
aa(lp423
F19.607914
aF-3.6750996
aF-4.7279496
aa(lp424
F19.607914
aF-14.222755
aF6.9743094
aa(lp425
F19.607914
aF-18.632875
aF19.608511
aa(lp426
F5.453393
aF-19.546862
aF19.608511
aa(lp427
F4.11683
aF-1.6843209
aF10.816404
aa(lp428
F4.074931
aF2.6078842
aF11.566987
aa(lp429
F3.9827545
aF1.6124948
aF16.547525
aa(lp430
F10.745776
aF3.38181
aF7.354389
aa(lp431
F8.971074
aF4.831499
aF6.4751186
aa(lp432
F12.057798
aF6.2913637
aF5.999271
aa(lp433
F18.876484
aF9.821614
aF1.7764976
aa(lp434
F14.009671
aF12.410943
aF-9.918579
aa(lp435
F10.631453
aF13.654132
aF-8.255207
aa(lp436
F4.8919525
aF12.067974
aF-7.9583263
aa(lp437
F4.055179
aF11.374852
aF-2.1811178
aaa(lp438
(lp439
F0.97743285
aF9.184756
aF2.7521348
aa(lp440
F0.9995792
aF8.973468
aF5.7454853
aa(lp441
F1.4047978
aF8.052897
aF6.3182983
aa(lp442
F5.2462945
aF7.8769236
aF2.3900118
aa(lp443
F8.149862
aF7.2753806
aF-2.1481974
aa(lp444
F17.770363
aF7.7649946
aF-19.554045
aa(lp445
F19.607914
aF1.5729905
aF-17.11974
aa(lp446
F19.607914
aF-5.707777
aF-8.637083
aa(lp447
F19.607914
aF-7.5225816
aF1.168969
aa(lp448
F19.607914
aF-19.382858
aF19.389442
aa(lp449
F19.607914
aF-13.403938
aF19.608511
aa(lp450
F10.745177
aF-13.249513
aF19.608511
aa(lp451
F-1.316811
aF-2.0153193
aF15.832856
aa(lp452
F10.465055
aF1.5574282
aF15.674838
aa(lp453
F8.568848
aF3.6816838
aF12.054806
aa(lp454
F11.5873375
aF6.0567317
aF3.678691
aa(lp455
F7.731476
aF4.8781857
aF2.8137856
aa(lp456
F12.443863
aF7.953538
aF-2.2936451
aa(lp457
F9.544485
aF7.6907744
aF-7.2670007
aa(lp458
F9.169194
aF10.623672
aF-8.879496
aa(lp459
F5.4025164
aF11.04565
aF-9.658808
aaa(lp460
(lp461
F1.9273324
aF8.945336
aF2.593519
aa(lp462
F2.349909
aF9.041104
aF4.309563
aa(lp463
F2.1817162
aF8.422203
aF3.9378633
aa(lp464
F4.011485
aF8.544906
aF0.20111294
aa(lp465
F7.1341224
aF9.060258
aF-4.865018
aa(lp466
F17.1772
aF9.677363
aF-19.608511
aa(lp467
F19.607914
aF1.3521254
aF-19.608511
aa(lp468
F19.607914
aF-6.0926447
aF-11.850101
aa(lp469
F19.607914
aF-12.214619
aF6.3111157
aa(lp470
F19.607914
aF-15.239094
aF19.608511
aa(lp471
F17.690756
aF-17.16463
aF19.608511
aa(lp472
F3.0963013
aF-9.51336
aF19.608511
aa(lp473
F4.267066
aF0.25318682
aF11.143812
aa(lp474
F5.932832
aF2.694674
aF12.8688345
aa(lp475
F6.518214
aF2.5600002
aF12.41633
aa(lp476
F6.607398
aF2.1972785
aF11.042657
aa(lp477
F10.000581
aF4.7764325
aF6.5361705
aa(lp478
F13.112444
aF7.3765354
aF-2.0494366
aa(lp479
F7.689577
aF7.479486
aF3.2650926
aa(lp480
F12.619837
aF10.641029
aF-9.909002
aa(lp481
F7.436989
aF10.366894
aF-3.1280246
aa(lp482
F6.981492
aF11.320384
aF-6.9126587
aa(lp483
F4.2760444
aF10.421362
aF-2.5755625
aaa(lp484
(lp485
F1.5346833
aF9.202114
aF1.8908207
aa(lp486
F2.1775265
aF9.771336
aF1.4478935
aa(lp487
F0.26276365
aF8.936956
aF4.392163
aa(lp488
F3.2321723
aF8.385093
aF5.4007206
aa(lp489
F12.643779
aF10.446501
aF-17.20593
aa(lp490
F19.607914
aF7.3047094
aF-19.608511
aa(lp491
F19.607914
aF1.7304093
aF-19.153614
aa(lp492
F19.607914
aF-1.2395979
aF0.22026655
aa(lp493
F19.607914
aF-5.3019595
aF0.5662287
aa(lp494
F19.607914
aF-15.25286
aF18.671183
aa(lp495
F16.016012
aF-19.608511
aF19.608511
aa(lp496
F10.045472
aF-5.053561
aF16.915634
aa(lp497
F5.1876364
aF0.6512229
aF11.390414
aa(lp498
F4.1024647
aF0.2777274
aF12.889784
aa(lp499
F7.5267715
aF4.380192
aF11.702259
aa(lp500
F12.175115
aF4.4657845
aF6.903681
aa(lp501
F11.552622
aF3.776853
aF5.201403
aa(lp502
F10.518925
aF6.105813
aF-1.0372878
aa(lp503
F18.811243
aF11.850699
aF-9.25359
aa(lp504
F8.163031
aF11.295844
aF-3.7966053
aa(lp505
F7.153875
aF12.063784
aF-9.372103
aaa(lp506
(lp507
F0.52492875
aF9.428367
aF1.2814964
aa(lp508
F0.24899697
aF8.513183
aF1.543063
aa(lp509
F5.5748987
aF9.546281
aF5.4061074
aa(lp510
F2.8502972
aF7.502231
aF-1.7483658
aa(lp511
F6.485294
aF9.547478
aF-6.121375
aa(lp512
F10.9899845
aF8.557475
aF-3.4877534
aa(lp513
F11.113286
aF7.536947
aF-2.7443538
aa(lp514
F11.19409
aF7.5094137
aF-1.276708
aa(lp515
F10.802638
aF6.1943984
aF0.27234045
aa(lp516
F12.442666
aF7.1233487
aF-1.448492
aa(lp517
F13.866019
aF6.6588736
aF-1.0474633
aa(lp518
F11.709442
aF4.9613843
aF-0.6039374
aa(lp519
F11.796232
aF3.7373488
aF2.2463598
aa(lp520
F9.884461
aF2.3660698
aF4.5645456
aa(lp521
F7.9313917
aF1.7363948
aF12.059594
aa(lp522
F7.8757267
aF2.0518308
aF13.680469
aa(lp523
F3.8361096
aF1.8273745
aF15.516821
aa(lp524
F3.0873232
aF2.6431987
aF11.38383
aa(lp525
F4.9559975
aF4.2161894
aF9.900622
aa(lp526
F4.7081976
aF5.3564277
aF8.883087
aa(lp527
F7.0024414
aF6.4463882
aF10.833164
aa(lp528
F6.779182
aF6.4607534
aF4.780622
aa(lp529
F7.3088994
aF8.668207
aF4.9440265
aa(lp530
F7.952341
aF8.406042
aF3.6697125
aa(lp531
F9.4535055
aF8.288726
aF-0.5895722
aa(lp532
F7.067085
aF8.272566
aF-1.371279
aa(lp533
F11.546038
aF12.126632
aF-8.117541
aa(lp534
F6.0088477
aF9.817424
aF-3.674501
aa(lp535
F3.892972
aF10.540473
aF-4.5920787
aaa(lp536
(lp537
F2.2188265
aF10.213664
aF0.49200845
aa(lp538
F1.5688007
aF9.973646
aF0.9115923
aa(lp539
F2.532467
aF10.365696
aF1.8189948
aa(lp540
F1.3587095
aF9.228451
aF4.6261964
aa(lp541
F2.1703439
aF7.7745714
aF6.302736
aa(lp542
F2.3798366
aF7.5483193
aF2.6797101
aa(lp543
F2.4450784
aF8.76637
aF-4.493318
aa(lp544
F3.8271315
aF8.600571
aF-6.3165026
aa(lp545
F9.09258
aF9.6845455
aF-10.324995
aa(lp546
F13.443442
aF8.368932
aF-9.140464
aa(lp547
F15.189414
aF7.8583684
aF-5.907094
aa(lp548
F17.925987
aF7.9206176
aF-3.0789435
aa(lp549
F13.818733
aF5.849633
aF4.2676644
aa(lp550
F12.941857
aF7.2670007
aF1.2689269
aa(lp551
F10.164583
aF6.6079965
aF2.3505075
aa(lp552
F12.309788
aF8.566454
aF0.20171149
aa(lp553
F11.279683
aF6.054936
aF9.99639
aa(lp554
F10.479421
aF5.445013
aF9.008782
aa(lp555
F5.868787
aF3.3943794
aF12.539033
aa(lp556
F2.879626
aF2.8473043
aF9.77792
aa(lp557
F1.1384429
aF3.5224693
aF8.723274
aa(lp558
F2.3582888
aF4.0001125
aF10.893019
aa(lp559
F3.4488475
aF4.9182887
aF8.855554
aa(lp560
F3.5930982
aF6.5086374
aF7.2221093
aa(lp561
F5.171476
aF7.5291657
aF3.4117374
aa(lp562
F4.7297454
aF8.67539
aF2.1589713
aa(lp563
F3.347094
aF9.916184
aF3.3973722
aa(lp564
F4.9440265
aF9.156026
aF-1.3605051
aa(lp565
F5.1523223
aF10.184336
aF2.6898856
aa(lp566
F5.919664
aF9.536704
aF3.5152867
aa(lp567
F11.405378
aF9.611523
aF0.9600749
aa(lp568
F5.0493712
aF9.413403
aF0.6344634
aa(lp569
F6.9288197
aF10.225636
aF-2.878429
aa(lp570
F4.0539823
aF10.336966
aF-0.8158242
aa(lp571
F3.6230257
aF10.876859
aF-3.2495303
aa(lp572
F2.4145525
aF10.371083
aF-1.2132617
aa(lp573
F2.9897594
aF9.986216
aF0.8559271
aaa(lp574
(lp575
F2.2613235
aF9.761759
aF2.0015526
aa(lp576
F1.2934675
aF9.100959
aF3.537433
aa(lp577
F1.3389573
aF7.94037
aF6.9701195
aa(lp578
F2.819771
aF7.992444
aF0.96905315
aa(lp579
F4.4274774
aF7.301118
aF-0.45609543
aa(lp580
F5.851429
aF7.9505453
aF-7.7087307
aa(lp581
F12.397177
aF6.8043213
aF-4.6806645
aa(lp582
F15.820287
aF9.754577
aF-10.617686
aa(lp583
F13.976152
aF5.1607018
aF-2.1170728
aa(lp584
F16.603788
aF6.2327056
aF-3.2399535
aa(lp585
F18.281527
aF2.777274
aF0.62608373
aa(lp586
F15.881937
aF2.3145945
aF3.7696705
aa(lp587
F14.613608
aF2.472612
aF2.6605566
aa(lp588
F14.285603
aF0.85054016
aF4.4418426
aa(lp589
F13.248315
aF-0.8074445
aF14.4370365
aa(lp590
F9.299079
aF-1.0271125
aF19.60073
aa(lp591
F4.865018
aF-1.0055647
aF16.149488
aa(lp592
F4.243124
aF0.16220717
aF14.824298
aa(lp593
F6.05733
aF1.5628152
aF9.423578
aa(lp594
F4.5483847
aF3.4410665
aF10.05864
aa(lp595
F5.728726
aF5.345654
aF4.642357
aa(lp596
F6.8623805
aF6.7025676
aF2.6120741
aa(lp597
F8.269572
aF8.192958
aF3.4620156
aa(lp598
F10.731411
aF8.767567
aF3.2190042
aa(lp599
F6.11539
aF7.0066314
aF-0.30047232
aa(lp600
F10.240001
aF10.5440645
aF-5.9160724
aa(lp601
F5.1421466
aF8.948329
aF-2.7880478
aaa(lp602
(lp603
F2.1033063
aF9.354745
aF3.2435448
aa(lp604
F2.5157075
aF9.185953
aF4.07553
aa(lp605
F2.3630772
aF9.09258
aF2.1936872
aa(lp606
F2.9885623
aF8.771158
aF-2.268506
aa(lp607
F6.1064115
aF7.330447
aF-6.4338183
aa(lp608
F9.044097
aF8.175002
aF-12.196662
aa(lp609
F10.891224
aF5.4539914
aF-6.057929
aa(lp610
F11.807006
aF5.3528366
aF-5.2618566
aa(lp611
F13.913304
aF5.9519854
aF-4.4645877
aa(lp612
F15.837046
aF5.566519
aF-1.0486604
aa(lp613
F17.591396
aF5.531803
aF-0.58418524
aa(lp614
F14.829086
aF2.7371712
aF2.6503813
aa(lp615
F16.534357
aF0.59974754
aF6.9048777
aa(lp616
F13.2985935
aF-2.8113914
aF17.101782
aa(lp617
F7.5525093
aF-2.4301147
aF19.608511
aa(lp618
F4.857237
aF0.5177461
aF12.297817
aa(lp619
F4.7614684
aF3.4033577
aF11.318588
aa(lp620
F7.7374616
aF5.269638
aF8.647857
aa(lp621
F7.499837
aF5.5844755
aF7.2765775
aa(lp622
F7.3729444
aF5.9837084
aF6.6606693
aa(lp623
F8.436568
aF6.5164185
aF3.5500026
aa(lp624
F10.107122
aF7.3687544
aF0.5518635
aa(lp625
F11.046846
aF9.071032
aF2.8107927
aa(lp626
F9.206305
aF10.332776
aF-6.631939
aa(lp627
F9.974843
aF11.391013
aF-5.263054
aa(lp628
F3.157952
aF9.384672
aF-2.2296004
aa(lp629
F4.4699745
aF10.367492
aF-0.7661445
aa(lp630
F1.6089035
aF9.272743
aF0.2160767
aaa(lp631
(lp632
F2.348712
aF9.473856
aF2.5450363
aa(lp633
F2.4534583
aF9.48882
aF2.1200657
aa(lp634
F1.8100165
aF8.993818
aF3.4542346
aa(lp635
F2.6084828
aF8.6257105
aF3.1932666
aa(lp636
F3.3740287
aF8.070854
aF1.666963
aa(lp637
F4.84766
aF7.945757
aF-3.0573955
aa(lp638
F10.135853
aF9.476251
aF-9.051878
aa(lp639
F9.677363
aF6.996456
aF-8.834005
aa(lp640
F11.908161
aF6.455965
aF-7.5411367
aa(lp641
F13.827712
aF5.382764
aF-4.7884035
aa(lp642
F16.495451
aF5.4402246
aF-2.3762453
aa(lp643
F17.128717
aF2.823961
aF1.8555063
aa(lp644
F15.043367
aF2.641403
aF2.695871
aa(lp645
F12.463615
aF0.16280572
aF8.979453
aa(lp646
F11.201871
aF0.88405895
aF15.137341
aa(lp647
F6.621165
aF0.712275
aF18.203714
aa(lp648
F5.370793
aF0.9343372
aF13.02745
aa(lp649
F3.259107
aF2.678513
aF10.760141
aa(lp650
F7.138911
aF3.9713821
aF9.252393
aa(lp651
F7.3166804
aF3.7816415
aF9.462483
aa(lp652
F6.68102
aF4.1042604
aF9.166202
aa(lp653
F9.098565
aF4.4262805
aF7.4525514
aa(lp654
F10.730812
aF4.8243165
aF5.4180784
aa(lp655
F14.423269
aF8.053496
aF2.7593174
aa(lp656
F13.278243
aF8.334815
aF-3.6361938
aa(lp657
F11.161768
aF8.150461
aF-7.8039002
aa(lp658
F7.583634
aF10.723629
aF-7.5052238
aa(lp659
F6.4140663
aF11.222222
aF-6.4840965
aaa(lp660
(lp661
F2.510919
aF10.147225
aF1.3557167
aa(lp662
F2.0045455
aF9.294889
aF1.9895816
aa(lp663
F3.515885
aF8.205527
aF0.6536171
aa(lp664
F4.9398365
aF8.264186
aF-4.9422307
aa(lp665
F6.203377
aF7.714118
aF-7.45734
aa(lp666
F7.8092875
aF7.7147164
aF-9.520543
aa(lp667
F10.46326
aF8.165425
aF-8.222287
aa(lp668
F10.046669
aF6.2991447
aF-4.9996915
aa(lp669
F11.496957
aF6.173449
aF-3.0520086
aa(lp670
F15.881937
aF7.0407486
aF-1.5215151
aa(lp671
F12.863447
aF3.791817
aF1.4694413
aa(lp672
F13.335704
aF1.0696096
aF6.2979474
aa(lp673
F11.215638
aF-1.4760253
aF15.62456
aa(lp674
F5.380968
aF-2.8778305
aF19.608511
aa(lp675
F7.5866265
aF7.309498
aF7.6225395
aa(lp676
F9.595961
aF6.18123
aF2.570774
aa(lp677
F8.74542
aF5.007473
aF2.4762032
aa(lp678
F15.444397
aF10.443508
aF-5.1397524
aa(lp679
F6.4511766
aF8.506598
aF0.8379706
aa(lp680
F11.209652
aF12.120048
aF-8.3868885
aa(lp681
F1.34195
aF8.880095
aF-2.9430726
aa(lp682
F5.7179523
aF11.334151
aF-3.008913
aaa(lp683
(lp684
F2.1266496
aF9.605537
aF1.5113398
aa(lp685
F2.1152773
aF9.564238
aF2.178125
aa(lp686
F2.3427265
aF8.980651
aF1.1528081
aa(lp687
F3.1376014
aF8.838794
aF0.9091981
aa(lp688
F5.887342
aF8.143278
aF-3.3919852
aa(lp689
F6.389526
aF8.499416
aF-9.742006
aa(lp690
F8.170214
aF7.1466923
aF-6.623559
aa(lp691
F12.092514
aF7.270592
aF-8.500613
aa(lp692
F13.379397
aF5.877765
aF-7.5333557
aa(lp693
F12.364256
aF4.358644
aF-4.039018
aa(lp694
F12.6222315
aF-0.7326257
aF9.020754
aa(lp695
F9.529521
aF-0.8948329
aF17.823036
aa(lp696
F5.5341973
aF-0.65062433
aF18.96567
aa(lp697
F5.4737434
aF1.8614918
aF11.596914
aa(lp698
F7.4028716
aF4.2251673
aF10.143634
aa(lp699
F7.3992805
aF3.8971617
aF9.222465
aa(lp700
F8.309077
aF6.4152637
aF5.799355
aa(lp701
F8.223484
aF5.197812
aF4.9661727
aa(lp702
F10.229227
aF6.154894
aF3.6170402
aa(lp703
F11.689092
aF7.265804
aF2.4462755
aa(lp704
F13.181876
aF6.8947024
aF-2.597709
aa(lp705
F9.470863
aF10.25676
aF-8.120534
aa(lp706
F6.787562
aF10.032902
aF-3.8965633
aa(lp707
F3.0053217
aF10.688315
aF-6.494272
aaa(lp708
(lp709
F2.3756466
aF9.564238
aF1.726818
aa(lp710
F2.7670987
aF9.680955
aF1.2749124
aa(lp711
F3.305794
aF9.412804
aF0.50397944
aa(lp712
F4.470573
aF9.339182
aF-1.4083891
aa(lp713
F2.8209682
aF8.437167
aF-4.0545807
aa(lp714
F4.8255134
aF8.393473
aF-2.6886885
aa(lp715
F5.8454432
aF8.673594
aF-5.1666875
aa(lp716
F7.597999
aF8.990826
aF-5.6000376
aa(lp717
F7.6189485
aF8.201338
aF-4.214992
aa(lp718
F8.932168
aF7.8188643
aF-3.3482912
aa(lp719
F9.088988
aF7.280169
aF-3.0454245
aa(lp720
F8.781932
aF6.5188127
aF-0.81283146
aa(lp721
F9.260772
aF6.870162
aF-1.3928268
aa(lp722
F9.8198185
aF5.276222
aF0.8511387
aa(lp723
F10.962451
aF2.7928362
aF3.180697
aa(lp724
F10.747571
aF3.4889505
aF11.545439
aa(lp725
F7.751827
aF3.139397
aF12.567164
aa(lp726
F6.1040173
aF3.2375593
aF12.753913
aa(lp727
F7.316082
aF5.194819
aF8.281544
aa(lp728
F5.878962
aF5.1062336
aF9.006987
aa(lp729
F6.9557543
aF6.4098763
aF8.99741
aa(lp730
F6.681618
aF5.434838
aF6.205771
aa(lp731
F9.012374
aF7.7889366
aF5.0643353
aa(lp732
F9.55885
aF6.6349316
aF2.235586
aa(lp733
F12.469601
aF6.7253127
aF0.85532856
aa(lp734
F9.136273
aF6.9425864
aF-3.5284548
aa(lp735
F7.304111
aF9.374496
aF-7.9188223
aa(lp736
F5.7616463
aF10.314819
aF-7.03177
aaa(lp737
(lp738
F2.5127146
aF9.682152
aF1.6514006
aa(lp739
F2.2397757
aF9.367314
aF2.0578163
aa(lp740
F2.6713305
aF9.516952
aF1.5292963
aa(lp741
F2.682703
aF9.082404
aF1.881244
aa(lp742
F3.892972
aF8.761581
aF1.2348095
aa(lp743
F4.9961004
aF8.1959505
aF-3.0202854
aa(lp744
F6.915053
aF9.184157
aF-6.0106435
aa(lp745
F7.8906903
aF8.974665
aF-7.1251445
aa(lp746
F7.5225816
aF8.02716
aF-6.540959
aa(lp747
F8.697536
aF7.748235
aF-4.6339774
aa(lp748
F10.131663
aF7.303512
aF-3.7547069
aa(lp749
F9.8683
aF6.05733
aF-1.5143325
aa(lp750
F11.311406
aF5.6563015
aF-0.4213795
aa(lp751
F10.737994
aF2.32058
aF3.5326445
aa(lp752
F10.667366
aF1.2862848
aF7.933786
aa(lp753
F10.020931
aF1.9470845
aF13.6254015
aa(lp754
F7.265205
aF2.5318682
aF14.735713
aa(lp755
F5.20679
aF2.7874494
aF12.272079
aa(lp756
F6.4625487
aF4.520851
aF9.646238
aa(lp757
F6.801927
aF5.2852
aF8.409634
aa(lp758
F7.055712
aF4.0821137
aF9.174581
aa(lp759
F7.6524673
aF5.86759
aF2.7252002
aa(lp760
F12.561179
aF9.71986
aF-6.2380924
aa(lp761
F5.213374
aF8.863934
aF-3.66253
aa(lp762
F6.9527617
aF11.055825
aF-5.9980736
aa(lp763
F3.401562
aF9.7641535
aF-1.7980455
aaa.