(lp0
(lp1
(lp2
F-5.969343
aF3.716998
aF-6.4182563
aa(lp3
F-5.6221843
aF3.738546
aF-6.623559
aa(lp4
F-4.6471453
aF3.3387144
aF-6.1327477
aa(lp5
F-3.5655649
aF2.48159
aF-5.925649
aa(lp6
F-2.5181017
aF1.4808137
aF-5.0302176
aa(lp7
F-2.6234465
aF-0.022744916
aF-8.356362
aa(lp8
F-2.743755
aF-2.2744915
aF-7.8236527
aa(lp9
F-0.6404489
aF0.75716627
aF-19.608511
aa(lp10
F-4.478953
aF6.326678
aF-16.6816
aa(lp11
F-9.020754
aF10.930129
aF-19.608511
aa(lp12
F4.3742065
aF17.133507
aF-10.422559
aa(lp13
F19.593548
aF19.608511
aF-10.633847
aa(lp14
F19.607914
aF19.608511
aF-0.6955156
aa(lp15
F19.607914
aF19.608511
aF8.262989
aa(lp16
F19.607914
aF5.1984105
aF6.203377
aa(lp17
F19.607914
aF-3.1256304
aF-1.0546459
aa(lp18
F19.607914
aF-9.812037
aF-4.338892
aa(lp19
F19.607914
aF-16.1453
aF-9.873089
aa(lp20
F17.538725
aF-18.744205
aF-10.228628
aa(lp21
F7.2047515
aF-18.000206
aF-13.885772
aa(lp22
F0.30945057
aF-13.852253
aF-16.439188
aa(lp23
F-6.841431
aF-10.721834
aF-14.214974
aa(lp24
F-7.1820064
aF-3.6433764
aF-6.968324
aa(lp25
F-5.592855
aF1.7238252
aF-7.8529816
aa(lp26
F-6.7642183
aF3.8606503
aF-5.2241483
aa(lp27
F-7.923012
aF4.238934
aF-5.046977
aaa(lp28
(lp29
F-5.715558
aF3.58412
aF-6.7743936
aa(lp30
F-5.4845176
aF3.3674448
aF-7.2849574
aa(lp31
F-5.321113
aF3.0304608
aF-6.381745
aa(lp32
F-3.6032736
aF3.1244333
aF-4.3305125
aa(lp33
F-0.7248446
aF0.9840169
aF-5.919065
aa(lp34
F-2.0578163
aF-2.224812
aF-9.095572
aa(lp35
F-1.7292122
aF-4.7405195
aF-13.616424
aa(lp36
F0.07182605
aF-6.099229
aF-16.816275
aa(lp37
F-0.3669114
aF7.8954787
aF-19.608511
aa(lp38
F-4.793192
aF14.282012
aF-17.06108
aa(lp39
F8.162432
aF19.580978
aF-19.608511
aa(lp40
F19.607914
aF19.608511
aF-11.014524
aa(lp41
F19.607914
aF19.608511
aF12.045827
aa(lp42
F19.607914
aF10.8595
aF7.6584525
aa(lp43
F19.607914
aF-5.5886655
aF5.9268465
aa(lp44
F19.607914
aF-15.342045
aF-0.20590134
aa(lp45
F19.607914
aF-19.608511
aF-2.1164744
aa(lp46
F19.607914
aF-19.608511
aF-11.78845
aa(lp47
F16.85518
aF-19.608511
aF-15.350424
aa(lp48
F-0.3441665
aF-14.557344
aF-13.459004
aa(lp49
F-3.5296519
aF-6.4110737
aF-11.434109
aa(lp50
F-6.7067575
aF-0.08678981
aF-4.8027687
aa(lp51
F-6.506243
aF2.6126726
aF-5.331289
aa(lp52
F-9.059061
aF0.581791
aF-6.1890116
aa(lp53
F-7.413047
aF2.5905263
aF-7.514202
aa(lp54
F-7.523779
aF3.1010897
aF-5.5258174
aa(lp55
F-6.8887167
aF3.3913867
aF-7.24665
aaa(lp56
(lp57
F-6.2434793
aF3.0532057
aF-6.4350157
aa(lp58
F-6.214749
aF3.2423477
aF-6.8438253
aa(lp59
F-5.8999114
aF3.132813
aF-7.008427
aa(lp60
F-5.2923827
aF3.1747115
aF-7.45734
aa(lp61
F-4.2664676
aF2.743755
aF-1.4808137
aa(lp62
F-2.6952724
aF0.28670564
aF-1.9614497
aa(lp63
F-0.17956513
aF-3.0125043
aF-15.10442
aa(lp64
F1.9183542
aF-4.5657425
aF-15.042171
aa(lp65
F3.0873232
aF0.41838676
aF-19.608511
aa(lp66
F0.5614403
aF11.467628
aF-17.137695
aa(lp67
F1.6531962
aF16.245855
aF-19.608511
aa(lp68
F7.2723875
aF19.608511
aF-6.4858923
aa(lp69
F19.607914
aF19.608511
aF-11.940482
aa(lp70
F19.607914
aF19.608511
aF8.988432
aa(lp71
F19.607914
aF19.166183
aF1.7896658
aa(lp72
F19.607914
aF-2.3666685
aF4.4280763
aa(lp73
F19.607914
aF-11.48738
aF-3.2363622
aa(lp74
F19.607914
aF-19.608511
aF-9.596559
aa(lp75
F19.607914
aF-19.608511
aF-12.0488205
aa(lp76
F13.000515
aF-19.608511
aF-19.608511
aa(lp77
F2.6288335
aF-14.444818
aF-10.272921
aa(lp78
F-2.8072014
aF-6.2446766
aF-16.270395
aa(lp79
F-4.309563
aF-0.8182184
aF-11.950658
aa(lp80
F-8.497621
aF1.1875241
aF-3.25372
aa(lp81
F-7.9313917
aF4.6579194
aF-5.2840033
aa(lp82
F-8.917204
aF4.38917
aF-5.6347537
aa(lp83
F-7.495647
aF4.1503487
aF-5.309741
aa(lp84
F-7.045537
aF2.9873652
aF-6.8288617
aa(lp85
F-7.463924
aF1.8531121
aF-6.2087636
aa(lp86
F-6.8623805
aF2.7635074
aF-5.4659624
aa(lp87
F-7.128137
aF2.195483
aF-5.7736173
aaa(lp88
(lp89
F-6.339846
aF3.3686419
aF-6.8569937
aa(lp90
F-6.5547256
aF3.015497
aF-6.3991027
aa(lp91
F-5.810129
aF3.2267854
aF-6.071097
aa(lp92
F-5.2008047
aF2.7563248
aF-4.607641
aa(lp93
F-3.6655228
aF3.063381
aF-1.5185224
aa(lp94
F-0.9247604
aF3.371036
aF-6.4326215
aa(lp95
F-1.287482
aF1.2425907
aF-14.225748
aa(lp96
F-2.3876176
aF-5.1361613
aF-14.750677
aa(lp97
F-2.367267
aF-3.7032316
aF-19.608511
aa(lp98
F-2.006341
aF9.039907
aF-19.608511
aa(lp99
F-5.6940103
aF12.886192
aF-11.343728
aa(lp100
F9.13388
aF19.608511
aF-13.8241205
aa(lp101
F19.607914
aF19.608511
aF-12.982558
aa(lp102
F19.607914
aF19.608511
aF-1.1013328
aa(lp103
F19.607914
aF19.608511
aF8.690952
aa(lp104
F19.607914
aF6.0890536
aF4.2299557
aa(lp105
F19.607914
aF-8.765771
aF1.7836803
aa(lp106
F19.607914
aF-19.56003
aF-4.461595
aa(lp107
F19.607914
aF-19.608511
aF-18.748993
aa(lp108
F16.850391
aF-19.608511
aF-17.095797
aa(lp109
F4.863222
aF-15.371373
aF-19.251776
aa(lp110
F-3.063381
aF-9.579201
aF-12.954427
aa(lp111
F-7.101801
aF-1.4706384
aF-6.9000893
aa(lp112
F-6.3643866
aF2.1015105
aF-5.3857565
aa(lp113
F-8.359954
aF3.127426
aF-6.8103065
aa(lp114
F-7.7907324
aF3.819949
aF-6.8462195
aa(lp115
F-7.1143703
aF3.9163153
aF-8.182783
aaa(lp116
(lp117
F-5.466561
aF4.587889
aF-7.1071877
aa(lp118
F-5.518635
aF4.3837833
aF-6.4182563
aa(lp119
F-5.521029
aF4.3526587
aF-7.367557
aa(lp120
F-6.555923
aF3.9731777
aF-5.5443726
aa(lp121
F-5.8029466
aF3.413533
aF-5.7215433
aa(lp122
F-1.5813702
aF1.1162965
aF-1.0654198
aa(lp123
F3.9797618
aF0.670975
aF-10.428544
aa(lp124
F-1.0845734
aF-4.4125137
aF-19.604322
aa(lp125
F-9.645041
aF-7.8290396
aF-14.055161
aa(lp126
F-9.219472
aF7.216124
aF-19.608511
aa(lp127
F-6.613982
aF14.569915
aF-11.876437
aa(lp128
F19.607914
aF19.608511
aF-15.366585
aa(lp129
F19.607914
aF19.608511
aF12.897565
aa(lp130
F19.607914
aF14.911088
aF15.43901
aa(lp131
F19.607914
aF-4.6776714
aF14.044387
aa(lp132
F19.607914
aF-14.730326
aF1.8183962
aa(lp133
F19.607914
aF-19.608511
aF-16.721106
aa(lp134
F16.540941
aF-19.608511
aF-19.608511
aa(lp135
F2.8173769
aF-10.694301
aF-10.619482
aa(lp136
F-8.802881
aF1.6861166
aF-8.622718
aa(lp137
F-6.3272767
aF3.8432922
aF-8.132504
aa(lp138
F-8.807071
aF0.64942724
aF-4.956596
aaa(lp139
(lp140
F-6.1967926
aF3.2722752
aF-6.4302273
aa(lp141
F-5.392939
aF3.9228995
aF-7.2634096
aa(lp142
F-4.9524064
aF3.58412
aF-5.8203044
aa(lp143
F-3.8672342
aF3.3375173
aF-5.8921304
aa(lp144
F-1.2162545
aF1.9183542
aF-5.317522
aa(lp145
F-2.018312
aF-1.7890673
aF-10.373477
aa(lp146
F-3.1950622
aF-5.762245
aF-13.323732
aa(lp147
F-3.58412
aF-2.517503
aF-11.88362
aa(lp148
F-3.25372
aF6.9252286
aF-18.770542
aa(lp149
F-9.711481
aF10.539276
aF-18.463486
aa(lp150
F-2.5779567
aF13.728951
aF-14.085687
aa(lp151
F15.928624
aF19.608511
aF-8.937555
aa(lp152
F19.607914
aF19.608511
aF-7.1460934
aa(lp153
F19.607914
aF19.608511
aF19.290682
aa(lp154
F19.607914
aF-2.6132712
aF6.606201
aa(lp155
F19.607914
aF-10.202292
aF3.7870286
aa(lp156
F19.607914
aF-19.608511
aF-2.154183
aa(lp157
F19.607914
aF-19.608511
aF-13.7127905
aa(lp158
F12.709022
aF-19.608511
aF-6.4463882
aa(lp159
F2.8407204
aF-19.608511
aF-13.356054
aa(lp160
F-3.1884782
aF-12.873623
aF-6.9743094
aa(lp161
F-3.5775359
aF-5.032612
aF-10.242394
aa(lp162
F-4.176685
aF-1.5454572
aF-7.419631
aa(lp163
F-6.509236
aF1.8357542
aF-6.576872
aa(lp164
F-7.1586633
aF2.006341
aF-6.1782374
aa(lp165
F-5.7808
aF3.8750155
aF-7.864354
aa(lp166
F-5.8292828
aF5.0158525
aF-7.9571295
aa(lp167
F-6.7887588
aF4.5244427
aF-7.297527
aaa(lp168
(lp169
F-6.073491
aF3.5230677
aF-7.2227077
aa(lp170
F-5.6904187
aF3.7140055
aF-7.359776
aa(lp171
F-6.2105594
aF3.0346506
aF-7.026982
aa(lp172
F-6.55712
aF3.269881
aF-7.1125746
aa(lp173
F-5.415086
aF3.4626143
aF-6.8252707
aa(lp174
F-2.8042088
aF4.502895
aF-7.379528
aa(lp175
F-1.5646108
aF3.0538042
aF-5.6539073
aa(lp176
F3.4452562
aF-0.30107087
aF-8.233061
aa(lp177
F-0.8858546
aF-5.349245
aF-6.9892735
aa(lp178
F-4.180875
aF-5.1319714
aF-16.477495
aa(lp179
F-4.7656584
aF10.301053
aF-17.96609
aa(lp180
F-9.3738985
aF19.56003
aF-14.604032
aa(lp181
F-5.495291
aF19.608511
aF-19.515738
aa(lp182
F12.666524
aF19.608511
aF-6.5487404
aa(lp183
F19.607914
aF19.608511
aF-9.176975
aa(lp184
F19.607914
aF19.57619
aF19.608511
aa(lp185
F19.607914
aF5.8424506
aF9.924564
aa(lp186
F19.607914
aF-2.2583308
aF-2.4049757
aa(lp187
F19.607914
aF-19.608511
aF-10.856507
aa(lp188
F19.607914
aF-19.608511
aF-19.395428
aa(lp189
F11.520899
aF-18.340183
aF-15.256452
aa(lp190
F-1.1438298
aF-9.422979
aF-11.142614
aa(lp191
F-2.6515784
aF-0.7338228
aF-9.050082
aa(lp192
F-6.76781
aF-0.30226797
aF-5.348048
aa(lp193
F-5.3265004
aF4.220379
aF-8.130709
aa(lp194
F-7.547721
aF2.7144263
aF-7.8469963
aa(lp195
F-7.029975
aF2.220622
aF-7.472902
aa(lp196
F-6.880337
aF1.9381063
aF-8.000225
aa(lp197
F-6.779182
aF2.27928
aF-7.309498
aa(lp198
F-6.5601125
aF2.6964695
aF-6.535572
aa(lp199
F-5.9597664
aF2.5923219
aF-7.253234
aaa(lp200
(lp201
F-6.060323
aF3.5416229
aF-7.216124
aa(lp202
F-6.0956373
aF3.4506433
aF-7.1131735
aa(lp203
F-5.7562594
aF3.9187095
aF-7.2262993
aa(lp204
F-6.079477
aF3.7140055
aF-7.1766195
aa(lp205
F-6.1501055
aF3.1052797
aF-6.818088
aa(lp206
F-5.121197
aF3.4871547
aF-7.6608467
aa(lp207
F-5.3857565
aF2.5773582
aF-6.2925606
aa(lp208
F-5.8226986
aF0.18136078
aF-4.4394484
aa(lp209
F-2.8107927
aF3.2243912
aF-5.2618566
aa(lp210
F-1.6118963
aF6.8665705
aF-7.513005
aa(lp211
F-3.5464113
aF1.0013748
aF-8.774749
aa(lp212
F-6.4338183
aF-11.541249
aF-16.816275
aa(lp213
F-8.944737
aF-8.673594
aF-15.766417
aa(lp214
F-11.637616
aF9.059061
aF-19.608511
aa(lp215
F-7.2490444
aF17.68118
aF-0.98820674
aa(lp216
F15.251663
aF19.608511
aF-14.719552
aa(lp217
F19.607914
aF19.608511
aF4.1635165
aa(lp218
F19.607914
aF19.608511
aF13.325528
aa(lp219
F19.607914
aF3.716998
aF14.318523
aa(lp220
F19.607914
aF-15.067908
aF11.204266
aa(lp221
F19.607914
aF-19.608511
aF-4.39755
aa(lp222
F19.607914
aF-19.608511
aF-19.322405
aa(lp223
F1.8303672
aF-19.608511
aF-9.858724
aa(lp224
F-1.5029601
aF-11.461043
aF-7.363966
aa(lp225
F-3.82773
aF-4.957195
aF-6.3985043
aa(lp226
F-2.6473885
aF3.781043
aF-8.422802
aa(lp227
F-5.4444146
aF3.526659
aF-6.5750766
aa(lp228
F-6.531382
aF1.435324
aF-9.223063
aa(lp229
F-6.271013
aF3.2597055
aF-8.913613
aa(lp230
F-7.6285253
aF1.6466122
aF-8.261791
aa(lp231
F-6.841431
aF2.5079262
aF-7.4806833
aaa(lp232
(lp233
F-4.1982327
aF4.335301
aF-7.4525514
aa(lp234
F-5.0517654
aF3.6379895
aF-6.6762314
aa(lp235
F-5.0906715
aF3.9414546
aF-6.7803793
aa(lp236
F-5.886145
aF3.916914
aF-5.4025164
aa(lp237
F-4.417302
aF3.9624038
aF-6.194997
aa(lp238
F-3.554791
aF2.9317
aF-8.883685
aa(lp239
F-2.0805612
aF2.9137435
aF-10.198102
aa(lp240
F-1.567005
aF0.87448215
aF-11.46224
aa(lp241
F-3.912724
aF-4.1916485
aF-13.046005
aa(lp242
F-11.562199
aF-11.42094
aF-11.766304
aa(lp243
F-7.330447
aF1.6166847
aF-17.03235
aa(lp244
F-12.949039
aF9.221867
aF-11.703457
aa(lp245
F7.077859
aF19.608511
aF-10.208876
aa(lp246
F19.607914
aF19.608511
aF-2.8538885
aa(lp247
F19.607914
aF19.608511
aF-7.3885064
aa(lp248
F17.85476
aF19.608511
aF8.74961
aa(lp249
F19.607914
aF11.526884
aF6.743868
aa(lp250
F19.607914
aF-2.8538885
aF4.0306387
aa(lp251
F19.607914
aF-12.806585
aF-7.7081323
aa(lp252
F19.607914
aF-19.608511
aF-8.746617
aa(lp253
F13.75828
aF-19.608511
aF-13.571532
aa(lp254
F2.2212207
aF-15.706562
aF-8.345589
aa(lp255
F-2.7449522
aF-9.1668
aF-10.13705
aa(lp256
F-4.235343
aF-2.5384524
aF-8.46051
aa(lp257
F-7.5028296
aF0.6194997
aF-9.197326
aa(lp258
F-8.175002
aF3.1322143
aF-5.53719
aa(lp259
F-8.078635
aF4.31076
aF-7.5525093
aaa(lp260
(lp261
F-5.8244944
aF3.21661
aF-6.8162923
aa(lp262
F-4.7518916
aF3.6894648
aF-6.8043213
aa(lp263
F-4.654328
aF3.1184478
aF-5.8598084
aa(lp264
F-3.6104562
aF1.685518
aF-5.663484
aa(lp265
F-0.54049104
aF0.7457938
aF-7.062895
aa(lp266
F-2.8808231
aF-11.798626
aF-19.608511
aa(lp267
F-19.60911
aF-14.917073
aF-0.9271546
aa(lp268
F-13.696031
aF14.200609
aF-19.608511
aa(lp269
F-6.275801
aF12.16853
aF-6.3871317
aa(lp270
F19.607914
aF19.608511
aF-19.435532
aa(lp271
F19.607914
aF19.608511
aF-16.433203
aa(lp272
F19.607914
aF16.14051
aF16.109985
aa(lp273
F19.607914
aF-1.6819267
aF14.922461
aa(lp274
F19.607914
aF-19.195513
aF3.3357215
aa(lp275
F19.607914
aF-19.608511
aF-11.074979
aa(lp276
F7.9553337
aF-19.608511
aF-10.33936
aa(lp277
F3.7140055
aF-17.40465
aF-9.883265
aa(lp278
F-3.117849
aF-9.111733
aF-7.5028296
aa(lp279
F-5.2008047
aF1.79206
aF-7.349002
aa(lp280
F-8.701726
aF2.1152773
aF-8.264784
aa(lp281
F-10.910975
aF2.6521769
aF-5.2660465
aa(lp282
F-8.041525
aF4.2503066
aF-6.9988503
aaa(lp283
(lp284
F-5.0014873
aF5.0242324
aF-6.979098
aa(lp285
F-4.4406457
aF5.073912
aF-7.5704656
aa(lp286
F-4.957793
aF4.7830167
aF-6.6882024
aa(lp287
F-4.168904
aF5.075109
aF-7.349002
aa(lp288
F-3.6619315
aF4.721366
aF-6.329072
aa(lp289
F-3.4781766
aF3.916914
aF-6.191406
aa(lp290
F-1.6711528
aF-0.04070143
aF-8.306085
aa(lp291
F-3.6942532
aF-15.631145
aF-19.608511
aa(lp292
F-19.60911
aF-19.401413
aF-19.608511
aa(lp293
F-15.91366
aF8.455123
aF-19.608511
aa(lp294
F19.607914
aF19.608511
aF-17.021578
aa(lp295
F19.607914
aF19.608511
aF-1.6903064
aa(lp296
F19.607914
aF19.608511
aF13.71698
aa(lp297
F19.607914
aF-17.624317
aF19.608511
aa(lp298
F19.607914
aF-19.608511
aF7.9391727
aa(lp299
F19.607914
aF-19.608511
aF-19.422962
aa(lp300
F3.9282866
aF-19.608511
aF-15.098434
aa(lp301
F2.8269536
aF4.1599255
aF-3.982156
aa(lp302
F-8.969876
aF8.078036
aF-3.9630024
aa(lp303
F-10.973225
aF6.365584
aF-4.789002
aa(lp304
F-10.983999
aF7.6506715
aF-1.1264719
aa(lp305
F-8.563461
aF4.9344497
aF-9.188348
aa(lp306
F-7.2083426
aF3.481768
aF-5.54138
aa(lp307
F-5.7670336
aF3.4003649
aF-8.1558485
aaa(lp308
(lp309
F-6.0166287
aF2.80361
aF-8.261193
aa(lp310
F-5.945401
aF2.610877
aF-6.481104
aa(lp311
F-5.099051
aF3.1531637
aF-6.8707604
aa(lp312
F-3.2190042
aF4.410718
aF-5.9962783
aa(lp313
F1.1474211
aF3.3039982
aF-3.2016463
aa(lp314
F-3.177704
aF-3.0765493
aF-11.967417
aa(lp315
F-7.342418
aF-13.693038
aF-17.207129
aa(lp316
F-11.95784
aF-14.117411
aF-12.557588
aa(lp317
F-12.334329
aF11.407174
aF-19.608511
aa(lp318
F-8.404845
aF12.063784
aF-14.638149
aa(lp319
F19.607914
aF19.608511
aF-19.457678
aa(lp320
F19.607914
aF19.608511
aF4.2521024
aa(lp321
F19.607914
aF18.274343
aF11.87943
aa(lp322
F19.607914
aF1.049259
aF11.542446
aa(lp323
F19.607914
aF-19.608511
aF-0.29388827
aa(lp324
F19.607914
aF-19.608511
aF-19.608511
aa(lp325
F8.776545
aF-19.608511
aF-13.748703
aa(lp326
F3.3542767
aF-14.399926
aF-9.234436
aa(lp327
F0.12030864
aF-0.37588966
aF-12.120048
aaa(lp328
(lp329
F-6.251859
aF3.3273418
aF-6.6085954
aa(lp330
F-6.655881
aF3.0190883
aF-6.2889695
aa(lp331
F-6.0758853
aF3.1824925
aF-7.270592
aa(lp332
F-3.9294837
aF3.9073372
aF-7.5345526
aa(lp333
F-2.0284874
aF2.914342
aF-2.7246015
aa(lp334
F1.5406688
aF3.3183637
aF-13.391369
aa(lp335
F-4.097078
aF-0.6757634
aF-6.493075
aa(lp336
F-9.509171
aF-4.5741224
aF-13.44883
aa(lp337
F-19.60911
aF-12.17272
aF-9.325416
aa(lp338
F-19.60911
aF16.476896
aF-5.4007206
aa(lp339
F-1.2455834
aF19.506758
aF-12.20564
aa(lp340
F19.607914
aF19.608511
aF-4.903325
aa(lp341
F19.607914
aF19.608511
aF1.6178818
aa(lp342
F19.607914
aF-1.4389153
aF17.786524
aa(lp343
F19.607914
aF-19.608511
aF2.7682958
aa(lp344
F19.607914
aF-19.608511
aF-8.004415
aa(lp345
F19.513342
aF-19.608511
aF-7.781754
aa(lp346
F8.452729
aF-19.608511
aF-16.931196
aa(lp347
F1.0749966
aF-2.873042
aF-6.4643445
aa(lp348
F-2.3493104
aF8.249821
aF-1.8842367
aa(lp349
F-8.195353
aF9.282919
aF-0.46567222
aa(lp350
F-13.778631
aF6.4882865
aF3.0101101
aa(lp351
F-10.949283
aF7.0952168
aF-7.9595237
aa(lp352
F-11.364676
aF4.485537
aF-2.5797524
aa(lp353
F-7.8224554
aF3.5990837
aF-9.051279
aaa(lp354
(lp355
F-4.501099
aF5.118803
aF-6.9826894
aa(lp356
F-5.9489927
aF4.0384197
aF-5.825093
aa(lp357
F-5.081693
aF4.312556
aF-7.398083
aa(lp358
F-4.285621
aF4.1814733
aF-5.617396
aa(lp359
F-2.2212207
aF3.4985273
aF-6.2728086
aa(lp360
F-1.2234371
aF0.5494693
aF-7.0946183
aa(lp361
F-6.037578
aF-8.13849
aF-18.93215
aa(lp362
F-19.60911
aF-16.166847
aF-13.9677725
aa(lp363
F-17.791313
aF7.98167
aF-19.608511
aa(lp364
F9.021352
aF16.001049
aF-13.080122
aa(lp365
F19.607914
aF19.608511
aF7.8649526
aa(lp366
F19.607914
aF19.608511
aF17.518972
aa(lp367
F19.607914
aF-2.0009542
aF19.608511
aa(lp368
F19.607914
aF-19.608511
aF4.2676644
aa(lp369
F19.607914
aF-19.608511
aF-19.608511
aa(lp370
F12.503718
aF-19.249382
aF-3.757101
aa(lp371
F-1.4993688
aF-0.320823
aF-9.291897
aa(lp372
F-10.026319
aF5.734113
aF-3.044826
aa(lp373
F-16.424822
aF1.46585
aF-4.3478703
aa(lp374
F-11.477803
aF8.0924015
aF-2.369661
aa(lp375
F-7.4746976
aF5.0421886
aF-10.149021
aa(lp376
F-9.536105
aF2.146402
aF-4.748899
aa(lp377
F-5.655703
aF4.2957964
aF-10.81461
aa(lp378
F-7.5387425
aF1.9536686
aF-5.4162827
aa(lp379
F-5.559935
aF4.132991
aF-5.6946087
aaa(lp380
(lp381
F-6.9000893
aF3.6355953
aF-6.43741
aa(lp382
F-6.640917
aF3.9953241
aF-6.2464724
aa(lp383
F-5.8532248
aF4.1419687
aF-6.6469026
aa(lp384
F-4.6591167
aF3.6008794
aF-6.2584434
aa(lp385
F-2.6725276
aF2.6713305
aF1.0480618
aa(lp386
F0.24241292
aF0.6865373
aF-11.449073
aa(lp387
F-4.4777555
aF-13.066356
aF-19.607315
aa(lp388
F-6.4380083
aF-13.591285
aF-19.608511
aa(lp389
F-13.735536
aF12.23437
aF-19.393633
aa(lp390
F19.607914
aF19.608511
aF-18.44493
aa(lp391
F19.607914
aF19.608511
aF-8.763377
aa(lp392
F19.607914
aF19.608511
aF14.504074
aa(lp393
F19.607914
aF-8.666411
aF13.581708
aa(lp394
F19.607914
aF-19.608511
aF-9.600749
aa(lp395
F19.607914
aF-19.608511
aF-13.755287
aa(lp396
F14.49749
aF-19.608511
aF-11.762115
aa(lp397
F-2.8820202
aF-10.726024
aF-11.1893015
aa(lp398
F-7.9212165
aF-1.7896658
aF-9.061455
aa(lp399
F-10.907983
aF1.9590555
aF-2.6749218
aa(lp400
F-10.596737
aF4.8614264
aF-5.4521956
aa(lp401
F-13.028647
aF1.4856021
aF-5.695207
aa(lp402
F-5.6904187
aF4.6363716
aF-9.124901
aa(lp403
F-8.4587145
aF1.644218
aF-7.1993647
aa(lp404
F-5.3887496
aF3.8744168
aF-8.255806
aa(lp405
F-6.401497
aF2.570774
aF-5.0308166
aa(lp406
F-4.617218
aF3.0334535
aF-8.3868885
aa(lp407
F-6.421249
aF2.995745
aF-6.425439
aaa(lp408
(lp409
F-6.3464303
aF3.4608185
aF-7.1227503
aa(lp410
F-6.127361
aF3.9695864
aF-7.0646906
aa(lp411
F-6.9707184
aF3.899556
aF-7.8428063
aa(lp412
F-7.417835
aF2.7455509
aF-7.817667
aa(lp413
F-2.9945478
aF5.844845
aF-7.7530236
aa(lp414
F1.2659341
aF4.6471453
aF-0.0047884034
aa(lp415
F1.5975311
aF0.98341835
aF-2.919729
aa(lp416
F-4.184466
aF-7.7207017
aF-16.416443
aa(lp417
F-19.08957
aF-17.87511
aF-19.608511
aa(lp418
F-15.303139
aF12.542026
aF-19.608511
aa(lp419
F-16.377537
aF15.646108
aF-19.56003
aa(lp420
F19.607914
aF19.608511
aF-12.716803
aa(lp421
F19.607914
aF19.608511
aF16.381727
aa(lp422
F19.607914
aF19.608511
aF3.1226375
aa(lp423
F19.607914
aF0.4758476
aF19.390041
aa(lp424
F19.607914
aF-19.608511
aF8.062474
aa(lp425
F19.607914
aF-19.608511
aF-19.608511
aa(lp426
F15.533581
aF-19.608511
aF-8.166023
aa(lp427
F0.80684596
aF-14.624383
aF-10.773309
aa(lp428
F-6.284181
aF-1.6705543
aF2.5420437
aa(lp429
F-6.8767457
aF6.377555
aF-3.0627825
aa(lp430
F-12.325949
aF-0.33877954
aF0.06943185
aaa(lp431
(lp432
F-6.8982935
aF3.9803603
aF-5.929839
aa(lp433
F-6.071097
aF4.3329067
aF-6.2704144
aa(lp434
F-5.8466406
aF4.4993033
aF-7.414244
aa(lp435
F-6.294955
aF3.9133227
aF-6.8988924
aa(lp436
F-5.431845
aF3.7313633
aF-6.1728506
aa(lp437
F-3.8989575
aF3.2854433
aF-3.9001546
aa(lp438
F1.0690111
aF2.4779987
aF-3.1789012
aa(lp439
F-1.192911
aF-1.4993688
aF-12.865243
aa(lp440
F-1.9973627
aF-3.8031895
aF-13.376405
aa(lp441
F-15.737088
aF-16.669031
aF-19.608511
aa(lp442
F-16.088436
aF9.003994
aF-19.036896
aa(lp443
F-9.683948
aF16.315287
aF-19.54327
aa(lp444
F19.607914
aF19.608511
aF-16.64449
aa(lp445
F19.607914
aF19.608511
aF19.608511
aa(lp446
F19.607914
aF19.608511
aF19.608511
aa(lp447
F19.607914
aF-19.533094
aF19.55105
aa(lp448
F19.607914
aF-19.608511
aF11.438897
aa(lp449
F18.359337
aF-19.608511
aF-7.3926964
aa(lp450
F2.6599581
aF-15.231912
aF-11.350311
aa(lp451
F-2.3265655
aF-3.208829
aF-7.839813
aa(lp452
F-5.056554
aF6.101623
aF-6.3141084
aa(lp453
F-7.89907
aF6.1010246
aF-0.736217
aa(lp454
F-11.492168
aF2.6719291
aF-5.5347958
aa(lp455
F-8.377911
aF5.2026005
aF-4.6782703
aa(lp456
F-9.245809
aF1.1695676
aF-8.247426
aa(lp457
F-5.9837084
aF3.9163153
aF-7.008427
aaa(lp458
(lp459
F-6.870162
aF3.1106665
aF-6.229713
aa(lp460
F-6.229114
aF3.5583823
aF-6.4960675
aa(lp461
F-4.606444
aF3.163339
aF-5.5084596
aa(lp462
F-2.461838
aF0.919972
aF-5.6946087
aa(lp463
F-1.8459295
aF-5.233126
aF-8.676587
aa(lp464
F-6.0208187
aF-11.649587
aF-19.608511
aa(lp465
F-19.565416
aF-14.219164
aF-16.928204
aa(lp466
F-18.90282
aF10.573393
aF-19.608511
aa(lp467
F19.586365
aF19.49
aF-17.107769
aa(lp468
F19.607914
aF19.608511
aF10.33517
aa(lp469
F19.607914
aF19.608511
aF17.420212
aa(lp470
F19.607914
aF-2.1242554
aF19.608511
aa(lp471
F19.607914
aF-19.608511
aF5.8280854
aa(lp472
F19.607914
aF-19.608511
aF-10.251373
aa(lp473
F19.607914
aF-19.608511
aF-7.73387
aa(lp474
F14.396934
aF-19.572
aF-16.48408
aa(lp475
F-5.8065376
aF-10.868479
aF-8.568848
aa(lp476
F-12.258911
aF-7.328053
aF-4.0946836
aa(lp477
F-9.285912
aF-0.15023616
aF-9.264363
aa(lp478
F-9.482236
aF3.2489316
aF-6.4828997
aa(lp479
F-8.519767
aF4.2299557
aF-6.247669
aa(lp480
F-7.73806
aF2.5677812
aF-6.871359
aa(lp481
F-6.4242415
aF2.6036944
aF-6.2781954
aaa(lp482
(lp483
F-5.443816
aF3.2620997
aF-7.2634096
aa(lp484
F-4.51726
aF3.413533
aF-5.846042
aa(lp485
F-2.2559366
aF1.5735891
aF-5.895722
aa(lp486
F-1.7711107
aF-1.2000936
aF-6.5445504
aa(lp487
F-3.503914
aF-6.3943143
aF-13.655928
aa(lp488
F-19.60911
aF-19.608511
aF-19.608511
aa(lp489
F-19.60911
aF0.5638345
aF-19.608511
aa(lp490
F-6.293758
aF16.600197
aF-16.798317
aa(lp491
F19.607914
aF19.608511
aF13.556568
aa(lp492
F19.607914
aF19.608511
aF18.012178
aa(lp493
F19.607914
aF-3.5805287
aF19.608511
aa(lp494
F19.607914
aF-19.608511
aF2.054225
aa(lp495
F19.607914
aF-19.608511
aF-11.320384
aa(lp496
F9.633669
aF-18.978836
aF-15.606006
aa(lp497
F-2.510919
aF-6.4948707
aF-6.0609217
aa(lp498
F-6.7971387
aF-1.2318168
aF-9.705495
aa(lp499
F-8.858546
aF-0.53809685
aF-10.518327
aa(lp500
F-13.086108
aF1.8052281
aF-2.0518308
aa(lp501
F-7.7506294
aF5.1636944
aF-10.627861
aa(lp502
F-11.105505
aF0.56982
aF-4.1545386
aa(lp503
F-4.8500543
aF3.12982
aF-9.61691
aa(lp504
F-7.4974427
aF0.9888053
aF-6.1123967
aaa(lp505
(lp506
F-6.6026096
aF3.1262288
aF-6.3482256
aa(lp507
F-6.3889275
aF3.4763808
aF-7.2711906
aa(lp508
F-7.221511
aF2.9700072
aF-7.28376
aa(lp509
F-7.116166
aF3.1465795
aF-7.3603745
aa(lp510
F-5.2941785
aF4.140772
aF-5.427057
aa(lp511
F-2.861071
aF4.5406036
aF-4.109049
aa(lp512
F1.4443022
aF1.1294646
aF-1.7154455
aa(lp513
F-1.4867992
aF-5.294777
aF-13.694235
aa(lp514
F-5.044583
aF-17.538725
aF-19.608511
aa(lp515
F-5.6156
aF-14.556148
aF-19.608511
aa(lp516
F-13.669695
aF15.462353
aF-19.608511
aa(lp517
F19.607914
aF19.608511
aF-19.608511
aa(lp518
F19.607914
aF19.608511
aF2.8844144
aa(lp519
F19.607914
aF19.608511
aF17.520767
aa(lp520
F19.607914
aF-0.7721301
aF19.608511
aa(lp521
F19.607914
aF-19.608511
aF11.171345
aa(lp522
F-8.851962
aF3.6355953
aF-6.3165026
aa(lp523
F-8.192958
aF4.2820296
aF-6.3392477
aa(lp524
F-7.9463553
aF3.6056678
aF-6.281188
aa(lp525
F-6.773795
aF3.9211037
aF-8.109759
aa(lp526
F-6.891111
aF2.7042508
aF-6.2009826
aaa(lp527
(lp528
F-6.2249246
aF3.875614
aF-6.9371996
aa(lp529
F-6.63972
aF3.558981
aF-6.5984197
aa(lp530
F-6.4643445
aF3.9426517
aF-6.7211227
aa(lp531
F-6.3913217
aF4.2916064
aF-6.0884547
aa(lp532
F-3.4081461
aF4.624999
aF-3.5362358
aa(lp533
F0.48243165
aF1.38325
aF-0.38845924
aa(lp534
F-0.14903906
aF-0.7667431
aF-10.526707
aa(lp535
F-3.6284127
aF-8.707113
aF-17.472286
aa(lp536
F-5.031415
aF-13.846267
aF-19.608511
aa(lp537
F-8.12592
aF11.596316
aF-19.608511
aa(lp538
F-6.7091517
aF13.187861
aF-15.860988
aa(lp539
F19.607914
aF19.608511
aF0.18674773
aa(lp540
F19.607914
aF19.608511
aF18.832191
aa(lp541
F19.607914
aF-1.9339164
aF17.575834
aa(lp542
F19.607914
aF-18.190546
aF15.146318
aa(lp543
F19.607914
aF-19.608511
aF-10.221446
aa(lp544
F13.288418
aF-19.608511
aF-14.211981
aa(lp545
F-3.3494883
aF-12.954427
aF-11.166556
aa(lp546
F-1.7286136
aF-3.5577838
aF-12.0571995
aa(lp547
F-3.5404258
aF2.3529017
aF-5.443816
aa(lp548
F-8.421604
aF0.89782566
aF-5.33069
aa(lp549
F-7.0964136
aF1.8171991
aF-6.6469026
aa(lp550
F-8.401254
aF1.2156559
aF-3.7122097
aa(lp551
F-8.100183
aF1.7298107
aF-7.128137
aa(lp552
F-8.420407
aF1.4694413
aF-6.559514
aa(lp553
F-7.4806833
aF3.2878375
aF-5.29777
aaa(lp554
(lp555
F-6.7013707
aF1.6657659
aF-6.627749
aa(lp556
F-6.651691
aF1.6160861
aF-6.6205664
aa(lp557
F-6.345233
aF1.95307
aF-6.6361284
aa(lp558
F-5.068525
aF1.9081788
aF-5.5910597
aa(lp559
F-4.4328647
aF0.7110779
aF-5.3833623
aa(lp560
F-4.1880574
aF-0.7098808
aF-7.699154
aa(lp561
F-4.0857053
aF-2.6659436
aF-9.118916
aa(lp562
F-2.7832594
aF-2.2990322
aF-13.825317
aa(lp563
F-4.073136
aF-0.9163807
aF-9.424775
aa(lp564
F-4.4639893
aF6.033388
aF-15.50485
aa(lp565
F-1.6795325
aF10.5919485
aF-14.817116
aa(lp566
F6.019622
aF15.445594
aF-6.3643866
aa(lp567
F16.251242
aF19.448698
aF-16.050129
aa(lp568
F17.373524
aF19.608511
aF-3.3303347
aa(lp569
F15.336059
aF19.177555
aF-0.3549404
aa(lp570
F15.939997
aF11.572374
aF-2.010531
aa(lp571
F19.607914
aF2.4271219
aF-1.7088615
aa(lp572
F19.607914
aF-1.9829975
aF-5.133767
aa(lp573
F19.607914
aF-9.279925
aF-9.492412
aa(lp574
F19.607914
aF-12.832322
aF-8.990826
aa(lp575
F14.624383
aF-13.919291
aF-12.212823
aa(lp576
F9.02614
aF-11.37186
aF-10.833164
aa(lp577
F0.11432313
aF-13.057378
aF-11.920132
aa(lp578
F-3.4751837
aF-6.904279
aF-9.651626
aa(lp579
F-5.2516813
aF-4.279037
aF-12.274473
aa(lp580
F-7.4669166
aF-2.3145945
aF-4.784812
aa(lp581
F-7.1706343
aF0.97623575
aF-7.1604586
aa(lp582
F-9.519346
aF-0.635062
aF-5.755062
aa(lp583
F-7.5507135
aF1.0247183
aF-9.916184
aaa(lp584
(lp585
F-6.6600704
aF2.018312
aF-7.241263
aa(lp586
F-6.9132576
aF1.7669208
aF-6.3943143
aa(lp587
F-6.640917
aF1.5999253
aF-7.0784574
aa(lp588
F-7.007828
aF1.3275849
aF-6.549339
aa(lp589
F-6.771401
aF1.5640123
aF-6.7079544
aa(lp590
F-6.995259
aF1.3305776
aF-6.647501
aa(lp591
F-6.831256
aF1.3245921
aF-6.6630635
aa(lp592
F-6.7642183
aF1.7328035
aF-6.7480574
aa(lp593
F-6.3769565
aF1.678934
aF-6.7091517
aa(lp594
F-5.604826
aF1.8351556
aF-6.1824274
aa(lp595
F-4.4915223
aF0.74639237
aF-4.951209
aa(lp596
F-3.6661212
aF-1.9710265
aF-5.653309
aa(lp597
F-4.1060557
aF-9.680955
aF-10.43872
aa(lp598
F-7.394492
aF-17.351377
aF-16.514006
aa(lp599
F-7.41185
aF-11.128848
aF-10.927735
aa(lp600
F-7.756615
aF9.078215
aF-19.608511
aa(lp601
F13.194446
aF19.608511
aF-17.497425
aa(lp602
F19.356522
aF19.608511
aF-15.241488
aa(lp603
F19.607914
aF19.608511
aF-4.137779
aa(lp604
F19.607914
aF13.208212
aF7.5644803
aa(lp605
F19.607914
aF-1.3060371
aF3.2662897
aa(lp606
F19.607914
aF-13.032238
aF-2.6282349
aa(lp607
F17.342999
aF-19.608511
aF-6.1219735
aa(lp608
F16.551117
aF-12.588713
aF-15.738285
aa(lp609
F9.115923
aF-12.7096195
aF-8.857947
aa(lp610
F4.9063177
aF-7.9571295
aF-15.473127
aa(lp611
F-2.7216089
aF-6.7324953
aF-8.392874
aa(lp612
F-3.5236664
aF-4.000711
aF-10.470443
aa(lp613
F-7.4004774
aF-5.3941364
aF-7.079056
aa(lp614
F-8.805874
aF-2.654571
aF-6.0782795
aaa(lp615
(lp616
F-6.2141504
aF2.0231004
aF-7.026982
aa(lp617
F-6.217143
aF1.7142484
aF-7.03596
aa(lp618
F-5.6347537
aF1.9015948
aF-7.2448545
aa(lp619
F-4.7201686
aF1.5286977
aF-5.6365495
aa(lp620
F-2.767697
aF0.1376666
aF-5.4623713
aa(lp621
F-2.7736826
aF-4.200627
aF-9.176376
aa(lp622
F-6.35062
aF-10.601525
aF-8.368334
aa(lp623
F-6.9383965
aF-4.9039235
aF-12.989741
aa(lp624
F-11.589133
aF1.8411411
aF-11.873445
aa(lp625
F-10.978013
aF8.870518
aF-17.117943
aa(lp626
F13.380595
aF19.608511
aF-17.938557
aa(lp627
F19.607914
aF19.608511
aF-8.511986
aa(lp628
F19.607914
aF19.608511
aF5.1200004
aa(lp629
F19.607914
aF1.5304934
aF0.6171055
aa(lp630
F19.607914
aF-4.933253
aF-2.1697452
aa(lp631
F19.607914
aF-15.245678
aF-5.4922986
aa(lp632
F19.35772
aF-16.411055
aF-13.266272
aa(lp633
F12.392986
aF-17.029957
aF-13.3147545
aa(lp634
F4.3957543
aF-11.736976
aF-12.191874
aa(lp635
F-2.380435
aF-10.548853
aF-11.452663
aa(lp636
F-3.7828386
aF-4.944625
aF-9.547478
aa(lp637
F-5.5802855
aF-0.16340427
aF-9.449914
aa(lp638
F-8.777742
aF-0.29149407
aF-4.871003
aa(lp639
F-7.6189485
aF0.3357868
aF-8.494029
aa(lp640
F-7.9307933
aF0.43873745
aF-6.353613
aaa(lp641
(lp642
F-6.8306575
aF2.0015526
aF-6.475717
aa(lp643
F-6.31351
aF2.3235726
aF-7.1065893
aa(lp644
F-6.0651116
aF2.428319
aF-6.4122705
aa(lp645
F-5.7418942
aF2.2942438
aF-6.75524
aa(lp646
F-5.5856724
aF1.1504139
aF-5.8226986
aa(lp647
F-4.0294414
aF1.3706805
aF-7.9355817
aa(lp648
F-5.0122614
aF0.29328972
aF-6.11539
aa(lp649
F-5.2648497
aF0.0023942017
aF-8.843582
aa(lp650
F-8.1959505
aF-2.5145104
aF-9.43914
aa(lp651
F-10.04607
aF2.9975405
aF-13.752893
aa(lp652
F-16.937181
aF6.007052
aF0.4417302
aa(lp653
F-12.834717
aF14.137761
aF-6.1165867
aa(lp654
F-9.630077
aF15.952566
aF-2.835932
aa(lp655
F10.603919
aF19.608511
aF-4.71957
aa(lp656
F19.218258
aF19.608511
aF-11.909358
aa(lp657
F17.063475
aF18.760366
aF2.291251
aa(lp658
F19.583372
aF8.747216
aF3.8181531
aa(lp659
F19.607914
aF2.9173348
aF-3.9653966
aa(lp660
F19.607914
aF-4.845266
aF-11.748347
aa(lp661
F19.607914
aF-14.6602955
aF-15.849615
aa(lp662
F12.874221
aF-13.742119
aF-12.739547
aa(lp663
F3.5116954
aF-13.315951
aF-16.266207
aa(lp664
F-2.1158757
aF-5.583278
aF-12.811972
aa(lp665
F-4.771644
aF-2.961029
aF-11.317391
aa(lp666
F-5.8843493
aF0.37110126
aF-6.399701
aa(lp667
F-7.5770497
aF1.2952632
aF-7.6291237
aa(lp668
F-9.36492
aF0.2088941
aF-6.670246
aa(lp669
F-7.8116817
aF0.9487024
aF-7.169437
aaa(lp670
(lp671
F-7.180211
aF2.484583
aF-5.713164
aa(lp672
F-7.4190326
aF2.4504654
aF-6.269217
aa(lp673
F-7.1371155
aF2.7216089
aF-6.127361
aa(lp674
F-6.6588736
aF2.3169887
aF-5.6886234
aa(lp675
F-5.0505686
aF2.1763294
aF-4.1317935
aa(lp676
F-4.4675803
aF1.6280571
aF-4.6124296
aa(lp677
F-6.007052
aF-0.36990416
aF-8.271368
aa(lp678
F-5.6706667
aF-0.85891986
aF-8.826823
aa(lp679
F-8.428188
aF-2.5432408
aF-10.96664
aa(lp680
F-8.532935
aF-0.6075287
aF-12.418724
aa(lp681
F-7.521983
aF4.6902413
aF-11.073781
aa(lp682
F-9.330204
aF7.825448
aF-8.081029
aa(lp683
F-4.7860093
aF12.374432
aF-8.684368
aa(lp684
F2.9550436
aF16.278177
aF-8.672996
aa(lp685
F10.94629
aF18.882471
aF-12.417527
aa(lp686
F19.607914
aF19.608511
aF-14.234726
aa(lp687
F18.64724
aF19.608511
aF1.1438298
aa(lp688
F19.607914
aF7.714118
aF0.19931729
aa(lp689
F19.607914
aF-2.3229742
aF-1.4323312
aa(lp690
F19.607914
aF-16.222511
aF-7.1867948
aa(lp691
F16.769587
aF-19.608511
aF-10.370484
aa(lp692
F8.549096
aF-19.608511
aF-11.142016
aa(lp693
F1.9973627
aF-15.673641
aF-11.552023
aa(lp694
F-1.697489
aF-11.325771
aF-8.885481
aa(lp695
F-3.5110967
aF-3.904943
aF-9.281721
aa(lp696
F-5.348048
aF-1.8525136
aF-8.257003
aa(lp697
F-6.5361705
aF-0.65062433
aF-8.34499
aaa(lp698
(lp699
F-7.1526775
aF2.8335378
aF-5.9130797
aa(lp700
F-6.5846534
aF2.5013423
aF-6.71394
aa(lp701
F-5.97892
aF2.4714148
aF-7.7907324
aa(lp702
F-5.6000376
aF2.505532
aF-5.81791
aa(lp703
F-5.4180784
aF-3.1998506
aF-9.419987
aa(lp704
F-11.8099985
aF-7.0305734
aF-12.096106
aa(lp705
F-8.483853
aF2.7497406
aF-13.864822
aa(lp706
F-8.620323
aF8.209119
aF-9.766547
aa(lp707
F-1.4460979
aF16.032772
aF1.4856021
aa(lp708
F15.151706
aF19.608511
aF-11.645397
aa(lp709
F19.607914
aF19.608511
aF-10.824784
aa(lp710
F17.031752
aF19.235615
aF3.578733
aa(lp711
F19.607914
aF6.163274
aF2.0799627
aa(lp712
F19.607914
aF0.6973112
aF-3.570952
aa(lp713
F19.607914
aF-9.898827
aF-7.8793178
aa(lp714
F19.607914
aF-12.155961
aF-9.02614
aa(lp715
F17.351377
aF-17.256208
aF-17.94514
aa(lp716
F8.552089
aF-14.269443
aF-9.75697
aa(lp717
F1.2054806
aF-11.294646
aF-19.042881
aa(lp718
F-1.6980876
aF-6.8186865
aF-9.384672
aa(lp719
F-4.404134
aF-0.9139865
aF-10.192716
aa(lp720
F-6.6044054
aF-1.3862427
aF-6.967127
aa(lp721
F-8.213309
aF-0.8439561
aF-8.327033
aa(lp722
F-8.025364
aF0.095768064
aF-6.2165446
aa(lp723
F-8.794501
aF0.3561375
aF-6.321291
aa(lp724
F-8.991425
aF-0.3321955
aF-5.5096564
aa(lp725
F-7.7608047
aF1.1737574
aF-7.2741833
aa(lp726
F-7.8224554
aF-0.2633622
aF-5.5060654
aaa(lp727
(lp728
F-6.4601545
aF1.797447
aF-5.9465985
aa(lp729
F-5.0308166
aF0.40701428
aF-5.011064
aa(lp730
F-1.9788077
aF1.2330139
aF-3.9594111
aa(lp731
F-5.4917
aF-1.3210008
aF-10.438121
aa(lp732
F-4.76087
aF-3.6098576
aF-10.834361
aa(lp733
F-5.0266266
aF-0.88645315
aF-17.527351
aa(lp734
F-9.081207
aF4.9296613
aF-11.465832
aa(lp735
F-9.405023
aF11.307216
aF-12.877812
aa(lp736
F-5.6126075
aF15.765819
aF-6.6852098
aa(lp737
F7.383718
aF19.608511
aF-9.473258
aa(lp738
F11.402985
aF17.952322
aF-12.633005
aa(lp739
F16.352997
aF17.721283
aF-8.180388
aa(lp740
F10.998962
aF-15.924434
aF-11.62744
aa(lp741
F4.747702
aF-13.289615
aF-8.789713
aa(lp742
F-1.8740613
aF-12.538434
aF-11.241376
aa(lp743
F-5.719149
aF-9.403227
aF-8.009203
aa(lp744
F-5.4474072
aF-5.1882353
aF-7.9691005
aa(lp745
F-6.915053
aF-4.530428
aF-6.023213
aa(lp746
F-6.361394
aF-1.4407109
aF-7.7189064
aa(lp747
F-6.7773867
aF-0.20649989
aF-7.7213006
aa(lp748
F-6.537368
aF1.6639702
aF-6.3458314
aa(lp749
F-7.838018
aF1.733402
aF-6.6606693
aaa(lp750
(lp751
F-6.643311
aF1.7304093
aF-6.5744777
aa(lp752
F-6.551733
aF1.7351977
aF-6.877943
aa(lp753
F-5.5988407
aF2.224812
aF-6.6002154
aa(lp754
F-5.8879404
aF1.0049661
aF-5.3007627
aa(lp755
F-4.924873
aF0.5506664
aF-6.6205664
aa(lp756
F-4.458602
aF1.1563994
aF-5.5701103
aa(lp757
F-4.312556
aF0.98581254
aF-8.074445
aa(lp758
F-4.4167037
aF-0.22445641
aF-8.707711
aa(lp759
F-6.341642
aF-2.7617116
aF-10.653599
aa(lp760
F-8.038532
aF0.5470751
aF-9.582193
aa(lp761
F13.054983
aF19.42775
aF-12.896966
aa(lp762
F12.012907
aF14.671668
aF-4.644751
aa(lp763
F11.754931
aF13.0442095
aF-0.56443304
aa(lp764
F12.946646
aF7.0820484
aF-3.6056678
aa(lp765
F15.150508
aF1.941099
aF-4.4502225
aa(lp766
F16.292543
aF-3.3584664
aF-6.017826
aa(lp767
F12.045827
aF-10.06283
aF-9.434352
aa(lp768
F13.223775
aF-7.004237
aF-7.839813
aa(lp769
F6.909666
aF-9.789292
aF-7.6823945
aa(lp770
F5.5204306
aF-7.8368206
aF-14.5088625
aa(lp771
F1.0408791
aF-8.32404
aF-9.096769
aa(lp772
F-1.5358804
aF-4.3065705
aF-10.195109
aa(lp773
F-3.858256
aF-3.982156
aF-11.914146
aa(lp774
F-6.56131
aF-3.3039982
aF-5.4899044
aa(lp775
F-6.9844847
aF-2.244564
aF-10.01734
aaa(lp776
(lp777
F-7.2634096
aF2.3600843
aF-6.1524997
aa(lp778
F-6.8324533
aF2.5486276
aF-5.2205567
aa(lp779
F-5.7586536
aF2.381632
aF-5.6616883
aa(lp780
F-3.608062
aF1.4293385
aF-3.1992521
aa(lp781
F-3.425504
aF0.44113165
aF-6.9461775
aa(lp782
F-4.2640734
aF-0.9684546
aF-8.245032
aa(lp783
F-5.5940523
aF-2.2439656
aF-12.728773
aa(lp784
F-5.590461
aF1.8950106
aF-12.896367
aa(lp785
F-7.3950906
aF9.095572
aF-16.29733
aa(lp786
F-9.697116
aF10.358514
aF-13.34947
aa(lp787
F-3.50152
aF15.10442
aF-12.361862
aa(lp788
F8.637681
aF17.807474
aF-5.46297
aa(lp789
F19.607914
aF19.608511
aF-10.668563
aa(lp790
F16.94975
aF19.608511
aF0.5231331
aa(lp791
F17.12752
aF13.369821
aF1.0181342
aa(lp792
F19.607914
aF-0.43394905
aF-4.445434
aa(lp793
F19.607914
aF-11.418547
aF-9.895834
aa(lp794
F19.607914
aF-12.274473
aF-11.815386
aa(lp795
F13.77504
aF-14.122797
aF-8.56825
aa(lp796
F6.830059
aF-10.703279
aF-8.199542
aa(lp797
F-0.8331822
aF-9.758167
aF-14.176667
aa(lp798
F-4.8099513
aF-8.346188
aF-8.443152
aa(lp799
F-6.953959
aF-5.2846017
aF-8.425795
aa(lp800
F-7.1790137
aF-2.2319946
aF-6.567894
aa(lp801
F-9.475652
aF-0.9415198
aF-6.903681
aa(lp802
F-9.279925
aF1.0839748
aF-5.1241903
aa(lp803
F-9.779716
aF1.4317327
aF-5.241506
aaa.