(lp0
(lp1
(lp2
F6.728904
aF6.3943143
aF-3.5236664
aa(lp3
F6.9246297
aF6.5367694
aF-4.07134
aa(lp4
F6.42903
aF6.375759
aF-3.4464533
aa(lp5
F6.9198413
aF6.4505777
aF-3.7187939
aa(lp6
F7.1981673
aF6.4469867
aF-3.8379054
aa(lp7
F6.4230447
aF6.1848216
aF-3.9923313
aa(lp8
F5.632958
aF5.6760535
aF-3.8780081
aa(lp9
F5.09546
aF5.1876364
aF-4.1706996
aa(lp10
F6.215348
aF6.563704
aF-2.7006595
aa(lp11
F13.181277
aF10.614095
aF-2.3211784
aa(lp12
F19.607914
aF9.301474
aF-11.620258
aa(lp13
F17.991228
aF4.4765587
aF-15.443798
aa(lp14
F6.4685345
aF-3.6595373
aF-15.91785
aa(lp15
F-2.3068132
aF-8.164826
aF-12.099697
aa(lp16
F-7.949348
aF-9.296685
aF-9.066842
aa(lp17
F-2.930503
aF-8.1959505
aF-4.2981906
aa(lp18
F-1.0851719
aF-5.779603
aF2.1110873
aa(lp19
F-0.65062433
aF-3.839701
aF4.080917
aa(lp20
F4.7644615
aF-1.7764976
aF6.4344172
aa(lp21
F10.323798
aF-0.47405192
aF5.765238
aa(lp22
F19.576788
aF2.2098482
aF5.9962783
aa(lp23
F19.607914
aF5.1726727
aF4.173692
aa(lp24
F19.607914
aF5.5300074
aF0.51834464
aa(lp25
F17.845182
aF2.4037786
aF2.802413
aa(lp26
F19.607914
aF0.6631939
aF2.2780828
aa(lp27
F19.607914
aF-4.7518916
aF-9.657611
aa(lp28
F11.139622
aF-3.7235823
aF-19.582176
aa(lp29
F-0.52732295
aF-3.2291796
aF-5.949591
aa(lp30
F-0.33877954
aF0.741604
aF-4.2197804
aa(lp31
F4.502895
aF4.7004166
aF-3.3171666
aa(lp32
F6.2566476
aF7.37055
aF-2.086547
aa(lp33
F7.465121
aF8.615535
aF-1.9422961
aa(lp34
F7.0036387
aF8.389881
aF-1.3730747
aaa(lp35
(lp36
F6.6588736
aF5.7909756
aF-3.655946
aa(lp37
F5.9029045
aF5.695806
aF-3.4871547
aa(lp38
F5.783194
aF6.2075663
aF-3.4560301
aa(lp39
F8.929773
aF7.679402
aF-2.3720553
aa(lp40
F14.352042
aF9.944916
aF-5.7508726
aa(lp41
F15.307328
aF7.9864583
aF-9.118916
aa(lp42
F12.038046
aF4.882974
aF-14.178462
aa(lp43
F7.032369
aF2.2140381
aF-11.68131
aa(lp44
F1.271321
aF-0.18435353
aF-9.292496
aa(lp45
F-3.1483753
aF-2.8975825
aF-9.012972
aa(lp46
F-2.855684
aF-3.5571852
aF-7.167641
aa(lp47
F-1.7274165
aF-3.2052376
aF-6.0208187
aa(lp48
F-2.8568811
aF-2.717419
aF0.04189853
aa(lp49
F-1.8106151
aF-0.7787141
aF2.8329391
aa(lp50
F3.0029275
aF0.7457938
aF5.313332
aa(lp51
F10.557233
aF2.8604724
aF4.334702
aa(lp52
F17.99063
aF4.620809
aF2.705448
aa(lp53
F19.607914
aF5.86759
aF3.4225113
aa(lp54
F19.607914
aF7.275979
aF-1.553837
aa(lp55
F17.92419
aF5.2480903
aF0.18076223
aa(lp56
F17.787123
aF3.2513258
aF-4.648941
aa(lp57
F15.112201
aF-0.11731588
aF-9.60853
aa(lp58
F11.129447
aF0.2837129
aF-12.787432
aa(lp59
F5.875371
aF0.58418524
aF-11.399393
aa(lp60
F2.7868507
aF1.3275849
aF-7.536947
aa(lp61
F2.4193408
aF3.7134068
aF-4.675876
aa(lp62
F2.5917234
aF4.3903675
aF-2.8413188
aa(lp63
F5.6700683
aF6.171055
aF-3.9205053
aa(lp64
F6.349423
aF6.471527
aF-3.6260185
aa(lp65
F7.328053
aF7.2304893
aF-4.2251673
aa(lp66
F7.40766
aF7.1634517
aF-4.183269
aa(lp67
F6.903082
aF6.770204
aF-3.7828386
aaa(lp68
(lp69
F5.8502316
aF5.8203044
aF-4.248511
aa(lp70
F6.2261214
aF5.967548
aF-4.4556093
aa(lp71
F7.0090256
aF6.196194
aF-3.855862
aa(lp72
F7.501034
aF6.273407
aF-4.396353
aa(lp73
F7.359776
aF5.7598505
aF-5.8083334
aa(lp74
F7.760206
aF7.004237
aF-4.4394484
aa(lp75
F12.169727
aF7.955932
aF-10.002377
aa(lp76
F11.751341
aF5.8238955
aF-11.334749
aa(lp77
F10.449493
aF4.9643774
aF-13.556568
aa(lp78
F5.1571107
aF1.5340848
aF-12.93647
aa(lp79
F2.734777
aF0.0047884034
aF-12.185888
aa(lp80
F-0.059855044
aF-2.1865046
aF-9.486425
aa(lp81
F0.32202014
aF-2.498948
aF-6.072294
aa(lp82
F-1.1875241
aF-2.6372132
aF-0.3752911
aa(lp83
F-1.8644845
aF-1.3964181
aF3.152565
aa(lp84
F-0.1364695
aF-0.06404489
aF5.057751
aa(lp85
F2.0392613
aF-0.022146367
aF6.7624226
aa(lp86
F7.879916
aF-2.2110453
aF4.4981065
aa(lp87
F19.607914
aF3.265691
aF1.0995371
aa(lp88
F19.607914
aF4.0497923
aF2.3702598
aa(lp89
F19.607914
aF4.7626657
aF-2.8179753
aa(lp90
F18.720263
aF3.1627405
aF-4.183269
aa(lp91
F15.816096
aF-0.38486794
aF-5.932832
aa(lp92
F13.453019
aF-1.4209588
aF-12.682685
aa(lp93
F4.8380833
aF-1.8441339
aF-11.09114
aa(lp94
F1.2725182
aF1.5705963
aF-7.249643
aa(lp95
F2.0081367
aF2.758719
aF-3.994127
aa(lp96
F4.597466
aF4.3478703
aF-3.8127663
aa(lp97
F7.404069
aF6.0477533
aF-3.2920272
aa(lp98
F6.6002154
aF6.23091
aF-2.9137435
aa(lp99
F7.480085
aF6.9186444
aF-3.603872
aaa(lp100
(lp101
F6.0046577
aF5.5443726
aF-4.4903255
aa(lp102
F6.4499793
aF5.853823
aF-3.9965212
aa(lp103
F7.156269
aF6.2488666
aF-3.731962
aa(lp104
F11.097125
aF8.133701
aF-5.3965306
aa(lp105
F12.190078
aF6.747459
aF-8.295909
aa(lp106
F11.345523
aF4.5992613
aF-13.88637
aa(lp107
F5.744887
aF-0.108936176
aF-15.469536
aa(lp108
F0.5231331
aF-1.6514006
aF-11.73518
aa(lp109
F-1.5035586
aF-1.4981717
aF-9.394848
aa(lp110
F-3.5565867
aF-1.7968484
aF-6.1985884
aa(lp111
F-3.7343562
aF-1.9560628
aF-2.1266496
aa(lp112
F-0.6087258
aF-1.0953473
aF3.4081461
aa(lp113
F3.2249897
aF-2.3301568
aF5.410896
aa(lp114
F13.900735
aF-1.1623849
aF2.9735985
aa(lp115
F19.607914
aF3.4524388
aF-1.3425486
aa(lp116
F19.607914
aF1.0821792
aF1.0163386
aa(lp117
F19.607914
aF4.509479
aF-5.839458
aa(lp118
F19.500772
aF2.0500352
aF-3.9432502
aa(lp119
F19.607914
aF-0.9379285
aF-6.019023
aa(lp120
F17.06108
aF-3.4207156
aF-8.82802
aa(lp121
F8.388085
aF-4.1120415
aF-12.630611
aa(lp122
F-0.19752164
aF-2.1134815
aF-10.320805
aa(lp123
F0.8702923
aF0.9816227
aF-6.349423
aa(lp124
F1.6041151
aF1.8513165
aF-3.1244333
aa(lp125
F3.8181531
aF3.5625722
aF-3.6882677
aa(lp126
F6.7863646
aF6.3458314
aF-3.6409822
aa(lp127
F7.4788876
aF7.102998
aF-4.496909
aaa(lp128
(lp129
F5.8843493
aF5.6497173
aF-4.643554
aa(lp130
F5.2720323
aF5.333683
aF-4.216788
aa(lp131
F6.7001734
aF5.815516
aF-3.165733
aa(lp132
F10.053253
aF8.581417
aF-3.4512417
aa(lp133
F16.360777
aF8.428188
aF-10.256162
aa(lp134
F12.615647
aF4.4502225
aF-14.136564
aa(lp135
F10.302849
aF1.6825253
aF-15.5838585
aa(lp136
F3.6008794
aF-2.4522612
aF-11.423335
aa(lp137
F0.30346507
aF-3.6230257
aF-10.152014
aa(lp138
F-2.9173348
aF-4.3179426
aF-7.65127
aa(lp139
F-2.4271219
aF-2.3870192
aF-2.991555
aa(lp140
F-3.3375173
aF-1.3623008
aF1.0223241
aa(lp141
F-1.122282
aF0.75716627
aF3.3321302
aa(lp142
F2.0446482
aF0.6697779
aF4.51307
aa(lp143
F9.496601
aF2.2391772
aF3.342904
aa(lp144
F16.543934
aF5.040992
aF2.7665
aa(lp145
F19.607914
aF4.6495395
aF1.1300632
aa(lp146
F19.607914
aF5.9759274
aF-1.7914615
aa(lp147
F15.993866
aF3.5098996
aF-1.7351977
aa(lp148
F15.267225
aF0.8002619
aF-3.6936548
aa(lp149
F15.158888
aF-1.0462662
aF-9.210494
aa(lp150
F12.49055
aF-0.6135142
aF-11.312004
aa(lp151
F5.7059813
aF-0.008978256
aF-10.601525
aa(lp152
F4.1299977
aF1.7788919
aF-6.7827735
aa(lp153
F4.2024226
aF2.700061
aF-4.571728
aa(lp154
F4.8787847
aF3.691859
aF-3.807978
aa(lp155
F5.819107
aF4.76925
aF-3.071761
aa(lp156
F6.2195373
aF5.499481
aF-2.8766334
aaa(lp157
(lp158
F4.460996
aF5.0481744
aF-3.9031472
aa(lp159
F6.459556
aF5.439626
aF-3.50152
aa(lp160
F9.610326
aF8.197148
aF-3.3704374
aa(lp161
F15.649101
aF8.782531
aF-7.128137
aa(lp162
F12.674904
aF5.42167
aF-14.607024
aa(lp163
F11.158177
aF4.1036615
aF-14.526819
aa(lp164
F6.039374
aF0.6123171
aF-11.504139
aa(lp165
F1.8441339
aF-0.95349085
aF-8.718486
aa(lp166
F-1.4951789
aF-1.555034
aF-6.7684083
aa(lp167
F-3.0765493
aF-1.1749545
aF-4.9422307
aa(lp168
F-2.7126305
aF-0.05865794
aF-2.1242554
aa(lp169
F-2.6449943
aF1.079785
aF0.5823896
aa(lp170
F-0.15322891
aF1.9135658
aF3.3375173
aa(lp171
F4.361637
aF3.0053217
aF4.7022123
aa(lp172
F7.8463974
aF3.1974564
aF3.083732
aa(lp173
F12.745533
aF4.335301
aF2.8269536
aa(lp174
F18.374899
aF4.602853
aF1.4796166
aa(lp175
F19.607914
aF6.2554507
aF-1.7902644
aa(lp176
F19.138649
aF6.2781954
aF-3.845088
aa(lp177
F17.848175
aF4.209007
aF-4.5220485
aa(lp178
F16.143503
aF0.91219085
aF-10.429741
aa(lp179
F10.652402
aF0.22445641
aF-10.128072
aa(lp180
F5.8502316
aF0.7110779
aF-10.476428
aa(lp181
F2.795829
aF1.8028339
aF-6.6486983
aa(lp182
F1.6490064
aF3.3303347
aF-5.254674
aa(lp183
F2.719813
aF4.3143516
aF-3.3871968
aaa(lp184
(lp185
F6.019023
aF6.2823853
aF-4.7387238
aa(lp186
F6.2883706
aF6.5391636
aF-4.666898
aa(lp187
F5.8639984
aF6.2345014
aF-4.281431
aa(lp188
F5.5748987
aF6.0411696
aF-4.259285
aa(lp189
F6.3392477
aF6.3003416
aF-4.109049
aa(lp190
F7.642292
aF7.9834657
aF-3.8510735
aa(lp191
F11.893796
aF9.074024
aF-5.461174
aa(lp192
F11.104906
aF7.321469
aF-12.217611
aa(lp193
F9.386468
aF5.756858
aF-13.628395
aa(lp194
F6.766014
aF3.9474401
aF-11.812392
aa(lp195
F3.2148144
aF2.1787236
aF-10.119692
aa(lp196
F-0.11611878
aF0.021547815
aF-8.922591
aa(lp197
F-1.5280992
aF-1.1917139
aF-5.98311
aa(lp198
F-2.902371
aF-1.6053122
aF-3.0400376
aa(lp199
F-3.2770636
aF-1.1312603
aF1.8136078
aa(lp200
F0.2885013
aF0.39444473
aF4.7740383
aa(lp201
F6.1183825
aF1.6585833
aF5.7179523
aa(lp202
F11.972804
aF3.3051953
aF5.5707088
aa(lp203
F19.607914
aF4.5902834
aF3.0011318
aa(lp204
F19.607914
aF6.143522
aF-2.9167361
aa(lp205
F17.918804
aF4.298789
aF-4.1018662
aa(lp206
F18.72565
aF2.0219033
aF-7.1347213
aa(lp207
F16.509218
aF0.46806642
aF-12.348694
aa(lp208
F7.4310036
aF0.18255788
aF-12.471396
aa(lp209
F0.8810662
aF0.04129998
aF-7.5124063
aa(lp210
F1.2246342
aF2.516306
aF-4.7907977
aa(lp211
F3.0095115
aF4.2784386
aF-3.2345665
aa(lp212
F5.3486466
aF5.8358665
aF-3.8660371
aaa(lp213
(lp214
F5.513248
aF6.2446766
aF-4.589086
aa(lp215
F5.3582234
aF6.083068
aF-4.425083
aa(lp216
F6.681618
aF7.032369
aF-3.6020765
aa(lp217
F8.291121
aF8.543709
aF-4.2197804
aa(lp218
F12.553398
aF8.730456
aF-8.567651
aa(lp219
F12.4707985
aF7.3633676
aF-13.537415
aa(lp220
F9.952697
aF4.074931
aF-14.033613
aa(lp221
F5.5180364
aF0.88525605
aF-11.767501
aa(lp222
F0.4854244
aF-1.7142484
aF-8.94773
aa(lp223
F-2.1200657
aF-2.5929205
aF-6.682217
aa(lp224
F-3.6613328
aF-2.178125
aF-2.2744915
aa(lp225
F-3.6481647
aF-1.0833763
aF1.4413095
aa(lp226
F-1.0606314
aF0.59017074
aF3.1561563
aa(lp227
F3.2016463
aF0.748188
aF4.9338512
aa(lp228
F12.272678
aF4.453215
aF6.7971387
aa(lp229
F19.419968
aF6.3224883
aF4.6142254
aa(lp230
F19.607914
aF7.912238
aF-0.40940848
aa(lp231
F17.782335
aF6.476914
aF-3.0855274
aa(lp232
F16.37993
aF4.534618
aF-6.332065
aa(lp233
F15.781381
aF2.9550436
aF-8.758589
aa(lp234
F11.663354
aF2.1757307
aF-10.891224
aa(lp235
F6.371569
aF2.1763294
aF-10.253767
aa(lp236
F3.0184898
aF1.804031
aF-6.266823
aa(lp237
F1.5143325
aF2.843713
aF-4.0462008
aa(lp238
F2.284667
aF3.7660792
aF-2.4732103
aa(lp239
F3.6296098
aF5.569512
aF-3.247136
aaa(lp240
(lp241
F6.4206505
aF6.453571
aF-4.0378213
aa(lp242
F8.319252
aF8.201937
aF-4.0857053
aa(lp243
F11.977592
aF8.754997
aF-8.953117
aa(lp244
F11.331757
aF7.111976
aF-13.461399
aa(lp245
F8.850166
aF4.9661727
aF-12.832921
aa(lp246
F6.4146647
aF3.3261447
aF-9.916184
aa(lp247
F2.5025394
aF0.9552865
aF-8.511387
aa(lp248
F-0.47405192
aF-0.7356185
aF-7.116166
aa(lp249
F-3.341707
aF-2.3546975
aF-4.659715
aa(lp250
F-4.915296
aF-2.408567
aF-1.2725182
aa(lp251
F-2.1799207
aF-0.7715315
aF2.5246856
aa(lp252
F2.8383262
aF-0.3184288
aF7.1221514
aa(lp253
F12.450447
aF3.54282
aF8.394072
aa(lp254
F19.454086
aF6.2913637
aF7.6650367
aa(lp255
F19.607914
aF6.359598
aF0.06284779
aa(lp256
F19.606117
aF7.1047935
aF-3.6727054
aa(lp257
F16.305113
aF5.039196
aF-1.6095021
aa(lp258
F16.490065
aF2.7635074
aF-10.042479
aa(lp259
F12.354081
aF1.8555063
aF-15.391126
aa(lp260
F4.3544545
aF0.7942764
aF-12.776657
aa(lp261
F-0.52971715
aF0.2765303
aF-4.4262805
aa(lp262
F-0.25318682
aF1.7160441
aF-1.5717934
aa(lp263
F3.1908724
aF4.9404354
aF-2.070386
aa(lp264
F5.096657
aF7.3591776
aF-3.787627
aa(lp265
F6.4840965
aF8.459313
aF-4.815338
aaa(lp266
(lp267
F4.993108
aF5.4887075
aF-4.7961845
aa(lp268
F6.254852
aF6.5002575
aF-4.6818614
aa(lp269
F9.713276
aF8.139089
aF-4.413112
aa(lp270
F15.429433
aF8.579621
aF-8.398261
aa(lp271
F13.125013
aF6.3685765
aF-14.85662
aa(lp272
F10.190321
aF4.3179426
aF-13.314156
aa(lp273
F6.279991
aF1.7866731
aF-10.68652
aa(lp274
F1.4520833
aF-0.6715736
aF-9.63726
aa(lp275
F-3.5021186
aF-3.110068
aF-7.1143703
aa(lp276
F-5.321113
aF-3.3848026
aF-3.5434184
aa(lp277
F-3.9588125
aF-1.9081788
aF0.03172317
aa(lp278
F-1.407192
aF-0.9068039
aF3.2872388
aa(lp279
F6.4266357
aF0.12270284
aF5.6245785
aa(lp280
F15.097836
aF3.5296519
aF6.0285997
aa(lp281
F19.607914
aF5.5659204
aF4.1186256
aa(lp282
F19.607914
aF8.641273
aF-2.356493
aa(lp283
F17.663822
aF7.873931
aF-2.5677812
aa(lp284
F17.531542
aF5.9705405
aF-4.778228
aa(lp285
F16.812683
aF2.6384103
aF-9.507974
aa(lp286
F14.232332
aF2.432509
aF-13.307571
aa(lp287
F3.1142578
aF1.0079589
aF-10.174759
aa(lp288
F-0.65062433
aF0.825401
aF-5.01286
aa(lp289
F1.9656396
aF3.0190883
aF-2.8742392
aa(lp290
F3.4835634
aF4.547188
aF-2.7419596
aa(lp291
F5.513248
aF6.758233
aF-4.489128
aa(lp292
F5.8771667
aF7.311892
aF-4.7866077
aaa(lp293
(lp294
F6.047155
aF5.8963203
aF-4.8943467
aa(lp295
F6.0627174
aF6.0010667
aF-5.209184
aa(lp296
F6.271013
aF6.085462
aF-4.95899
aa(lp297
F6.229713
aF5.9202623
aF-4.9518075
aa(lp298
F6.3829417
aF6.18123
aF-4.9559975
aa(lp299
F7.1987658
aF7.243657
aF-4.0761285
aa(lp300
F10.111312
aF8.615535
aF-5.060744
aa(lp301
F11.644798
aF7.2628107
aF-10.258555
aa(lp302
F11.383232
aF6.117784
aF-13.280637
aa(lp303
F7.547721
aF3.2279825
aF-12.822147
aa(lp304
F3.1914709
aF0.44711718
aF-11.412561
aa(lp305
F-0.37708676
aF-1.8166006
aF-9.345766
aa(lp306
F-4.1282024
aF-2.979584
aF-5.3486466
aa(lp307
F-3.875614
aF-2.3942018
aF-1.4598645
aa(lp308
F-2.767697
aF-1.270124
aF0.76315176
aa(lp309
F2.15957
aF0.34356794
aF4.594473
aa(lp310
F7.394492
aF1.927931
aF5.928642
aa(lp311
F11.966819
aF3.6212301
aF5.225345
aa(lp312
F16.62414
aF4.156334
aF4.0587707
aa(lp313
F19.607914
aF6.117185
aF-2.1942859
aa(lp314
F19.607914
aF7.249643
aF-3.7481227
aa(lp315
F17.770363
aF4.529231
aF-3.6218286
aa(lp316
F17.480066
aF2.4061728
aF-6.955156
aa(lp317
F12.151173
aF-0.079008654
aF-14.566323
aa(lp318
F2.7269957
aF0.019153614
aF-9.412206
aa(lp319
F-1.1336545
aF0.24600422
aF-5.793968
aa(lp320
F1.2539631
aF2.2649148
aF-3.4422636
aa(lp321
F4.483143
aF4.209605
aF-3.99293
aa(lp322
F6.9407907
aF6.3165026
aF-4.7040076
aa(lp323
F6.76362
aF7.055712
aF-4.7698483
aaa(lp324
(lp325
F5.644929
aF6.1183825
aF-4.789002
aa(lp326
F5.2582655
aF5.9867015
aF-4.068946
aa(lp327
F7.2514386
aF7.1748238
aF-3.7104142
aa(lp328
F11.30123
aF10.133459
aF-3.946243
aa(lp329
F14.469358
aF9.438541
aF-8.08881
aa(lp330
F11.868058
aF6.220136
aF-16.088436
aa(lp331
F7.086837
aF2.3319526
aF-12.795811
aa(lp332
F0.9498995
aF-0.9900024
aF-9.56723
aa(lp333
F-0.866701
aF-1.7944542
aF-7.3472066
aa(lp334
F-3.1172507
aF-2.255338
aF-2.5354595
aa(lp335
F-2.2816741
aF-0.49081135
aF-0.5805939
aa(lp336
F-1.5263035
aF1.2593501
aF2.022502
aa(lp337
F0.93732995
aF3.2249897
aF3.4626143
aa(lp338
F4.1264067
aF3.752911
aF3.572149
aa(lp339
F9.830592
aF5.349245
aF2.3475149
aa(lp340
F15.046959
aF6.401497
aF3.1950622
aa(lp341
F19.582176
aF7.0766616
aF2.1092918
aa(lp342
F19.607914
aF8.425795
aF-1.4867992
aa(lp343
F16.445173
aF6.505046
aF-2.3888147
aa(lp344
F14.352641
aF3.7882257
aF-4.6686935
aa(lp345
F12.739547
aF2.5899277
aF-9.424176
aa(lp346
F9.376891
aF2.4648306
aF-12.138602
aa(lp347
F4.348469
aF2.3828292
aF-8.040926
aa(lp348
F3.2231941
aF2.7724855
aF-4.3209357
aa(lp349
F3.3979707
aF3.6816838
aF-2.7569232
aa(lp350
F4.6782703
aF4.7201686
aF-3.1830912
aa(lp351
F5.808932
aF5.756858
aF-3.5781345
aa(lp352
F6.896498
aF6.727707
aF-4.5262384
aa(lp353
F7.387908
aF6.8450227
aF-4.4568067
aa(lp354
F7.6225395
aF6.758233
aF-3.8600516
aa(lp355
F7.2885485
aF6.616975
aF-4.0503907
aaa(lp356
(lp357
F6.239888
aF5.2259436
aF-4.959589
aa(lp358
F6.260239
aF5.465364
aF-4.745308
aa(lp359
F7.9870567
aF6.464943
aF-4.123414
aa(lp360
F11.382633
aF7.9912467
aF-6.8719573
aa(lp361
F12.869432
aF7.4244194
aF-11.44608
aa(lp362
F9.509769
aF5.1798553
aF-14.01446
aa(lp363
F6.3338604
aF2.397793
aF-13.239936
aa(lp364
F1.0151415
aF-1.0462662
aF-9.726444
aa(lp365
F-1.9632454
aF-1.685518
aF-6.534375
aa(lp366
F-2.2439656
aF-0.99419224
aF-4.537611
aa(lp367
F-1.5041572
aF-0.31423897
aF-2.5061307
aa(lp368
F-0.11671733
aF1.074398
aF2.243367
aa(lp369
F3.8612487
aF2.432509
aF3.3758245
aa(lp370
F8.908226
aF2.8209682
aF4.4663835
aa(lp371
F15.679626
aF3.7175968
aF2.819771
aa(lp372
F19.607914
aF5.0158525
aF-0.86251116
aa(lp373
F19.607914
aF6.932411
aF-6.571485
aa(lp374
F16.964714
aF6.3111157
aF-5.2409077
aa(lp375
F17.180792
aF4.3436804
aF-7.9966335
aa(lp376
F12.65994
aF1.0145429
aF-13.703812
aa(lp377
F5.1613
aF1.6220716
aF-11.312603
aa(lp378
F-0.60333884
aF1.2677298
aF-6.646304
aa(lp379
F0.6027403
aF3.306991
aF-3.4284968
aa(lp380
F3.8983588
aF4.833295
aF-3.430891
aa(lp381
F6.487688
aF6.597223
aF-4.557363
aa(lp382
F6.1249666
aF7.2729864
aF-4.06715
aa(lp383
F5.6910176
aF7.6009917
aF-4.0779243
aaa(lp384
(lp385
F5.026028
aF5.5138464
aF-3.7175968
aa(lp386
F8.871116
aF7.6189485
aF-3.3566709
aa(lp387
F12.917316
aF8.37013
aF-6.0106435
aa(lp388
F16.370953
aF8.123527
aF-14.284406
aa(lp389
F12.297218
aF4.7219644
aF-18.90761
aa(lp390
F6.8462195
aF-0.1448492
aF-15.9495735
aa(lp391
F-1.1091139
aF-5.535394
aF-10.697293
aa(lp392
F-2.381632
aF-6.0160303
aF-6.7827735
aa(lp393
F-3.2650926
aF-5.492897
aF1.4939818
aa(lp394
F-2.2625206
aF-4.3358994
aF5.5587378
aa(lp395
F3.264494
aF-2.3229742
aF8.915408
aa(lp396
F9.776124
aF-1.7088615
aF10.86369
aa(lp397
F19.607914
aF1.1324574
aF8.53054
aa(lp398
F19.607914
aF4.0276456
aF0.4357447
aa(lp399
F19.607914
aF6.694188
aF-3.4087446
aa(lp400
F19.607914
aF-1.75076
aF-12.221203
aa(lp401
F12.540829
aF-5.6898203
aF-19.608511
aa(lp402
F-0.6548142
aF-4.903325
aF-14.393342
aa(lp403
F-2.8802247
aF-2.1212628
aF-5.3259015
aa(lp404
F2.3768437
aF2.858677
aF-1.8405426
aa(lp405
F5.4486046
aF6.331466
aF-0.45429978
aaa(lp406
(lp407
F6.1902084
aF5.5042696
aF-4.959589
aa(lp408
F6.0567317
aF6.071097
aF-3.8163576
aa(lp409
F11.19828
aF8.446145
aF-4.8626237
aa(lp410
F18.38268
aF8.870518
aF-12.45344
aa(lp411
F15.729905
aF6.0986304
aF-18.870499
aa(lp412
F9.767146
aF-0.25797522
aF-17.517178
aa(lp413
F-0.046088383
aF-6.4828997
aF-12.55699
aa(lp414
F-5.3408656
aF-10.247183
aF-8.020576
aa(lp415
F-7.5387425
aF-11.699266
aF-1.3904326
aa(lp416
F-5.4743423
aF-13.069947
aF6.983288
aa(lp417
F13.297995
aF-8.152855
aF18.665197
aa(lp418
F19.607914
aF1.5652094
aF15.433622
aa(lp419
F19.607914
aF3.4781766
aF2.6252422
aa(lp420
F19.607914
aF6.6295447
aF-3.4045548
aa(lp421
F19.607914
aF-5.649119
aF-17.037737
aa(lp422
F12.694656
aF-4.7363296
aF-19.608511
aa(lp423
F-1.7178397
aF-5.8304796
aF-13.581109
aa(lp424
F-4.6261964
aF-2.3546975
aF-1.7340006
aa(lp425
F2.2768857
aF4.597466
aF0.7577648
aa(lp426
F5.66528
aF6.8767457
aF-1.1300632
aaa(lp427
(lp428
F5.01286
aF5.446809
aF-4.815338
aa(lp429
F1.6861166
aF3.807978
aF-3.1663318
aa(lp430
F6.735488
aF4.827309
aF-2.3780408
aa(lp431
F18.276138
aF10.028113
aF-3.1346085
aa(lp432
F19.607914
aF6.0160303
aF-13.635577
aa(lp433
F14.444818
aF0.016759412
aF-19.608511
aa(lp434
F4.710592
aF-6.8605847
aF-16.635511
aa(lp435
F-4.88058
aF-12.661736
aF-9.391256
aa(lp436
F-11.626244
aF-15.731701
aF-0.29927522
aa(lp437
F-3.1142578
aF-12.946646
aF6.3021374
aa(lp438
F7.1263413
aF-8.702923
aF16.056713
aa(lp439
F19.580978
aF-2.5073278
aF17.473482
aa(lp440
F19.607914
aF2.7694929
aF7.195773
aa(lp441
F19.607914
aF4.630985
aF-2.504335
aa(lp442
F19.607914
aF-4.787206
aF-19.608511
aa(lp443
F7.1712327
aF-6.2087636
aF-19.608511
aa(lp444
F-5.8639984
aF-4.608838
aF-1.3563153
aa(lp445
F1.0588357
aF2.8808231
aF0.5315128
aa(lp446
F4.7285485
aF5.8544216
aF-2.0709844
aa(lp447
F7.6722193
aF7.669825
aF-3.7205894
aaa(lp448
(lp449
F3.2986114
aF4.7937903
aF-3.7187939
aa(lp450
F6.582259
aF6.673837
aF-3.5170822
aa(lp451
F16.487072
aF10.163984
aF-7.3208704
aa(lp452
F19.607914
aF7.923012
aF-17.832014
aa(lp453
F14.267048
aF1.7405846
aF-19.524715
aa(lp454
F4.0216603
aF-4.6441526
aF-13.054983
aa(lp455
F-4.547786
aF-7.035362
aF-6.621763
aa(lp456
F-7.813477
aF-7.893683
aF-2.2535424
aa(lp457
F-5.0703206
aF-7.2939353
aF3.5511997
aa(lp458
F-1.4413095
aF-6.6241574
aF8.681973
aa(lp459
F10.163984
aF-3.9857473
aF13.793594
aa(lp460
F19.607914
aF0.84814596
aF12.09012
aa(lp461
F19.607914
aF2.1380222
aF3.7349546
aa(lp462
F19.607914
aF4.4238863
aF-4.425682
aa(lp463
F19.607914
aF-0.80445176
aF-19.608511
aa(lp464
F6.39611
aF-3.544017
aF-19.486408
aa(lp465
F-1.7046716
aF-4.107253
aF-6.015432
aa(lp466
F0.7320272
aF0.7308301
aF-2.4768016
aa(lp467
F3.401562
aF3.8786068
aF-1.2395979
aa(lp468
F6.6044054
aF6.479907
aF-3.0340521
aaa(lp469
(lp470
F4.4196963
aF5.3857565
aF-3.8977604
aa(lp471
F5.061941
aF6.5487404
aF-2.9520507
aa(lp472
F15.279796
aF10.505757
aF-3.6655228
aa(lp473
F19.607914
aF6.537368
aF-14.3897505
aa(lp474
F19.607914
aF4.044405
aF-19.608511
aa(lp475
F11.092337
aF-5.1720743
aF-16.727688
aa(lp476
F-3.240552
aF-10.404602
aF-8.375516
aa(lp477
F-7.957728
aF-10.696694
aF-4.0479965
aa(lp478
F-6.904279
aF-8.583812
aF1.2126632
aa(lp479
F-5.5431757
aF-7.2071457
aF7.133524
aa(lp480
F5.0703206
aF-4.8781857
aF10.022128
aa(lp481
F18.17259
aF-2.224812
aF15.619173
aa(lp482
F19.607914
aF2.6779146
aF7.2286935
aa(lp483
F19.607914
aF5.4498014
aF-0.7858967
aa(lp484
F19.607914
aF3.7313633
aF-7.3873096
aa(lp485
F19.607914
aF-1.6831238
aF-19.608511
aa(lp486
F1.982399
aF-3.5996823
aF-16.19378
aa(lp487
F-4.3059716
aF-1.7872716
aF-3.4075475
aa(lp488
F3.1280246
aF3.6337996
aF-1.1947067
aa(lp489
F6.8665705
aF6.411672
aF-2.3834279
aa(lp490
F6.955156
aF7.1712327
aF-4.258686
aa(lp491
F6.606201
aF7.3364325
aF-3.7553053
aa(lp492
F7.091625
aF7.459734
aF-4.5525746
aaa(lp493
(lp494
F5.6335564
aF5.4282537
aF-4.4484267
aa(lp495
F4.583699
aF4.9984946
aF-3.7780502
aa(lp496
F5.7664347
aF5.4581814
aF-3.5122938
aa(lp497
F17.396269
aF9.015367
aF-5.333683
aa(lp498
F18.145655
aF5.4976854
aF-13.435661
aa(lp499
F17.10238
aF4.425682
aF-19.377472
aa(lp500
F11.241376
aF-1.1324574
aF-15.322891
aa(lp501
F1.0857705
aF-5.281609
aF-10.718841
aa(lp502
F-6.642114
aF-8.024766
aF-7.1311297
aa(lp503
F-6.2991447
aF-6.904279
aF-3.4901476
aa(lp504
F-4.061165
aF-6.567894
aF1.2216414
aa(lp505
F-3.1346085
aF-6.8198833
aF6.781576
aa(lp506
F15.045163
aF-4.8668137
aF13.438056
aa(lp507
F19.607914
aF2.6090813
aF7.888296
aa(lp508
F19.607914
aF7.095815
aF-0.25139117
aa(lp509
F19.607914
aF0.7757214
aF-11.33056
aa(lp510
F19.554642
aF-2.2373815
aF-19.608511
aa(lp511
F1.917157
aF-5.3558292
aF-15.688006
aa(lp512
F-4.9613843
aF-2.657564
aF-5.6563015
aa(lp513
F1.8285716
aF3.1262288
aF-0.30526072
aa(lp514
F5.060744
aF6.257845
aF-0.10295067
aa(lp515
F7.6464815
aF8.282143
aF-2.7287915
aa(lp516
F6.553529
aF7.958925
aF-2.9418752
aaa(lp517
(lp518
F4.437653
aF5.54138
aF-3.8456864
aa(lp519
F6.0291986
aF6.9342065
aF-2.0278888
aa(lp520
F18.095377
aF10.242993
aF-7.7769656
aa(lp521
F19.607914
aF6.625355
aF-18.941128
aa(lp522
F15.883733
aF1.4652514
aF-16.777369
aa(lp523
F1.0630256
aF-7.4286094
aF-11.650186
aa(lp524
F-5.8244944
aF-10.5285015
aF-6.405088
aa(lp525
F-10.114903
aF-12.672509
aF-0.61530983
aa(lp526
F-4.538808
aF-12.9167185
aF6.5804634
aa(lp527
F11.71842
aF-8.4587145
aF16.709732
aa(lp528
F19.607914
aF-0.770933
aF19.44451
aa(lp529
F19.607914
aF5.106832
aF2.2278047
aa(lp530
F19.607914
aF7.29214
aF-3.8187518
aa(lp531
F19.607914
aF-0.16220717
aF-15.565304
aa(lp532
F11.865664
aF-2.1745336
aF-19.608511
aa(lp533
F1.1162965
aF-2.1972785
aF-11.445481
aa(lp534
F-2.9281087
aF0.60932434
aF-1.4395138
aa(lp535
F3.1914709
aF4.7919946
aF-0.3250129
aa(lp536
F6.319495
aF6.551733
aF-1.2354081
aa(lp537
F7.9750857
aF7.752425
aF-3.8337154
aa(lp538
F6.9318123
aF7.3507977
aF-3.8774097
aa(lp539
F7.3352356
aF7.504027
aF-4.1838675
aa(lp540
F6.806117
aF7.097611
aF-3.34051
aaa(lp541
(lp542
F4.44304
aF5.112818
aF-5.2702365
aa(lp543
F4.8973393
aF5.4342394
aF-4.6058455
aa(lp544
F8.219295
aF8.22947
aF-4.8656163
aa(lp545
F16.865355
aF10.076596
aF-9.770139
aa(lp546
F16.072874
aF6.71394
aF-18.84476
aa(lp547
F11.440094
aF2.4774003
aF-18.868704
aa(lp548
F1.6663644
aF-5.4701524
aF-13.843873
aa(lp549
F-5.575497
aF-9.331401
aF-9.357139
aa(lp550
F-7.281366
aF-11.258734
aF-3.6649241
aa(lp551
F-5.111022
aF-9.394848
aF4.759673
aa(lp552
F4.744709
aF-5.0302176
aF10.839748
aa(lp553
F11.785458
aF-1.9512744
aF13.2034235
aa(lp554
F19.607914
aF3.5170822
aF6.0699
aa(lp555
F19.607914
aF5.835268
aF-2.3026235
aa(lp556
F19.607914
aF5.0882773
aF-6.0890536
aa(lp557
F19.607914
aF0.60333884
aF-16.576256
aa(lp558
F10.653599
aF-3.4099417
aF-19.608511
aa(lp559
F1.0313023
aF-3.657143
aF-12.847286
aa(lp560
F-1.6059108
aF-1.8022354
aF-1.3988123
aa(lp561
F0.25019407
aF1.797447
aF-1.2437878
aa(lp562
F2.070386
aF5.3366756
aF-2.0602105
aa(lp563
F4.3640313
aF6.9767036
aF-4.642956
aa(lp564
F3.8672342
aF6.627749
aF-4.1922474
aaa(lp565
(lp566
F5.0781016
aF5.4713492
aF-5.1265845
aa(lp567
F5.873575
aF5.7664347
aF-5.482722
aa(lp568
F6.977302
aF6.001665
aF-5.080496
aa(lp569
F9.393052
aF8.360553
aF-5.2343235
aa(lp570
F14.332889
aF8.681973
aF-12.50731
aa(lp571
F15.470135
aF6.6893997
aF-16.035765
aa(lp572
F12.747927
aF3.5649664
aF-15.334264
aa(lp573
F1.4167689
aF-4.863222
aF-11.125855
aa(lp574
F-2.2864625
aF-6.745663
aF-8.361151
aa(lp575
F-7.4244194
aF-8.200141
aF-1.8986019
aa(lp576
F-8.6095495
aF-8.629301
aF5.7484784
aa(lp577
F5.3618145
aF-5.8825536
aF14.649522
aa(lp578
F19.607914
aF2.131438
aF10.880449
aa(lp579
F19.607914
aF7.391499
aF5.659294
aa(lp580
F19.607914
aF7.227496
aF-5.192425
aa(lp581
F19.607914
aF3.9175124
aF-10.189722
aa(lp582
F18.137873
aF-0.46088383
aF-19.608511
aa(lp583
F9.977836
aF-0.33039984
aF-18.851944
aa(lp584
F1.8794483
aF-2.070386
aF-11.207258
aa(lp585
F-2.2373815
aF-1.002572
aF-1.6944963
aa(lp586
F-0.6733692
aF2.1493945
aF-0.88645315
aa(lp587
F2.6132712
aF5.0212393
aF-2.9777884
aa(lp588
F5.6748567
aF7.6285253
aF-4.4544125
aaa(lp589
(lp590
F5.746084
aF5.5910597
aF-5.3282957
aa(lp591
F5.2199583
aF5.3402667
aF-5.5246205
aa(lp592
F3.8019924
aF5.065532
aF-4.392163
aa(lp593
F5.7784057
aF5.905897
aF-3.365649
aa(lp594
F13.684658
aF9.657611
aF-5.6084175
aa(lp595
F18.576012
aF5.5246205
aF-17.173609
aa(lp596
F16.239271
aF4.107253
aF-19.583372
aa(lp597
F7.455544
aF-2.319383
aF-14.446613
aa(lp598
F-1.7818847
aF-6.3907228
aF-9.004593
aa(lp599
F-5.456984
aF-6.8480153
aF-6.699575
aa(lp600
F-4.333505
aF-6.6403184
aF-3.8097734
aa(lp601
F-4.462792
aF-7.4962454
aF3.2908301
aa(lp602
F1.9626468
aF-5.7520695
aF8.989629
aa(lp603
F17.548302
aF1.0953473
aF13.530232
aa(lp604
F19.607914
aF5.6545057
aF9.168595
aa(lp605
F19.607914
aF8.344392
aF-2.3175871
aa(lp606
F19.607914
aF6.2045736
aF-8.395866
aa(lp607
F19.434933
aF2.0907366
aF-19.608511
aa(lp608
F5.5527525
aF-1.9512744
aF-18.237232
aa(lp609
F-2.0111294
aF-3.0573955
aF-4.7500963
aa(lp610
F0.7721301
aF1.1534066
aF-0.78769237
aa(lp611
F4.754286
aF5.553351
aF-1.8776526
aa(lp612
F5.159505
aF7.0132155
aF-2.9550436
aa(lp613
F5.3845596
aF7.7799582
aF-3.721188
aa(lp614
F6.1004257
aF7.852383
aF-3.989937
aaa(lp615
(lp616
F5.373187
aF5.529409
aF-4.88477
aa(lp617
F6.4805055
aF5.884948
aF-4.687248
aa(lp618
F7.1131735
aF6.0489507
aF-4.228759
aa(lp619
F8.59279
aF6.949769
aF-4.4059296
aa(lp620
F11.165958
aF7.996035
aF-7.7374616
aa(lp621
F11.244369
aF7.413047
aF-9.469068
aa(lp622
F10.729615
aF6.683414
aF-10.99597
aa(lp623
F8.097789
aF5.146935
aF-10.584765
aa(lp624
F2.8568811
aF2.7006595
aF-10.548853
aa(lp625
F0.670975
aF1.3581109
aF-8.630499
aa(lp626
F-0.3238158
aF1.1061212
aF-7.4525514
aa(lp627
F-1.6741456
aF1.3730747
aF-5.33488
aa(lp628
F-0.5734113
aF2.8377275
aF-3.435081
aa(lp629
F0.090979666
aF3.6254199
aF-0.97503865
aa(lp630
F0.5554548
aF4.261679
aF-0.10055647
aa(lp631
F2.534861
aF5.04159
aF1.5478514
aa(lp632
F4.3915644
aF5.125387
aF0.30107087
aa(lp633
F7.0461354
aF5.78918
aF0.25737667
aa(lp634
F10.080188
aF6.159084
aF-0.3465607
aa(lp635
F13.51467
aF6.645107
aF-1.3210008
aa(lp636
F17.314268
aF7.8290396
aF-5.032612
aa(lp637
F14.20839
aF7.156269
aF-5.653309
aa(lp638
F13.138182
aF6.307524
aF-5.8095303
aa(lp639
F11.935096
aF5.3079453
aF-7.179612
aa(lp640
F10.449493
aF4.1036615
aF-9.176376
aa(lp641
F9.296086
aF3.6595373
aF-10.381857
aa(lp642
F8.111555
aF3.2650926
aF-10.4171715
aa(lp643
F6.666056
aF3.342904
aF-8.329428
aa(lp644
F4.473566
aF3.6254199
aF-7.101801
aa(lp645
F4.0120835
aF4.3424835
aF-5.385158
aa(lp646
F2.7138276
aF4.4843397
aF-4.2634745
aa(lp647
F3.0963013
aF5.3205147
aF-3.8953662
aa(lp648
F2.9460652
aF5.6748567
aF-3.7978024
aa(lp649
F4.137779
aF6.605004
aF-4.4699745
aaa(lp650
(lp651
F6.2003837
aF5.470751
aF-6.4350157
aa(lp652
F6.4469867
aF5.79337
aF-5.5707088
aa(lp653
F8.562862
aF7.1383123
aF-6.521207
aa(lp654
F9.546281
aF6.8091097
aF-8.892065
aa(lp655
F9.161413
aF6.43322
aF-11.569381
aa(lp656
F7.282563
aF5.0266266
aF-11.716026
aa(lp657
F5.254674
aF3.8792052
aF-10.9822035
aa(lp658
F3.1693244
aF2.7832594
aF-10.2178545
aa(lp659
F1.1288661
aF2.0847511
aF-8.188768
aa(lp660
F-0.9068039
aF1.9045875
aF-6.4751186
aa(lp661
F-2.915539
aF1.79206
aF-3.5116954
aa(lp662
F-1.3012487
aF2.3415294
aF-1.5825673
aa(lp663
F0.8678981
aF3.0663738
aF0.42197806
aa(lp664
F4.43885
aF4.4442368
aF2.4079683
aa(lp665
F6.817489
aF5.3259015
aF1.0893618
aa(lp666
F8.677784
aF5.8095303
aF0.19093758
aa(lp667
F11.900379
aF6.63972
aF-0.6368576
aa(lp668
F13.228563
aF6.165668
aF-1.1887212
aa(lp669
F17.096395
aF6.699575
aF-4.4460325
aa(lp670
F15.260642
aF6.320094
aF-5.967548
aa(lp671
F12.401965
aF5.443816
aF-6.453571
aa(lp672
F11.252748
aF4.620809
aF-7.6285253
aa(lp673
F10.737396
aF3.8337154
aF-8.106767
aa(lp674
F9.774328
aF3.5984852
aF-9.12131
aa(lp675
F8.238448
aF3.5332432
aF-9.767744
aa(lp676
F5.741296
aF3.208829
aF-8.172607
aa(lp677
F4.144363
aF3.2752678
aF-6.199785
aa(lp678
F3.3273418
aF3.6248214
aF-5.063138
aa(lp679
F3.4422636
aF4.437653
aF-4.0892963
aa(lp680
F3.9258924
aF5.269638
aF-3.8444893
aa(lp681
F3.8708255
aF5.8304796
aF-3.1292217
aaa(lp682
(lp683
F5.763442
aF6.2943563
aF-5.1026425
aa(lp684
F5.8268886
aF6.2554507
aF-5.492897
aa(lp685
F4.819528
aF5.919664
aF-4.6273932
aa(lp686
F4.7261543
aF5.279215
aF-3.9258924
aa(lp687
F7.2328835
aF6.342839
aF-4.9069166
aa(lp688
F10.348338
aF8.1343
aF-5.2157683
aa(lp689
F12.448053
aF8.432977
aF-9.809643
aa(lp690
F11.54065
aF7.441777
aF-12.555194
aa(lp691
F8.8645315
aF5.503671
aF-12.363059
aa(lp692
F4.5675383
aF2.8461072
aF-10.460267
aa(lp693
F2.0284874
aF1.6430209
aF-8.8645315
aa(lp694
F0.7781156
aF1.2234371
aF-7.8888946
aa(lp695
F-0.9576807
aF1.3802572
aF-6.4140663
aa(lp696
F-1.4550761
aF2.1338322
aF-5.1571107
aa(lp697
F-0.83737206
aF2.2649148
aF-3.1010897
aa(lp698
F-0.3728969
aF2.582745
aF-1.7208325
aa(lp699
F1.2162545
aF3.031658
aF1.0714053
aa(lp700
F4.2503066
aF3.7134068
aF2.8975825
aa(lp701
F7.669825
aF5.175067
aF2.4115596
aa(lp702
F10.603919
aF5.8484364
aF1.2838906
aa(lp703
F13.199234
aF6.1345434
aF-1.0235212
aa(lp704
F16.63192
aF6.6774287
aF-4.23235
aa(lp705
F16.02499
aF6.9581485
aF-7.353192
aa(lp706
F12.932879
aF6.5487404
aF-5.4647655
aa(lp707
F12.199655
aF5.9052987
aF-7.301118
aa(lp708
F10.929531
aF3.965995
aF-9.974244
aa(lp709
F9.302073
aF3.6314054
aF-10.159196
aa(lp710
F7.7230964
aF3.6535518
aF-9.940127
aa(lp711
F6.2482677
aF3.3423057
aF-8.838196
aa(lp712
F4.7058034
aF3.38181
aF-7.062895
aa(lp713
F3.9228995
aF3.5871127
aF-5.9561753
aa(lp714
F3.50152
aF3.8923733
aF-5.2355204
aa(lp715
F2.5659857
aF4.1575313
aF-3.9983168
aa(lp716
F2.8419175
aF5.446809
aF-4.4903255
aa(lp717
F2.3008277
aF5.8783636
aF-4.184466
aa(lp718
F3.9552212
aF6.995259
aF-4.9362454
aaa(lp719
(lp720
F4.0479965
aF5.529409
aF-5.6030307
aa(lp721
F3.8839936
aF5.556942
aF-5.2474914
aa(lp722
F9.3182335
aF8.174403
aF-5.492897
aa(lp723
F11.860875
aF7.4932528
aF-10.279505
aa(lp724
F11.129447
aF6.491279
aF-14.826693
aa(lp725
F8.833407
aF5.118803
aF-12.981361
aa(lp726
F5.5497594
aF3.3925838
aF-10.375273
aa(lp727
F3.3135753
aF2.8526914
aF-8.686762
aa(lp728
F-0.60333884
aF1.8261774
aF-7.2723875
aa(lp729
F-2.3852234
aF1.4281414
aF-6.029797
aa(lp730
F-3.233968
aF1.2856863
aF-4.540005
aa(lp731
F-2.8323407
aF1.9129672
aF-2.5761611
aa(lp732
F-0.58777654
aF3.1316159
aF-0.9911995
aa(lp733
F1.0085574
aF3.539827
aF0.89064306
aa(lp734
F4.226963
aF4.361038
aF2.7551277
aa(lp735
F8.397064
aF5.817312
aF2.3349452
aa(lp736
F10.378864
aF6.326678
aF1.3269863
aa(lp737
F12.855067
aF6.996456
aF-0.21068975
aa(lp738
F14.440627
aF7.1484876
aF-1.6466122
aa(lp739
F16.56189
aF7.48607
aF-4.923676
aa(lp740
F15.018827
aF7.0622964
aF-5.1798553
aa(lp741
F12.026673
aF6.703166
aF-6.6415157
aa(lp742
F12.157756
aF5.9304376
aF-6.445191
aa(lp743
F11.376049
aF4.718373
aF-8.942942
aa(lp744
F8.883685
aF4.0653543
aF-9.41879
aa(lp745
F7.3986816
aF3.6302083
aF-9.722853
aa(lp746
F5.5288105
aF3.4434607
aF-8.404246
aa(lp747
F4.07134
aF3.3746274
aF-6.1926026
aa(lp748
F2.996942
aF3.743933
aF-4.5435963
aa(lp749
F2.5959132
aF4.582502
aF-3.2603042
aa(lp750
F3.3955765
aF5.8921304
aF-3.2273839
aa(lp751
F3.655946
aF6.723517
aF-3.5529952
aa(lp752
F4.6513352
aF7.510012
aF-4.644751
aaa(lp753
(lp754
F4.455011
aF5.7227407
aF-4.887164
aa(lp755
F4.8787847
aF5.708974
aF-4.361038
aa(lp756
F8.503606
aF7.295731
aF-4.8506527
aa(lp757
F10.444705
aF8.414422
aF-6.0327897
aa(lp758
F11.931504
aF8.247426
aF-10.098145
aa(lp759
F9.230247
aF5.977723
aF-12.6354
aa(lp760
F5.889736
aF3.9252937
aF-11.936892
aa(lp761
F3.2728736
aF2.902371
aF-10.4171715
aa(lp762
F1.6903064
aF2.166154
aF-8.149862
aa(lp763
F0.46567222
aF2.5270798
aF-6.4870896
aa(lp764
F-0.623091
aF2.5528176
aF-5.531803
aa(lp765
F-0.4189853
aF2.8939912
aF-4.286818
aa(lp766
F0.3369839
aF3.1789012
aF-1.8632874
aa(lp767
F0.9498995
aF3.5033157
aF-0.26874915
aa(lp768
F2.532467
aF4.455011
aF2.0326772
aa(lp769
F4.744709
aF5.503671
aF1.8303672
aa(lp770
F7.4968443
aF6.815694
aF-0.10055647
aa(lp771
F9.413403
aF7.0066314
aF0.46686932
aa(lp772
F11.877635
aF7.6614456
aF-1.3874398
aa(lp773
F14.149134
aF7.9649105
aF-2.6192567
aa(lp774
F14.195821
aF7.6081743
aF-4.4119153
aa(lp775
F12.867637
aF6.8504095
aF-5.7323174
aa(lp776
F11.605294
aF5.979519
aF-5.1846437
aa(lp777
F11.113286
aF5.4761376
aF-5.273229
aa(lp778
F9.718663
aF4.3041763
aF-8.417415
aa(lp779
F9.837775
aF4.2916064
aF-9.01776
aa(lp780
F8.971074
aF3.8444893
aF-9.433155
aa(lp781
F6.694188
aF3.376423
aF-9.91439
aa(lp782
F5.445612
aF3.2507274
aF-7.86615
aa(lp783
F3.4009635
aF2.645593
aF-5.401319
aa(lp784
F3.4302924
aF3.4859576
aF-4.0378213
aa(lp785
F2.920926
aF4.1066546
aF-2.9897594
aa(lp786
F3.7600937
aF5.7502737
aF-2.8257565
aa(lp787
F5.011064
aF7.2310877
aF-3.5625722
aa(lp788
F6.4386067
aF7.768586
aF-3.7600937
aa(lp789
F7.1448965
aF7.792528
aF-4.3897686
aaa(lp790
(lp791
F5.9160724
aF5.8801594
aF-4.5232453
aa(lp792
F6.2542534
aF6.0208187
aF-4.610634
aa(lp793
F7.189189
aF6.4643445
aF-4.4621935
aa(lp794
F8.08881
aF7.192182
aF-4.6902413
aa(lp795
F10.532692
aF7.8649526
aF-6.7666125
aa(lp796
F10.958859
aF7.1646485
aF-8.362348
aa(lp797
F10.31901
aF6.647501
aF-11.283873
aa(lp798
F8.202535
aF5.6820393
aF-11.323377
aa(lp799
F4.64535
aF4.309563
aF-9.47206
aa(lp800
F1.4862007
aF3.4422636
aF-7.8709383
aa(lp801
F-0.62847793
aF2.7964275
aF-5.897517
aa(lp802
F-1.3521254
aF2.3002293
aF-4.5902834
aa(lp803
F-0.9151836
aF2.545635
aF-3.508104
aa(lp804
F-0.08439561
aF3.1465795
aF-2.1092918
aa(lp805
F0.688333
aF4.1742907
aF-0.0796072
aa(lp806
F2.078167
aF5.203199
aF0.961272
aa(lp807
F4.0414124
aF5.8454432
aF0.6967127
aa(lp808
F7.213131
aF6.4404025
aF0.46327803
aa(lp809
F11.063007
aF7.375937
aF-0.82599956
aa(lp810
F13.435661
aF7.3687544
aF-1.0480618
aa(lp811
F15.708358
aF8.222886
aF-2.544438
aa(lp812
F13.493721
aF7.049727
aF-4.221576
aa(lp813
F11.743559
aF6.554127
aF-6.0489507
aa(lp814
F10.688315
aF5.412093
aF-6.381146
aa(lp815
F9.993398
aF4.789002
aF-8.311471
aa(lp816
F9.409213
aF4.702811
aF-8.7053175
aa(lp817
F8.314464
aF4.4544125
aF-8.283937
aa(lp818
F6.3224883
aF4.043208
aF-6.895301
aa(lp819
F4.575918
aF3.8510735
aF-5.9489927
aa(lp820
F3.1896753
aF4.0599675
aF-5.017648
aa(lp821
F2.747945
aF4.537611
aF-3.503914
aa(lp822
F3.8666358
aF5.7508726
aF-3.8684313
aa(lp823
F3.9624038
aF6.2566476
aF-3.9360676
aa(lp824
F5.386954
aF7.290344
aF-4.373009
aa(lp825
F5.7909756
aF7.3962874
aF-4.419098
aaa(lp826
(lp827
F5.819706
aF6.4739213
aF-4.390966
aa(lp828
F5.415684
aF6.341043
aF-4.4526167
aa(lp829
F4.6459484
aF6.2045736
aF-3.4865563
aa(lp830
F7.441179
aF6.485294
aF-4.532822
aa(lp831
F9.136273
aF7.3992805
aF-4.7656584
aa(lp832
F12.138602
aF8.20433
aF-6.295553
aa(lp833
F12.082339
aF7.3843164
aF-11.097125
aa(lp834
F10.071808
aF6.482301
aF-10.903793
aa(lp835
F7.751228
aF5.1104236
aF-10.264542
aa(lp836
F4.4657845
aF3.819949
aF-9.467871
aa(lp837
F1.6454151
aF2.7665
aF-9.14226
aa(lp838
F-2.718616
aF1.3521254
aF-7.8086886
aa(lp839
F-3.9630024
aF0.3453636
aF-4.6525326
aa(lp840
F-1.8016368
aF1.0313023
aF-3.2124202
aa(lp841
F-0.7589619
aF1.6160861
aF-0.842759
aa(lp842
F1.1522095
aF2.947861
aF1.3389573
aa(lp843
F4.027047
aF4.1760864
aF3.0771477
aa(lp844
F6.8545995
aF4.7135844
aF2.7760768
aa(lp845
F11.5155115
aF5.7616463
aF1.264737
aa(lp846
F17.277159
aF6.3901243
aF-0.40342298
aa(lp847
F19.396027
aF6.988076
aF-4.189853
aa(lp848
F16.31469
aF5.807136
aF-4.908712
aa(lp849
F12.958616
aF4.6519337
aF-6.0746884
aa(lp850
F11.243171
aF4.3819876
aF-8.205527
aa(lp851
F10.903194
aF3.6876693
aF-10.327988
aa(lp852
F9.57561
aF3.5936968
aF-11.440693
aa(lp853
F7.505822
aF3.1250317
aF-10.466252
aa(lp854
F5.898116
aF3.1615434
aF-8.252813
aa(lp855
F3.8109705
aF3.3674448
aF-5.93762
aa(lp856
F1.8136078
aF3.5128925
aF-4.1701007
aa(lp857
F1.5239093
aF4.421492
aF-2.9059622
aa(lp858
F1.7345991
aF5.2259436
aF-2.542642
aa(lp859
F3.0603883
aF6.7253127
aF-2.3133974
aaa.