(lp0
(lp1
(lp2
F2.307412
aF10.278907
aF0.24660277
aa(lp3
F2.095525
aF10.126276
aF-0.18614918
aa(lp4
F1.5035586
aF9.809643
aF-0.4345476
aa(lp5
F1.5035586
aF9.847352
aF-0.27712885
aa(lp6
F2.0709844
aF8.8806925
aF1.8854338
aa(lp7
F2.2260091
aF7.93199
aF5.8759694
aa(lp8
F2.3894134
aF7.3106947
aF9.295488
aa(lp9
F3.1435869
aF6.4416
aF8.638878
aa(lp10
F5.7885814
aF6.508039
aF7.7584105
aa(lp11
F7.4681134
aF6.2740054
aF5.9304376
aa(lp12
F9.772532
aF6.0519433
aF3.0969
aa(lp13
F11.814188
aF5.6551046
aF-1.2689269
aa(lp14
F12.3876
aF4.9542017
aF-4.1665096
aa(lp15
F15.450981
aF6.940192
aF-11.116279
aa(lp16
F15.456966
aF6.0423665
aF-8.954913
aa(lp17
F10.56681
aF5.1702785
aF-4.610634
aa(lp18
F10.0987425
aF7.1107793
aF-0.78888947
aa(lp19
F10.186729
aF8.016984
aF-0.0700304
aa(lp20
F7.7931266
aF7.639299
aF1.7256209
aa(lp21
F6.5601125
aF7.9343843
aF1.7357962
aa(lp22
F5.3504424
aF6.675633
aF2.48578
aa(lp23
F3.4566288
aF6.661866
aF5.6347537
aa(lp24
F0.78170687
aF7.2544312
aF8.181585
aa(lp25
F0.5129577
aF8.256405
aF7.4124484
aa(lp26
F0.39324763
aF8.706514
aF4.9105077
aa(lp27
F1.0313023
aF9.363124
aF3.0663738
aaa(lp28
(lp29
F1.8680758
aF9.908403
aF0.57879823
aa(lp30
F2.247557
aF9.814431
aF-0.43634325
aa(lp31
F1.3192052
aF9.128492
aF1.5113398
aa(lp32
F1.9734207
aF8.867524
aF3.472191
aa(lp33
F1.6591818
aF7.7494326
aF7.270592
aa(lp34
F2.7629087
aF7.1006036
aF8.415619
aa(lp35
F4.486734
aF6.9012866
aF7.089231
aa(lp36
F6.9796963
aF7.49445
aF5.337274
aa(lp37
F9.071032
aF7.4746976
aF2.4911668
aa(lp38
F10.286688
aF6.147113
aF-0.36272156
aa(lp39
F12.2002535
aF5.407903
aF-0.66618663
aa(lp40
F13.472772
aF6.706159
aF-8.364143
aa(lp41
F13.495517
aF5.5910597
aF-6.633136
aa(lp42
F11.841722
aF5.493496
aF-5.271434
aa(lp43
F9.00579
aF5.9250507
aF-0.7870938
aa(lp44
F9.102157
aF7.325659
aF0.4429273
aa(lp45
F8.199542
aF7.350199
aF1.5089456
aa(lp46
F7.492056
aF8.091804
aF2.0626047
aa(lp47
F6.3338604
aF7.929596
aF2.6150668
aa(lp48
F4.4915223
aF7.93199
aF3.3207579
aa(lp49
F3.6224272
aF7.8727336
aF2.7281928
aa(lp50
F2.6910827
aF7.909844
aF3.8696284
aa(lp51
F1.7848774
aF7.9912467
aF5.7185507
aa(lp52
F0.29987377
aF8.303091
aF5.9142766
aa(lp53
F0.81283146
aF9.060856
aF4.0037036
aa(lp54
F1.3198037
aF9.606135
aF2.8030117
aaa(lp55
(lp56
F1.8764555
aF9.918579
aF0.6721721
aa(lp57
F2.0254946
aF9.799467
aF0.15083471
aa(lp58
F1.6519991
aF9.188348
aF0.8726865
aa(lp59
F1.5951369
aF8.085817
aF3.352481
aa(lp60
F1.8764555
aF7.4082584
aF8.291121
aa(lp61
F2.645593
aF7.113772
aF7.5201874
aa(lp62
F4.648941
aF7.595605
aF6.445191
aa(lp63
F6.645705
aF8.51857
aF3.4231098
aa(lp64
F7.581838
aF8.830415
aF1.4514848
aa(lp65
F8.37372
aF8.298902
aF0.7164649
aa(lp66
F9.313444
aF7.3885064
aF0.41240123
aa(lp67
F9.31105
aF5.481525
aF-0.17896658
aa(lp68
F10.985196
aF6.7546415
aF-6.783372
aa(lp69
F12.559383
aF6.739079
aF-6.25964
aa(lp70
F12.130223
aF6.1249666
aF-5.29777
aa(lp71
F9.733627
aF5.5940523
aF-2.7952304
aa(lp72
F8.9998045
aF6.9581485
aF0.05626374
aa(lp73
F9.93474
aF7.920019
aF-0.9415198
aa(lp74
F8.558074
aF7.429208
aF2.6001031
aa(lp75
F6.1740475
aF7.656657
aF1.7705121
aa(lp76
F5.835268
aF8.218696
aF3.9109285
aa(lp77
F3.650559
aF7.8583684
aF4.64535
aa(lp78
F2.0751743
aF7.9008656
aF6.0184245
aa(lp79
F0.56982
aF8.227076
aF6.1758432
aa(lp80
F0.2789245
aF8.693346
aF4.6375685
aa(lp81
F0.8463503
aF9.239823
aF2.980781
aa(lp82
F1.2761095
aF9.750386
aF1.858499
aa(lp83
F1.4820108
aF9.985617
aF1.1755531
aa(lp84
F1.5765818
aF9.941324
aF1.2868834
aa(lp85
F1.70946
aF9.934141
aF1.2683283
aaa(lp86
(lp87
F2.0811598
aF9.76116
aF0.99179804
aa(lp88
F1.7052702
aF8.831612
aF2.5528176
aa(lp89
F2.0171149
aF8.308478
aF5.41748
aa(lp90
F1.821389
aF7.69257
aF7.3729444
aa(lp91
F3.2603042
aF8.183381
aF6.5870476
aa(lp92
F4.685453
aF8.3551655
aF5.777209
aa(lp93
F6.420052
aF8.251018
aF4.7417164
aa(lp94
F7.351995
aF8.208521
aF2.4301147
aa(lp95
F7.714118
aF7.1143703
aF1.2324153
aa(lp96
F8.152257
aF6.652888
aF-0.05805939
aa(lp97
F8.933964
aF6.281188
aF-0.2693477
aa(lp98
F9.917382
aF6.7881603
aF-4.4304705
aa(lp99
F11.636418
aF6.817489
aF-5.567716
aa(lp100
F12.246941
aF6.628946
aF-5.5347958
aa(lp101
F10.722432
aF5.993884
aF-5.01286
aa(lp102
F9.374496
aF6.0782795
aF-1.9686323
aa(lp103
F9.189545
aF7.1766195
aF-0.6380547
aa(lp104
F8.273763
aF7.45734
aF0.79966336
aa(lp105
F6.540959
aF7.7865424
aF1.2485762
aa(lp106
F6.367379
aF8.258201
aF2.0590134
aa(lp107
F5.3594203
aF8.364143
aF1.1540052
aa(lp108
F4.4358573
aF7.923012
aF3.582923
aa(lp109
F3.1423898
aF7.85358
aF4.7578773
aa(lp110
F1.650802
aF8.086416
aF6.687604
aa(lp111
F1.4047978
aF8.733449
aF7.111976
aa(lp112
F0.7140707
aF8.957906
aF4.957195
aa(lp113
F1.2282255
aF9.452907
aF2.9053638
aa(lp114
F1.6687586
aF9.785701
aF2.0512323
aa(lp115
F1.4796166
aF9.59177
aF1.2850877
aa(lp116
F2.1039047
aF9.871294
aF0.87328506
aa(lp117
F1.7591397
aF9.663596
aF0.4842273
aaa(lp118
(lp119
F2.220622
aF9.880871
aF0.66738373
aa(lp120
F2.0266917
aF9.731233
aF0.24540567
aa(lp121
F2.212841
aF9.901221
aF-0.8726865
aa(lp122
F2.1775265
aF9.200917
aF0.15801731
aa(lp123
F2.3469162
aF8.101978
aF3.1884782
aa(lp124
F2.504335
aF7.4788876
aF8.577228
aa(lp125
F3.7750576
aF7.114969
aF8.84059
aa(lp126
F4.961983
aF7.345411
aF6.555324
aa(lp127
F5.5431757
aF7.405266
aF5.533599
aa(lp128
F6.767211
aF7.781754
aF1.9632454
aa(lp129
F8.257602
aF7.991845
aF2.5133133
aa(lp130
F8.501212
aF6.7749925
aF1.1025299
aa(lp131
F10.445902
aF6.508039
aF-0.62847793
aa(lp132
F9.919178
aF5.5922565
aF-2.156577
aa(lp133
F10.834361
aF6.7803793
aF-6.7785835
aa(lp134
F12.157756
aF6.6864066
aF-6.22672
aa(lp135
F10.600926
aF6.1943984
aF-4.059369
aa(lp136
F8.573636
aF6.5403605
aF-0.4782418
aa(lp137
F8.809465
aF7.777564
aF0.017956512
aa(lp138
F8.297705
aF8.111555
aF1.1605892
aa(lp139
F6.751649
aF8.085817
aF1.7705121
aa(lp140
F5.769428
aF8.042722
aF2.966416
aa(lp141
F4.733337
aF7.752425
aF2.6390088
aa(lp142
F4.1814733
aF7.926005
aF3.911527
aa(lp143
F2.9765913
aF7.5171947
aF3.793014
aa(lp144
F2.2870612
aF7.937377
aF6.839037
aa(lp145
F1.2378023
aF8.24204
aF6.531981
aa(lp146
F0.92296475
aF8.807071
aF5.2085857
aa(lp147
F1.1468226
aF9.3738985
aF3.0789435
aa(lp148
F1.5951369
aF9.6767645
aF2.2744915
aa(lp149
F1.6639702
aF9.698911
aF1.8866309
aaa(lp150
(lp151
F2.2307975
aF9.920375
aF0.57400984
aa(lp152
F2.1918917
aF9.665392
aF0.061650693
aa(lp153
F2.2050598
aF9.640253
aF0.6488287
aa(lp154
F2.510919
aF9.381081
aF1.6573862
aa(lp155
F2.5127146
aF9.248801
aF2.3864205
aa(lp156
F2.7910407
aF8.7849245
aF4.317344
aa(lp157
F2.552219
aF7.657854
aF8.610746
aa(lp158
F3.41473
aF6.9246297
aF8.59279
aa(lp159
F5.382764
aF7.0928226
aF6.4344172
aa(lp160
F7.2831616
aF7.4992385
aF5.8226986
aa(lp161
F9.030331
aF7.231686
aF4.3358994
aa(lp162
F10.272323
aF5.7885814
aF0.94690675
aa(lp163
F11.78845
aF5.2744265
aF-2.456451
aa(lp164
F11.20247
aF5.4671597
aF-3.454833
aa(lp165
F12.211027
aF6.0627174
aF-7.413047
aa(lp166
F12.058995
aF6.0477533
aF-5.8215013
aa(lp167
F9.628283
aF5.449203
aF-3.6822822
aa(lp168
F9.073426
aF6.928221
aF-0.79607207
aa(lp169
F9.59177
aF7.5465236
aF-0.35194764
aa(lp170
F9.012374
aF7.5207863
aF1.049259
aa(lp171
F7.819463
aF7.884106
aF2.1583729
aa(lp172
F6.918046
aF7.85358
aF1.6130934
aa(lp173
F5.459977
aF7.817667
aF2.3983915
aa(lp174
F4.671686
aF7.8493905
aF3.7948096
aa(lp175
F3.3800142
aF7.9673047
aF4.307169
aa(lp176
F3.1531637
aF8.307879
aF4.819528
aa(lp177
F1.2557588
aF8.181585
aF6.259042
aa(lp178
F1.0456676
aF8.666411
aF4.980538
aa(lp179
F1.1749545
aF9.053075
aF3.3381157
aa(lp180
F1.8052281
aF9.55047
aF2.2709002
aa(lp181
F1.827973
aF9.734824
aF1.650802
aa(lp182
F1.9375077
aF9.76535
aF1.316811
aaa(lp183
(lp184
F2.1853075
aF9.558251
aF1.0809821
aa(lp185
F2.0147207
aF9.472659
aF1.4065934
aa(lp186
F1.797447
aF9.419987
aF1.2114661
aa(lp187
F1.6454151
aF9.181165
aF1.9596541
aa(lp188
F2.19668
aF9.0081835
aF4.0695443
aa(lp189
F2.8353333
aF8.599374
aF7.0275807
aa(lp190
F3.560178
aF8.313866
aF6.5283895
aa(lp191
F4.465186
aF8.219295
aF5.6006365
aa(lp192
F5.1265845
aF7.789535
aF4.068946
aa(lp193
F6.701969
aF8.300697
aF2.1392193
aa(lp194
F7.401076
aF7.4070616
aF1.532289
aa(lp195
F8.130709
aF6.6103907
aF-0.51714754
aa(lp196
F8.993818
aF6.0836663
aF-0.5177461
aa(lp197
F9.66659
aF5.995081
aF-2.498948
aa(lp198
F11.742362
aF6.997653
aF-6.0483522
aa(lp199
F12.029068
aF5.7299232
aF-6.096236
aa(lp200
F10.415975
aF5.591658
aF-4.5394063
aa(lp201
F8.948928
aF5.807735
aF-0.97982705
aa(lp202
F8.979453
aF7.6189485
aF0.6206968
aa(lp203
F8.534731
aF8.165425
aF1.3623008
aa(lp204
F7.21373
aF8.095394
aF2.621651
aa(lp205
F6.691195
aF8.830415
aF1.2593501
aa(lp206
F5.4713492
aF8.194754
aF3.1681273
aa(lp207
F4.9021277
aF8.458116
aF1.5077485
aa(lp208
F4.5322237
aF7.815273
aF3.1591492
aa(lp209
F2.8335378
aF7.9846625
aF3.4871547
aa(lp210
F1.614889
aF8.456919
aF6.959346
aa(lp211
F1.1833342
aF8.908825
aF4.76925
aa(lp212
F1.4155718
aF9.36073
aF3.2722752
aa(lp213
F1.7950528
aF9.762358
aF2.2529438
aa(lp214
F1.95307
aF9.817424
aF1.0899603
aa(lp215
F2.2541409
aF9.896433
aF0.6865373
aaa(lp216
(lp217
F2.256535
aF9.683349
aF0.89423436
aa(lp218
F2.19668
aF9.7402115
aF0.5434838
aa(lp219
F2.243367
aF10.022727
aF0.7966706
aa(lp220
F2.368464
aF10.144233
aF0.7015011
aa(lp221
F2.463035
aF9.837775
aF0.3333926
aa(lp222
F2.15957
aF9.528324
aF0.6051345
aa(lp223
F2.9472623
aF9.197925
aF2.4438813
aa(lp224
F2.9963434
aF8.198345
aF5.668871
aa(lp225
F3.1531637
aF7.5884223
aF8.963293
aa(lp226
F4.3742065
aF7.317279
aF7.765593
aa(lp227
F6.0699
aF7.4405804
aF5.8885393
aa(lp228
F7.754221
aF7.7087307
aF3.8977604
aa(lp229
F8.725668
aF7.5734587
aF1.6795325
aa(lp230
F9.575011
aF6.7109475
aF-0.28909984
aa(lp231
F10.242993
aF6.4020953
aF-3.578733
aa(lp232
F9.391854
aF6.3727665
aF-2.2188265
aa(lp233
F10.817003
aF6.9904704
aF-6.637326
aa(lp234
F12.217611
aF6.968324
aF-6.603208
aa(lp235
F10.077793
aF6.291962
aF-4.4113164
aa(lp236
F8.603564
aF6.95755
aF-1.5005659
aa(lp237
F9.164406
aF7.6985555
aF0.4997896
aa(lp238
F8.06008
aF8.025364
aF1.0636241
aa(lp239
F6.9784994
aF7.801506
aF2.1176715
aa(lp240
F6.1902084
aF8.104971
aF2.231396
aa(lp241
F5.3384714
aF7.8793178
aF2.2589293
aa(lp242
F4.0815153
aF7.8930845
aF4.1491513
aa(lp243
F2.3918076
aF8.505402
aF4.6902413
aa(lp244
F1.8776526
aF9.2547865
aF5.3863554
aa(lp245
F1.3569138
aF9.31105
aF3.6762967
aa(lp246
F2.007538
aF9.77373
aF2.131438
aa(lp247
F1.46585
aF9.5492735
aF1.6352397
aa(lp248
F2.154183
aF9.827001
aF0.6218939
aaa(lp249
(lp250
F2.0470424
aF9.8276
aF0.533907
aa(lp251
F2.1242554
aF9.874287
aF0.80564886
aa(lp252
F2.247557
aF10.093356
aF0.86370826
aa(lp253
F2.3050177
aF9.882666
aF0.6206968
aa(lp254
F2.4366987
aF9.159617
aF1.7681179
aa(lp255
F2.521693
aF8.614338
aF4.7860093
aa(lp256
F3.1381998
aF7.9146323
aF8.337209
aa(lp257
F4.1383777
aF7.33344
aF8.905233
aa(lp258
F5.825691
aF6.871359
aF4.011485
aa(lp259
F7.328053
aF8.264186
aF2.570774
aa(lp260
F8.0367365
aF8.30369
aF0.4333505
aa(lp261
F10.848128
aF6.996456
aF1.9608512
aa(lp262
F12.304401
aF6.881534
aF-2.9604304
aa(lp263
F9.980828
aF5.9304376
aF-3.3991678
aa(lp264
F11.168352
aF6.6403184
aF-7.5566993
aa(lp265
F10.990582
aF6.3033347
aF-5.834071
aa(lp266
F9.161413
aF6.023213
aF-2.830545
aa(lp267
F8.781932
aF6.870162
aF-0.3465607
aa(lp268
F8.658031
aF7.617751
aF0.43514615
aa(lp269
F7.9661074
aF7.890092
aF0.7445967
aa(lp270
F6.892308
aF7.6710224
aF2.89459
aa(lp271
F6.342839
aF8.2276745
aF2.0368671
aa(lp272
F5.9064956
aF8.364742
aF2.2008698
aa(lp273
F4.781221
aF8.368932
aF2.9867666
aa(lp274
F3.8127663
aF8.549096
aF1.7495629
aa(lp275
F3.5404258
aF8.389283
aF3.0310593
aa(lp276
F2.7736826
aF8.42759
aF3.4302924
aa(lp277
F2.1511903
aF8.280347
aF6.0543375
aa(lp278
F1.0115502
aF8.605958
aF4.9853263
aa(lp279
F1.2503718
aF9.015367
aF3.7642837
aa(lp280
F1.8171991
aF9.510367
aF2.678513
aa(lp281
F2.2050598
aF9.744401
aF1.6011224
aaa(lp282
(lp283
F2.4612393
aF9.951499
aF-0.30466217
aa(lp284
F2.6312277
aF9.944916
aF-0.7404069
aa(lp285
F2.3403323
aF9.691729
aF-1.13964
aa(lp286
F2.6234465
aF9.359533
aF0.50278234
aa(lp287
F2.8712463
aF8.4108305
aF3.4853592
aa(lp288
F3.2992098
aF7.699753
aF6.993463
aa(lp289
F4.134786
aF7.49026
aF9.068039
aa(lp290
F5.6407394
aF7.4549456
aF9.26556
aa(lp291
F7.3178773
aF7.36636
aF6.257246
aa(lp292
F7.946954
aF7.129933
aF3.309984
aa(lp293
F8.4108305
aF7.2909427
aF1.7088615
aa(lp294
F10.339958
aF7.1867948
aF-0.82899237
aa(lp295
F9.913192
aF6.905476
aF-1.1857284
aa(lp296
F10.2406
aF5.7963624
aF-1.9734207
aa(lp297
F11.514315
aF7.867945
aF-10.050261
aa(lp298
F11.928512
aF7.1023993
aF-6.2464724
aa(lp299
F10.197504
aF6.7684083
aF-2.6833014
aa(lp300
F9.420585
aF7.5800424
aF-0.13347675
aa(lp301
F8.775348
aF7.3968863
aF1.3227965
aa(lp302
F6.891111
aF7.2125325
aF3.0663738
aa(lp303
F6.9850836
aF7.941567
aF3.6020765
aa(lp304
F4.8416743
aF7.328053
aF4.4993033
aa(lp305
F4.222773
aF7.887099
aF5.0266266
aa(lp306
F3.1040826
aF7.9930425
aF5.197213
aa(lp307
F2.0536265
aF8.257003
aF6.223727
aa(lp308
F2.1416135
aF8.766968
aF5.5431757
aa(lp309
F1.3652935
aF8.769362
aF4.8817773
aaa(lp310
(lp311
F2.622848
aF9.49301
aF-0.5722142
aa(lp312
F2.1859062
aF9.097966
aF-0.6344634
aa(lp313
F2.6749218
aF8.2115135
aF3.4386723
aa(lp314
F4.256891
aF7.0209966
aF10.0029745
aa(lp315
F4.832696
aF6.143522
aF15.247474
aa(lp316
F7.5453267
aF5.439028
aF9.238626
aa(lp317
F9.5492735
aF4.8422728
aF7.9571295
aa(lp318
F12.512098
aF3.4632127
aF8.735844
aa(lp319
F16.96292
aF0.024540568
aF4.1419687
aa(lp320
F17.695545
aF3.4201171
aF-6.664859
aa(lp321
F18.544289
aF5.4102974
aF-9.796474
aa(lp322
F18.066048
aF4.152743
aF-7.2340803
aa(lp323
F12.4702
aF4.111443
aF-3.5488055
aa(lp324
F10.562021
aF5.9226565
aF0.35793316
aa(lp325
F10.499771
aF6.3248825
aF1.6705543
aa(lp326
F10.550649
aF7.167641
aF2.5001452
aa(lp327
F7.790134
aF6.965331
aF4.5112743
aa(lp328
F7.1867948
aF7.608773
aF2.7419596
aa(lp329
F6.575675
aF7.361572
aF4.793192
aa(lp330
F3.095703
aF6.754043
aF8.2115135
aa(lp331
F1.134253
aF7.6788034
aF9.465476
aa(lp332
F0.9175778
aF8.6496525
aF5.703587
aa(lp333
F1.2635399
aF9.306262
aF3.8067808
aaa(lp334
(lp335
F2.0536265
aF9.806051
aF0.61291564
aa(lp336
F1.8728642
aF9.458294
aF0.7392098
aa(lp337
F1.8124107
aF9.069236
aF0.43754035
aa(lp338
F2.4552538
aF8.034343
aF1.5041572
aa(lp339
F3.916914
aF6.9946604
aF10.034698
aa(lp340
F4.797382
aF6.099229
aF16.144701
aa(lp341
F8.614936
aF4.957793
aF9.425972
aa(lp342
F11.817181
aF5.9202623
aF6.2207346
aa(lp343
F15.003863
aF3.064578
aF4.8859673
aa(lp344
F16.57087
aF0.59974754
aF-0.077213004
aa(lp345
F17.413029
aF5.5162406
aF-10.941502
aa(lp346
F18.251598
aF4.2054152
aF-6.953959
aa(lp347
F13.715184
aF4.5753193
aF-7.429208
aa(lp348
F10.803835
aF4.9757495
aF0.055066638
aa(lp349
F10.475829
aF7.3340383
aF-0.14664486
aa(lp350
F9.946711
aF6.805518
aF2.7874494
aa(lp351
F7.8769236
aF7.0102224
aF2.2816741
aa(lp352
F8.161235
aF7.2909427
aF3.6966474
aa(lp353
F7.326257
aF5.380968
aF3.7870286
aa(lp354
F2.942474
aF6.0399723
aF11.401189
aa(lp355
F1.5191209
aF6.9623384
aF9.913192
aa(lp356
F1.2144588
aF7.697957
aF6.7265096
aa(lp357
F1.8411411
aF8.848371
aF4.7261543
aa(lp358
F2.1775265
aF9.398438
aF2.8365304
aa(lp359
F1.9428947
aF9.288305
aF2.2319946
aaa(lp360
(lp361
F2.1559787
aF9.825205
aF-0.34117374
aa(lp362
F2.4073699
aF9.9951935
aF-0.52492875
aa(lp363
F2.1499932
aF9.94312
aF-0.41359833
aa(lp364
F2.099715
aF9.952098
aF-0.2837129
aa(lp365
F2.1051018
aF9.878476
aF-0.06404489
aa(lp366
F2.0009542
aF9.685144
aF-1.584363
aa(lp367
F2.3828292
aF9.056666
aF-0.54647654
aa(lp368
F3.7702692
aF7.8613615
aF2.5139117
aa(lp369
F3.0490158
aF6.1596823
aF14.342465
aa(lp370
F4.856638
aF5.088876
aF12.295423
aa(lp371
F6.670246
aF5.483919
aF8.177396
aa(lp372
F11.494562
aF5.348048
aF6.1626754
aa(lp373
F13.867815
aF3.7948096
aF4.791396
aa(lp374
F14.744093
aF4.5914803
aF3.0969
aa(lp375
F14.032416
aF5.6179943
aF-2.565387
aa(lp376
F16.465523
aF6.463746
aF-7.689577
aa(lp377
F14.998477
aF5.273229
aF-4.1940427
aa(lp378
F11.479
aF5.180454
aF-2.2661119
aa(lp379
F10.18254
aF5.6748567
aF1.210269
aa(lp380
F10.452486
aF6.5948286
aF1.6298528
aa(lp381
F9.604341
aF6.5487404
aF4.209007
aa(lp382
F9.118318
aF7.092224
aF6.3338604
aa(lp383
F6.349423
aF5.8334723
aF6.6905966
aa(lp384
F1.6759412
aF6.1848216
aF12.693459
aa(lp385
F0.39205053
aF7.055114
aF7.851186
aa(lp386
F0.53450555
aF8.130111
aF4.6160207
aa(lp387
F1.4155718
aF9.102755
aF2.3953989
aa(lp388
F1.650802
aF9.566631
aF1.0642227
aa(lp389
F1.9027919
aF9.841366
aF1.1988965
aaa(lp390
(lp391
F2.4313118
aF9.9928
aF0.90500826
aa(lp392
F2.272696
aF9.767146
aF0.4249708
aa(lp393
F2.331354
aF9.706693
aF-0.3513491
aa(lp394
F2.5025394
aF8.2037325
aF2.7898436
aa(lp395
F2.9706059
aF7.0724716
aF9.186552
aa(lp396
F3.9492357
aF6.5349736
aF11.200075
aa(lp397
F6.407482
aF6.801927
aF7.317279
aa(lp398
F9.900024
aF6.7306995
aF4.414908
aa(lp399
F11.773487
aF6.2099605
aF2.273893
aa(lp400
F12.6354
aF4.1922474
aF-0.12030864
aa(lp401
F14.473548
aF4.6926355
aF-5.8005524
aa(lp402
F14.790181
aF6.6145806
aF-11.180922
aa(lp403
F14.221559
aF5.6910176
aF-9.229049
aa(lp404
F11.371261
aF5.9226565
aF-3.685275
aa(lp405
F10.848128
aF7.315483
aF-0.9624691
aa(lp406
F10.605117
aF6.476914
aF3.5901055
aa(lp407
F7.4884644
aF6.1524997
aF4.534618
aa(lp408
F5.2498856
aF6.487688
aF6.736685
aa(lp409
F2.1745336
aF7.0850415
aF9.105149
aa(lp410
F1.5131354
aF7.9427643
aF7.7709804
aa(lp411
F1.134253
aF8.476072
aF5.518635
aa(lp412
F1.436521
aF8.966286
aF3.413533
aaa(lp413
(lp414
F2.3175871
aF10.049662
aF0.09756372
aa(lp415
F2.4199393
aF10.315418
aF-1.8854338
aa(lp416
F3.247136
aF9.739613
aF-1.7022774
aa(lp417
F3.152565
aF7.2448545
aF2.6007016
aa(lp418
F4.084508
aF5.040992
aF18.331205
aa(lp419
F4.793192
aF3.816956
aF15.053543
aa(lp420
F7.9409685
aF0.86849666
aF11.388618
aa(lp421
F19.063232
aF-1.4191631
aF7.0712748
aa(lp422
F19.607914
aF0.46447513
aF-0.6218939
aa(lp423
F19.607914
aF5.1547165
aF-18.182764
aa(lp424
F19.607914
aF3.8666358
aF-9.640852
aa(lp425
F17.02038
aF5.389348
aF-9.685743
aa(lp426
F12.411542
aF5.471948
aF-1.8746599
aa(lp427
F10.663176
aF7.477092
aF-0.6925228
aa(lp428
F10.7433815
aF7.608773
aF0.5835867
aa(lp429
F8.197148
aF7.6973586
aF2.742558
aa(lp430
F5.8185086
aF6.8103065
aF2.9873652
aa(lp431
F4.061165
aF7.1329255
aF3.4572272
aa(lp432
F2.2756886
aF7.1466923
aF4.175488
aa(lp433
F0.4345476
aF7.691373
aF5.0822916
aa(lp434
F-0.7990648
aF8.16363
aF5.470751
aaa(lp435
(lp436
F1.0127473
aF9.849746
aF-1.3395559
aa(lp437
F0.75716627
aF9.009381
aF-1.4742297
aa(lp438
F3.6631286
aF5.1247888
aF10.758944
aa(lp439
F4.8225207
aF3.9438488
aF19.608511
aa(lp440
F10.524312
aF1.7046716
aF7.9385743
aa(lp441
F19.05964
aF3.2650926
aF5.9801173
aa(lp442
F17.823635
aF3.6421793
aF-5.5180364
aa(lp443
F19.407997
aF6.0782795
aF-13.727156
aa(lp444
F19.087772
aF4.325125
aF-9.625289
aa(lp445
F14.229938
aF5.0302176
aF-5.4671597
aa(lp446
F12.142194
aF7.140108
aF-0.45190558
aa(lp447
F13.139379
aF6.8324533
aF1.2324153
aa(lp448
F9.38168
aF5.680842
aF5.2516813
aa(lp449
F3.9336734
aF5.8454432
aF9.451111
aa(lp450
F-0.12449849
aF6.985682
aF8.967483
aa(lp451
F-0.694917
aF8.2115135
aF6.199187
aa(lp452
F-0.4985925
aF9.36073
aF2.2828712
aa(lp453
F0.30705637
aF9.999982
aF0.75118077
aaa(lp454
(lp455
F1.2078748
aF10.236409
aF-0.3549404
aa(lp456
F1.0594343
aF10.152613
aF-1.1617863
aa(lp457
F1.1091139
aF10.230424
aF-3.5535939
aa(lp458
F1.4969746
aF7.1221514
aF3.25372
aa(lp459
F4.519056
aF4.574721
aF15.817892
aa(lp460
F5.286996
aF4.196437
aF15.196597
aa(lp461
F8.017583
aF4.031237
aF6.6002154
aa(lp462
F13.564948
aF5.758055
aF3.3806129
aa(lp463
F15.886725
aF5.3743844
aF1.4508862
aa(lp464
F16.106993
aF3.5859156
aF0.5686229
aa(lp465
F17.419014
aF5.349245
aF-12.88679
aa(lp466
F18.646044
aF5.4641666
aF-11.467628
aa(lp467
F15.693394
aF5.0439844
aF-9.547478
aa(lp468
F12.138602
aF5.2887917
aF-2.4540567
aa(lp469
F10.830172
aF7.050924
aF1.2132617
aa(lp470
F10.484209
aF7.6452847
aF2.6898856
aa(lp471
F7.8027034
aF7.6045833
aF2.944868
aa(lp472
F7.9289975
aF7.0503254
aF4.398747
aa(lp473
F3.8432922
aF5.78918
aF4.2251673
aa(lp474
F0.47345337
aF6.9928646
aF8.835203
aa(lp475
F-1.0426749
aF7.889493
aF7.076063
aa(lp476
F-0.55725044
aF8.893262
aF4.6902413
aa(lp477
F0.83138657
aF10.01734
aF2.135628
aa(lp478
F0.46986207
aF9.8916445
aF1.2856863
aa(lp479
F1.1510124
aF10.113108
aF0.78290397
aa(lp480
F1.163582
aF10.078392
aF0.75596917
aaa(lp481
(lp482
F1.4024036
aF10.001778
aF0.6895301
aa(lp483
F1.460463
aF10.09575
aF0.53450555
aa(lp484
F1.186327
aF9.973646
aF0.7146692
aa(lp485
F1.3096284
aF10.000581
aF0.8487445
aa(lp486
F1.3497312
aF9.911396
aF0.6733692
aa(lp487
F1.186327
aF9.726444
aF0.19512744
aa(lp488
F1.074398
aF9.676167
aF0.48602295
aa(lp489
F1.3796587
aF9.442133
aF0.089184016
aa(lp490
F0.7685388
aF8.084022
aF1.8950106
aa(lp491
F2.5875335
aF5.6245785
aF11.1073
aa(lp492
F3.9875429
aF4.2275615
aF17.642273
aa(lp493
F9.322423
aF4.5244427
aF11.282676
aa(lp494
F13.819332
aF4.729147
aF8.948928
aa(lp495
F19.186533
aF5.053561
aF0.6051345
aa(lp496
F17.672201
aF3.3967736
aF-2.991555
aa(lp497
F16.618753
aF2.6234465
aF-12.293029
aa(lp498
F18.176779
aF4.9907136
aF-11.856087
aa(lp499
F12.98196
aF4.5537715
aF-5.7442884
aa(lp500
F11.080365
aF5.711368
aF-0.3357868
aa(lp501
F11.538257
aF7.49026
aF0.09876082
aa(lp502
F12.594698
aF7.611766
aF2.1841104
aa(lp503
F9.858724
aF6.227319
aF2.801216
aa(lp504
F5.7466826
aF5.858013
aF11.556213
aa(lp505
F0.75836337
aF6.9850836
aF10.128671
aa(lp506
F-0.5590461
aF8.1642275
aF4.772841
aa(lp507
F0.4405331
aF9.400833
aF0.7356185
aa(lp508
F0.427365
aF9.741408
aF-0.23283611
aa(lp509
F0.95947635
aF9.987412
aF-0.06344634
aa(lp510
F1.2210429
aF10.0748005
aF0.76554596
aa(lp511
F1.3102269
aF9.997588
aF0.53929394
aaa(lp512
(lp513
F1.2054806
aF9.988011
aF0.5650316
aa(lp514
F1.3245921
aF9.968259
aF0.492607
aa(lp515
F1.3413515
aF9.91439
aF0.4309563
aa(lp516
F1.5095441
aF10.023325
aF0.09756372
aa(lp517
F1.3395559
aF9.94312
aF0.11192893
aa(lp518
F1.2072762
aF9.758766
aF0.0700304
aa(lp519
F0.8924387
aF9.470264
aF0.40462008
aa(lp520
F0.92535895
aF9.404425
aF0.18195933
aa(lp521
F1.9494787
aF10.156203
aF0.14664486
aa(lp522
F2.5773582
aF10.538677
aF-0.25019407
aa(lp523
F2.35769
aF8.026561
aF4.6082397
aa(lp524
F3.0280666
aF5.9106855
aF12.922704
aa(lp525
F3.4500446
aF4.957195
aF15.342643
aa(lp526
F7.5692687
aF4.7818193
aF8.048109
aa(lp527
F12.503119
aF4.9188876
aF7.359776
aa(lp528
F17.791912
aF4.619014
aF0.97743285
aa(lp529
F15.794549
aF4.6884456
aF-7.489063
aa(lp530
F15.585654
aF4.0037036
aF-10.810419
aa(lp531
F18.99799
aF4.675277
aF-12.510901
aa(lp532
F16.92162
aF4.31076
aF-9.922171
aa(lp533
F14.05157
aF5.691616
aF-1.8255788
aa(lp534
F15.003863
aF7.137714
aF1.388637
aa(lp535
F11.853094
aF5.604826
aF5.7544637
aa(lp536
F7.809886
aF3.5984852
aF9.234436
aa(lp537
F3.1190462
aF4.8757915
aF13.160328
aa(lp538
F-0.6871359
aF6.2315083
aF9.988609
aa(lp539
F0.6266823
aF9.105149
aF2.9191303
aa(lp540
F0.8535329
aF10.020931
aF0.63087213
aa(lp541
F1.1198878
aF10.24419
aF0.3800795
aaa(lp542
(lp543
F1.5400703
aF10.061633
aF0.32321724
aa(lp544
F1.5777789
aF10.089166
aF0.46507367
aa(lp545
F1.5813702
aF10.012551
aF0.63087213
aa(lp546
F1.3958195
aF9.887454
aF0.23942018
aa(lp547
F1.5759833
aF9.912594
aF0.19093758
aa(lp548
F1.5209166
aF9.970653
aF0.2717419
aa(lp549
F1.4760253
aF9.974244
aF0.18195933
aa(lp550
F1.584363
aF10.064626
aF0.28072014
aa(lp551
F1.4407109
aF9.94312
aF0.142455
aa(lp552
F1.335366
aF9.753978
aF-0.41000703
aa(lp553
F1.733402
aF9.299079
aF-0.24480712
aa(lp554
F1.851915
aF5.2439003
aF14.069527
aa(lp555
F4.080917
aF4.482544
aF14.983513
aa(lp556
F9.674969
aF4.629189
aF8.226477
aa(lp557
F15.816096
aF5.5150437
aF5.7843914
aa(lp558
F17.380108
aF4.9464207
aF-5.2439003
aa(lp559
F15.257648
aF4.757279
aF-6.214749
aa(lp560
F15.918448
aF4.1934443
aF-8.605958
aa(lp561
F17.975666
aF5.0332108
aF-11.74715
aa(lp562
F15.920843
aF3.750517
aF-8.380903
aa(lp563
F13.700819
aF4.995502
aF-2.3427265
aa(lp564
F13.937246
aF6.141726
aF1.7082629
aa(lp565
F12.357672
aF6.0124393
aF4.8279076
aa(lp566
F7.0688806
aF3.7966053
aF9.177573
aa(lp567
F2.5198972
aF5.3833623
aF15.643115
aa(lp568
F-0.8206126
aF6.431424
aF9.624691
aa(lp569
F-0.3286042
aF8.117541
aF5.3582234
aa(lp570
F0.31124622
aF9.084799
aF2.3361423
aa(lp571
F1.246182
aF10.0825815
aF0.09756372
aaa(lp572
(lp573
F1.6681601
aF9.964069
aF0.4201824
aa(lp574
F1.553837
aF10.108918
aF0.3513491
aa(lp575
F1.7585411
aF10.019135
aF-0.27353755
aa(lp576
F3.390788
aF10.681132
aF-2.532467
aa(lp577
F-0.12030864
aF8.27077
aF3.7433343
aa(lp578
F0.7673417
aF8.224682
aF4.1012673
aa(lp579
F0.9427169
aF7.960122
aF6.4787097
aa(lp580
F2.594716
aF8.515577
aF5.8628016
aa(lp581
F2.9376855
aF8.870518
aF4.252701
aa(lp582
F3.4566288
aF8.887876
aF3.0071173
aa(lp583
F4.899135
aF9.5971575
aF0.04070143
aa(lp584
F4.143166
aF9.251195
aF0.15741876
aa(lp585
F4.96737
aF9.204509
aF-1.1168951
aa(lp586
F5.171476
aF8.723872
aF-0.25558102
aa(lp587
F6.129755
aF8.764574
aF-1.4389153
aa(lp588
F6.567894
aF8.309077
aF-2.7581203
aa(lp589
F7.2514386
aF7.563283
aF-1.1563994
aa(lp590
F7.1089835
aF6.634333
aF-3.2968156
aa(lp591
F8.29531
aF7.162853
aF-5.556942
aa(lp592
F10.64043
aF7.2245035
aF-6.517616
aa(lp593
F9.76954
aF6.5804634
aF-4.0252514
aa(lp594
F8.471284
aF7.233482
aF-1.9129672
aa(lp595
F7.9732904
aF7.9355817
aF-0.3842694
aa(lp596
F6.805518
aF8.075044
aF-0.29628247
aa(lp597
F6.205172
aF8.453926
aF0.4794389
aa(lp598
F5.369596
aF8.568848
aF0.41958386
aa(lp599
F4.531027
aF8.996213
aF0.46806642
aa(lp600
F4.1054573
aF9.0716305
aF-0.074818805
aa(lp601
F3.6499605
aF9.097966
aF-0.44771573
aa(lp602
F3.3039982
aF8.911818
aF-0.062249243
aa(lp603
F2.92751
aF9.36492
aF0.38606504
aa(lp604
F1.3311762
aF9.00579
aF2.36188
aa(lp605
F0.33638534
aF9.263166
aF2.3523033
aa(lp606
F1.0528502
aF9.7958765
aF2.966416
aa(lp607
F0.75716627
aF9.791686
aF2.2649148
aa(lp608
F1.5275006
aF10.128072
aF1.0001777
aa(lp609
F1.3808558
aF10.028712
aF0.56443304
aa(lp610
F1.388637
aF9.964069
aF0.6697779
aa(lp611
F1.5047557
aF9.986814
aF0.17357962
aaa(lp612
(lp613
F1.34195
aF9.879673
aF1.353921
aa(lp614
F1.7082629
aF10.111911
aF0.7344214
aa(lp615
F1.0450691
aF9.502586
aF1.5634137
aa(lp616
F1.5460558
aF9.4972
aF2.0416555
aa(lp617
F1.7399861
aF9.269751
aF2.6809072
aa(lp618
F2.391209
aF9.083003
aF4.677073
aa(lp619
F2.2798786
aF8.817246
aF3.3854012
aa(lp620
F2.4007857
aF8.723872
aF2.8802247
aa(lp621
F3.1124623
aF8.971074
aF2.9604304
aa(lp622
F3.58412
aF9.245809
aF1.2306197
aa(lp623
F3.6828809
aF9.341577
aF1.7220296
aa(lp624
F4.1186256
aF9.238028
aF1.2036849
aa(lp625
F4.683657
aF9.18715
aF0.80924016
aa(lp626
F4.8961425
aF8.7849245
aF0.36750996
aa(lp627
F5.044583
aF8.6574335
aF0.2789245
aa(lp628
F6.3260794
aF9.002198
aF-0.41299978
aa(lp629
F5.389348
aF8.377312
aF-0.36631286
aa(lp630
F6.0106435
aF8.113351
aF-1.5741876
aa(lp631
F7.231686
aF7.8493905
aF-1.0480618
aa(lp632
F9.0237465
aF7.691373
aF-4.4436383
aa(lp633
F10.817602
aF7.8368206
aF-6.349423
aa(lp634
F9.609727
aF7.061698
aF-3.5410242
aa(lp635
F8.761581
aF7.0712748
aF-1.2431892
aa(lp636
F8.008006
aF7.1712327
aF-0.048482586
aa(lp637
F7.1431007
aF7.723695
aF-0.39923313
aa(lp638
F6.63972
aF8.114548
aF1.4185646
aa(lp639
F6.1249666
aF9.036316
aF0.8619126
aa(lp640
F4.923077
aF8.385093
aF0.830788
aa(lp641
F4.31495
aF9.110536
aF2.078167
aa(lp642
F3.3357215
aF9.063849
aF-0.0017956513
aa(lp643
F3.1364043
aF9.087193
aF0.6667852
aa(lp644
F3.4727895
aF8.860941
aF3.4799721
aa(lp645
F-0.24959552
aF8.2516165
aF2.3469162
aa(lp646
F0.8924387
aF9.143456
aF3.441665
aa(lp647
F0.42437226
aF9.481637
aF2.4660277
aa(lp648
F1.6238673
aF9.8683
aF2.4420857
aaa(lp649
(lp650
F2.1110873
aF10.08737
aF0.19273324
aa(lp651
F1.7603368
aF9.800665
aF-0.16519992
aa(lp652
F2.2559366
aF9.579201
aF2.0530279
aa(lp653
F2.0937295
aF8.917803
aF4.6519337
aa(lp654
F2.6833014
aF8.7538
aF4.6471453
aa(lp655
F2.9700072
aF8.252214
aF3.5194764
aa(lp656
F3.8708255
aF7.650073
aF4.6405616
aa(lp657
F4.4113164
aF8.075044
aF4.150947
aa(lp658
F4.9679685
aF8.722076
aF3.436278
aa(lp659
F5.8364654
aF9.169792
aF-0.013766659
aa(lp660
F6.885724
aF9.178771
aF0.9295488
aa(lp661
F7.1622543
aF8.401254
aF1.2479776
aa(lp662
F8.048708
aF7.267599
aF-0.20649989
aa(lp663
F8.157045
aF6.6744356
aF-2.3331497
aa(lp664
F7.72968
aF7.3609734
aF-2.9759927
aa(lp665
F7.575853
aF7.4950485
aF-4.2610803
aa(lp666
F8.986636
aF7.711125
aF-4.5244427
aa(lp667
F10.26514
aF7.6734166
aF-4.705205
aa(lp668
F9.376292
aF7.1909847
aF-1.6525977
aa(lp669
F8.288128
aF7.237672
aF-1.0049661
aa(lp670
F8.049905
aF7.9026613
aF-0.38726214
aa(lp671
F7.6201453
aF7.9864583
aF0.40821138
aa(lp672
F6.5631056
aF7.8811135
aF1.3790601
aa(lp673
F4.8045645
aF7.8266454
aF1.9644425
aa(lp674
F4.368221
aF7.961319
aF2.5582044
aa(lp675
F3.0753522
aF8.198345
aF2.9418752
aa(lp676
F3.1334114
aF8.280347
aF5.0613422
aa(lp677
F1.8656816
aF8.402451
aF6.0441623
aa(lp678
F1.6747441
aF9.11712
aF4.577115
aa(lp679
F1.4652514
aF9.440936
aF3.1627405
aa(lp680
F1.9243397
aF9.70789
aF1.9925743
aa(lp681
F1.9812019
aF9.790489
aF1.9734207
aa(lp682
F2.4193408
aF9.853935
aF1.3922282
aaa(lp683
(lp684
F2.134431
aF9.836577
aF0.74998367
aa(lp685
F2.1260512
aF9.834184
aF0.91338795
aa(lp686
F1.951873
aF9.872491
aF1.2072762
aa(lp687
F2.5887306
aF9.791686
aF2.2385786
aa(lp688
F2.043451
aF9.257779
aF3.1723173
aa(lp689
F1.9123687
aF8.559271
aF4.219182
aa(lp690
F2.19668
aF7.800309
aF5.465364
aa(lp691
F3.0226796
aF7.6650367
aF4.7626657
aa(lp692
F4.234744
aF8.397662
aF1.8417397
aa(lp693
F4.5076833
aF8.924985
aF0.8912416
aa(lp694
F5.2798133
aF9.227852
aF1.1504139
aa(lp695
F5.8651958
aF9.107543
aF0.15562311
aa(lp696
F7.1221514
aF9.078813
aF-0.7074866
aa(lp697
F6.573281
aF8.730456
aF-1.1558008
aa(lp698
F7.149685
aF8.837597
aF-0.5069722
aa(lp699
F6.103419
aF7.9625163
aF-1.0259154
aa(lp700
F6.5511346
aF7.8422074
aF-1.845331
aa(lp701
F7.819463
aF8.202535
aF-3.527856
aa(lp702
F9.536704
aF8.099585
aF-4.921282
aa(lp703
F9.144054
aF7.483676
aF-4.678869
aa(lp704
F8.423999
aF7.1927805
aF-2.1829133
aa(lp705
F8.234259
aF7.8625584
aF0.82121116
aa(lp706
F6.935404
aF8.093599
aF0.11492168
aa(lp707
F5.505467
aF8.387487
aF0.5662287
aa(lp708
F4.482544
aF8.823831
aF0.35075054
aa(lp709
F4.0575733
aF9.249998
aF0.74878657
aa(lp710
F3.7301662
aF9.651027
aF1.3335704
aa(lp711
F2.4301147
aF9.482835
aF2.5222914
aa(lp712
F1.0366893
aF9.132683
aF1.8980033
aa(lp713
F0.82899237
aF9.317036
aF2.6360161
aa(lp714
F-0.45848963
aF9.107543
aF1.988983
aa(lp715
F0.27234045
aF9.555259
aF1.7369933
aa(lp716
F0.15382746
aF9.792285
aF1.1839328
aaa(lp717
(lp718
F1.5125369
aF9.770139
aF0.57161564
aa(lp719
F2.1625626
aF10.196905
aF0.31064767
aa(lp720
F1.9434932
aF10.159196
aF0.7062895
aa(lp721
F2.1517887
aF9.727641
aF0.9391256
aa(lp722
F1.6891093
aF8.545505
aF3.8905778
aa(lp723
F2.5905263
aF8.450335
aF6.114791
aa(lp724
F3.6469676
aF8.540716
aF5.217564
aa(lp725
F3.8881836
aF8.569447
aF3.7187939
aa(lp726
F4.981735
aF8.610147
aF2.4025815
aa(lp727
F5.374983
aF8.259995
aF1.5616181
aa(lp728
F6.4685345
aF7.914034
aF0.47884035
aa(lp729
F7.3466077
aF7.650073
aF1.4969746
aa(lp730
F9.46009
aF6.661866
aF0.23403321
aa(lp731
F9.720459
aF7.642292
aF-2.520496
aa(lp732
F10.016742
aF7.36636
aF-4.6022544
aa(lp733
F10.997766
aF7.9631147
aF-8.009802
aa(lp734
F11.777079
aF7.1592617
aF-6.8240733
aa(lp735
F10.070012
aF6.4248405
aF-4.4897265
aa(lp736
F9.221867
aF6.8929067
aF-1.7657237
aa(lp737
F8.977059
aF7.6213427
aF-0.25258827
aa(lp738
F7.7787614
aF7.8092875
aF0.7763199
aa(lp739
F6.4152637
aF7.93618
aF2.0626047
aa(lp740
F5.191228
aF7.9595237
aF2.9095535
aa(lp741
F4.1341877
aF8.401853
aF1.6460136
aa(lp742
F2.7263973
aF8.118738
aF4.051588
aa(lp743
F2.132635
aF8.536526
aF4.610634
aa(lp744
F0.84216046
aF8.74542
aF4.4861355
aa(lp745
F1.0905589
aF9.123704
aF3.8109705
aa(lp746
F1.01574
aF9.491214
aF2.2451627
aa(lp747
F1.5478514
aF9.907207
aF1.0953473
aaa(lp748
(lp749
F2.1284454
aF9.808446
aF-0.20470424
aa(lp750
F2.131438
aF9.74859
aF-0.14844051
aa(lp751
F1.9267339
aF9.763555
aF0.0712275
aa(lp752
F2.3068132
aF9.923966
aF-0.08140286
aa(lp753
F2.2182279
aF9.815628
aF0.05746084
aa(lp754
F2.1625626
aF9.73662
aF0.866701
aa(lp755
F2.3110032
aF9.428965
aF1.7411832
aa(lp756
F2.373851
aF9.205706
aF3.401562
aa(lp757
F2.6689363
aF9.006987
aF4.232949
aa(lp758
F3.2650926
aF8.713697
aF3.7900212
aa(lp759
F3.7181952
aF8.911219
aF2.235586
aa(lp760
F4.6459484
aF9.548675
aF0.7356185
aa(lp761
F4.779425
aF9.5971575
aF-0.044891283
aa(lp762
F5.7909756
aF9.605537
aF-0.6787562
aa(lp763
F5.840655
aF9.00579
aF-0.2908955
aa(lp764
F6.4032927
aF8.462905
aF-1.8339585
aa(lp765
F6.190807
aF7.769783
aF-1.3623008
aa(lp766
F6.338649
aF7.5495167
aF-1.7238252
aa(lp767
F6.9108634
aF6.739079
aF-2.4265234
aa(lp768
F9.371504
aF7.445369
aF-5.5282116
aa(lp769
F10.914567
aF7.912238
aF-7.6213427
aa(lp770
F9.515156
aF6.579865
aF-2.8904
aa(lp771
F8.698134
aF7.28376
aF-1.4167689
aa(lp772
F8.281544
aF7.667431
aF-0.008379706
aa(lp773
F7.2634096
aF7.9194207
aF0.32561144
aa(lp774
F6.196194
aF8.161834
aF1.2384008
aa(lp775
F5.485116
aF8.632893
aF1.3000516
aa(lp776
F4.8883615
aF8.82802
aF1.3072342
aa(lp777
F3.4757824
aF8.810063
aF1.1504139
aa(lp778
F3.1663318
aF9.134478
aF1.4514848
aa(lp779
F1.7130513
aF9.157822
aF3.3608606
aa(lp780
F0.95588505
aF9.361927
aF3.4201171
aa(lp781
F0.3250129
aF9.351752
aF3.0059202
aa(lp782
F0.99778354
aF9.738416
aF1.5131354
aa(lp783
F1.3036429
aF9.8276
aF0.96546185
aa(lp784
F1.4520833
aF9.872491
aF0.050278235
aaa(lp785
(lp786
F2.2870612
aF10.167576
aF-0.12449849
aa(lp787
F1.9764135
aF10.147225
aF-0.14903906
aa(lp788
F1.7220296
aF10.080787
aF-0.4177882
aa(lp789
F1.4790181
aF9.605537
aF-0.47105917
aa(lp790
F1.9716251
aF9.625888
aF0.26874915
aa(lp791
F1.8848352
aF9.607333
aF0.9427169
aa(lp792
F1.8423382
aF9.639056
aF0.31364042
aa(lp793
F1.4580688
aF9.516952
aF-0.33399114
aa(lp794
F2.2942438
aF10.068815
aF0.46028528
aa(lp795
F2.4271219
aF10.46745
aF0.05865794
aa(lp796
F2.1254525
aF10.311228
aF-0.85532856
aa(lp797
F1.846528
aF9.850345
aF-0.6799533
aa(lp798
F1.9560628
aF9.733627
aF1.0929531
aa(lp799
F2.071583
aF9.356541
aF4.2461166
aa(lp800
F1.3802572
aF8.437167
aF6.930017
aa(lp801
F1.7298107
aF8.205527
aF4.9757495
aa(lp802
F2.7581203
aF8.772954
aF2.0123265
aa(lp803
F4.3424835
aF9.7803135
aF0.7823054
aa(lp804
F4.6034513
aF9.489418
aF0.4141969
aa(lp805
F4.6100354
aF9.099762
aF0.48722005
aa(lp806
F5.0996494
aF8.966286
aF0.35913026
aa(lp807
F5.6604915
aF8.550293
aF0.3172317
aa(lp808
F6.017826
aF8.030751
aF-0.28072014
aa(lp809
F6.9892735
aF7.482479
aF-0.21547815
aa(lp810
F8.474277
aF6.9000893
aF-1.4975731
aa(lp811
F9.777321
aF7.506421
aF-4.799776
aa(lp812
F11.8099985
aF7.282563
aF-6.8689647
aa(lp813
F10.869676
aF6.4218473
aF-4.84347
aa(lp814
F9.657013
aF6.3542113
aF-1.9165585
aa(lp815
F8.581417
aF7.5734587
aF-1.1815386
aa(lp816
F8.606557
aF8.01878
aF1.6675615
aa(lp817
F6.870162
aF8.360553
aF0.4973954
aa(lp818
F6.069301
aF8.285135
aF1.8327614
aa(lp819
F4.961983
aF8.459313
aF2.6689363
aa(lp820
F3.228581
aF8.682572
aF1.6466122
aa(lp821
F3.0705638
aF8.960898
aF2.03148
aa(lp822
F2.882619
aF9.324817
aF0.6679823
aa(lp823
F2.2200236
aF9.0716305
aF2.9257145
aa(lp824
F1.0965444
aF9.070433
aF3.6230257
aa(lp825
F0.38367084
aF9.205706
aF3.5583823
aa(lp826
F0.28431144
aF9.422979
aF2.7880478
aa(lp827
F1.1486182
aF10.038888
aF0.8882488
aa(lp828
F1.0971429
aF9.981427
aF0.58538234
aaa(lp829
(lp830
F1.887828
aF10.439318
aF0.22385786
aa(lp831
F1.8022354
aF10.035895
aF-0.10295067
aa(lp832
F1.7585411
aF9.895834
aF0.4309563
aa(lp833
F1.6831238
aF9.701904
aF0.16759412
aa(lp834
F1.3413515
aF9.354745
aF0.47345337
aa(lp835
F1.364695
aF9.3733
aF0.9828198
aa(lp836
F1.5646108
aF9.755175
aF1.1941081
aa(lp837
F1.6124948
aF9.834782
aF1.3305776
aa(lp838
F2.0602105
aF9.528324
aF3.976769
aa(lp839
F1.9698294
aF8.665215
aF5.7227407
aa(lp840
F3.0172927
aF8.756194
aF4.619014
aa(lp841
F3.1519666
aF8.340201
aF2.7700913
aa(lp842
F3.9492357
aF8.282143
aF1.8495208
aa(lp843
F4.6579194
aF8.430583
aF0.43394905
aa(lp844
F5.805341
aF8.940548
aF-0.20530279
aa(lp845
F6.471527
aF9.258378
aF-0.92655605
aa(lp846
F6.7588315
aF9.025542
aF-0.6787562
aa(lp847
F7.2245035
aF8.404845
aF0.22445641
aa(lp848
F7.483676
aF7.7248917
aF-0.49200845
aa(lp849
F8.087613
aF6.8288617
aF-1.2802993
aa(lp850
F9.414599
aF7.4190326
aF-5.430648
aa(lp851
F10.852318
aF7.0263834
aF-6.5337763
aa(lp852
F10.559028
aF6.7785835
aF-5.41329
aa(lp853
F9.896433
aF6.766014
aF-1.9991584
aa(lp854
F8.9998045
aF7.5686703
aF-0.11671733
aa(lp855
F7.8422074
aF7.699753
aF0.44651863
aa(lp856
F7.302315
aF7.9343843
aF0.7517793
aa(lp857
F6.151303
aF7.9726915
aF-0.16579847
aa(lp858
F5.6066217
aF8.056489
aF1.584363
aa(lp859
F5.2223525
aF8.610746
aF1.7603368
aa(lp860
F3.705027
aF8.27496
aF2.3570917
aa(lp861
F3.3931823
aF8.911818
aF2.078167
aa(lp862
F0.9032126
aF8.505402
aF5.1601033
aa(lp863
F0.8038532
aF9.113529
aF4.322731
aa(lp864
F0.96306765
aF9.500791
aF2.629432
aa(lp865
F1.252766
aF9.697714
aF1.6454151
aaa(lp866
(lp867
F2.3517046
aF9.911995
aF0.24001873
aa(lp868
F2.4720132
aF10.097546
aF-0.11671733
aa(lp869
F2.0033484
aF9.860519
aF0.480636
aa(lp870
F2.2661119
aF9.613917
aF1.721431
aa(lp871
F1.9997569
aF9.1033535
aF4.110844
aa(lp872
F2.2948422
aF8.828619
aF4.051588
aa(lp873
F1.9500773
aF8.338406
aF4.349666
aa(lp874
F2.7928362
aF8.537125
aF3.4865563
aa(lp875
F3.5236664
aF8.255207
aF3.3022027
aa(lp876
F4.8105497
aF8.810662
aF0.91338795
aa(lp877
F5.2115784
aF9.188946
aF0.26635495
aa(lp878
F5.7586536
aF8.868722
aF0.3369839
aa(lp879
F6.655881
aF8.337209
aF0.16879122
aa(lp880
F6.9288197
aF7.6387005
aF-0.034715924
aa(lp881
F8.024167
aF7.3549876
aF-0.20949265
aa(lp882
F9.186552
aF7.3867106
aF-1.608305
aa(lp883
F10.231023
aF6.8653736
aF-4.317344
aa(lp884
F11.395203
aF6.153697
aF-4.9039235
aa(lp885
F10.8948145
aF5.7149596
aF-4.3568487
aa(lp886
F9.384672
aF5.966949
aF-0.7104794
aa(lp887
F8.848969
aF6.7205243
aF0.39264908
aa(lp888
F7.914034
aF7.244256
aF1.2006922
aa(lp889
F7.065289
aF7.994838
aF1.0845734
aa(lp890
F6.179435
aF7.630321
aF1.1258733
aa(lp891
F5.036802
aF8.467094
aF1.3856442
aa(lp892
F5.4192758
aF8.8328085
aF-0.8319851
aa(lp893
F3.13401
aF8.77834
aF1.6053122
aa(lp894
F2.60968
aF8.919599
aF3.38181
aa(lp895
F0.6194997
aF8.84059
aF3.8804023
aa(lp896
F1.4443022
aF9.4535055
aF2.7030537
aa(lp897
F0.9283517
aF9.3104515
aF1.8686744
aaa(lp898
(lp899
F2.268506
aF9.650429
aF0.3250129
aa(lp900
F2.2218192
aF9.6923275
aF0.3250129
aa(lp901
F2.0254946
aF9.755774
aF1.0019734
aa(lp902
F1.8962077
aF9.834782
aF0.85772276
aa(lp903
F2.2481554
aF10.057443
aF0.40102878
aa(lp904
F2.2415714
aF10.0341
aF0.40282443
aa(lp905
F2.1278467
aF9.923966
aF0.05746084
aa(lp906
F2.3517046
aF9.935339
aF0.24779987
aa(lp907
F2.0931308
aF9.679757
aF0.22325931
aa(lp908
F1.8459295
aF9.531317
aF0.87089086
aa(lp909
F1.8393455
aF9.087791
aF2.337938
aa(lp910
F2.8209682
aF8.972271
aF4.533421
aa(lp911
F2.6198552
aF8.4647
aF6.0956373
aa(lp912
F3.3333273
aF8.428188
aF5.6179943
aa(lp913
F4.167108
aF8.54311
aF3.5296519
aa(lp914
F5.073912
aF8.656237
aF2.1039047
aa(lp915
F5.5988407
aF8.631696
aF0.34117374
aa(lp916
F6.161478
aF8.750807
aF-0.97025025
aa(lp917
F6.3709707
aF8.695142
aF-1.1091139
aa(lp918
F6.5391636
aF8.198944
aF-1.134253
aa(lp919
F6.2105594
aF8.202535
aF-0.88525605
aa(lp920
F8.961497
aF9.021951
aF-7.019201
aa(lp921
F6.2404866
aF7.089231
aF-0.46746787
aa(lp922
F7.9846625
aF7.788338
aF-4.4873323
aa(lp923
F9.439739
aF7.273585
aF-6.0806737
aa(lp924
F10.538078
aF7.680599
aF-6.3805475
aa(lp925
F9.671378
aF6.9946604
aF-2.4091654
aa(lp926
F8.704121
aF7.519589
aF-1.3174095
aa(lp927
F8.421604
aF7.9385743
aF-0.22744916
aa(lp928
F7.757812
aF8.040926
aF1.6124948
aa(lp929
F6.2285156
aF8.34918
aF1.9393034
aa(lp930
F6.05733
aF8.810063
aF1.9794062
aa(lp931
F4.292804
aF8.607754
aF1.5592239
aa(lp932
F4.3448777
aF8.589797
aF1.9812019
aa(lp933
F2.2403743
aF8.148665
aF3.3919852
aa(lp934
F2.2744915
aF8.690353
aF4.6686935
aa(lp935
F0.736217
aF8.343793
aF5.529409
aa(lp936
F1.0714053
aF9.012374
aF3.4997244
aa(lp937
F1.1845313
aF9.440936
aF2.3983915
aa(lp938
F1.4281414
aF9.808446
aF1.1420342
aa(lp939
F1.7190368
aF9.951499
aF1.1127052
aaa.