(lp0
(lp1
(lp2
F-3.9608475
aF2.65516968
aF-5.0200423999999995
aa(lp3
F-3.21960268
aF1.0007763368000007
aF-6.653725800000001
aa(lp4
F-3.90147148
aF3.143347370800001
aF-14.41572734
aa(lp5
F6.0151923
aF14.721467200000001
aF-11.608406519999999
aa(lp6
F19.6050408
aF12.179662620000002
aF0.4164715000000001
aa(lp7
F19.1940762
aF-8.525752379999997
aF-3.8583755799999997
aa(lp8
F7.563882013999999
aF-15.492759599999996
aF-12.9283302
aa(lp9
F-5.214212026
aF-4.526597579999997
aF-10.13992318
aaa(lp10
(lp11
F1.4829684399999998
aF4.301782019999999
aF1.86232962
aa(lp12
F4.173452599999999
aF0.9430760799999994
aF-0.007182720000000487
aa(lp13
F5.08564337
aF2.730946219999999
aF-7.378091420000001
aa(lp14
F15.30433586
aF17.103458319999998
aF-3.1878788200000017
aa(lp15
F26.46861854
aF6.737522479999998
aF10.743621111999996
aa(lp16
F25.91807174
aF-15.042888520000002
aF3.1546003319999967
aa(lp17
F12.03720816
aF-11.146085722000002
aF-3.505470160000003
aa(lp18
F0.21775245999999893
aF0.765785457999997
aF0.8072049199999969
aaa(lp19
(lp20
F1.26545546
aF0.58322758
aF-0.6903680000000001
aa(lp21
F3.811449494
aF-1.190397092
aF-0.2410960799999998
aa(lp22
F8.016625374
aF-1.5365985399999995
aF-7.409455339999999
aa(lp23
F13.914621580000002
aF11.014285092
aF-8.59482426
aa(lp24
F24.618978040000002
aF12.669516240000002
aF5.7173539600000005
aa(lp25
F27.086083340000005
aF-9.23647076
aF2.6285940800000005
aa(lp26
F17.885764360000003
aF-18.358498779999998
aF-7.198047300000001
aa(lp27
F3.294780620000003
aF-5.58794716
aF-3.04494546
aa(lp28
F-0.4993107999999971
aF1.0189722200000002
aF1.0991780600000007
aa(lp29
F0.279044240000003
aF0.3344700200000001
aF0.4440048000000007
aaa(lp30
(lp31
F1.04554794
aF0.23618801999999986
aF0.03722983999999983
aa(lp32
F3.82138532
aF-0.05793970000000006
aF-0.6537367799999998
aa(lp33
F5.4044315
aF-1.8271351200000001
aF-9.007824500000002
aa(lp34
F10.933960240000001
aF8.698014599999999
aF-9.5560965
aa(lp35
F24.7122323
aF14.114656239999999
aF2.9199684799999988
aa(lp36
F26.807039099999997
aF-7.237312760000002
aF4.216189199999998
aa(lp37
F18.772337099999998
aF-19.53548848
aF-8.585128400000002
aa(lp38
F3.1938649799999994
aF-7.028418460000002
aF-4.3430818600000025
aaa(lp39
(lp40
F1.0618284599999999
aF1.7860744599999996
aF0.17549494000000027
aa(lp41
F4.24994746
aF0.4064156999999999
aF0.7995436200000002
aa(lp42
F3.836109900000001
aF-2.9465440400000005
aF-6.127360599999999
aa(lp43
F10.093715460000002
aF8.335891799999999
aF-2.7767948399999995
aa(lp44
F26.954162860000004
aF4.6451100400000005
aF12.5915856
aa(lp45
F22.982660840000005
aF-16.16277656
aF0.6077678000000006
aa(lp46
F6.430466700000004
aF-7.123707672
aF-3.5629312399999997
aaa(lp47
(lp48
F-4.926668480000001
aF7.985380911999999
aF3.5822042599999997
aa(lp49
F-2.1340717000000007
aF5.082531031999999
aF2.2425290399999995
aa(lp50
F-3.43675688
aF6.303933051999998
aF-4.1750092
aa(lp51
F4.914458219999999
aF18.906890712
aF-3.0927104800000005
aa(lp52
F19.78783816
aF14.026789151999997
aF13.10801484
aa(lp53
F19.14391776
aF-9.503424048000003
aF8.003935779999997
aa(lp54
F6.594110620000002
aF-10.521558408
aF0.24157497999999755
aa(lp55
F-4.006337519999997
aF1.7028757919999997
aF2.909673439999998
aa(lp56
F-5.497566019999998
aF8.276276371999998
aF3.2131382199999985
aaa(lp57
(lp58
F0.07529769999999977
aF-0.3418920200000001
aF0.19476843999999965
aa(lp59
F1.9030311799999997
aF0.013287839999999874
aF0.3751714599999998
aa(lp60
F5.215289579999999
aF-4.096598794
aF-1.77182898
aa(lp61
F1.4730326799999993
aF4.346194340000001
aF-7.93570172
aa(lp62
F13.815980680000001
aF16.14086942
aF1.1274291000000005
aa(lp63
F26.02126218
aF1.1805807799999997
aF8.59374744
aa(lp64
F20.25351042
aF-17.29918414
aF-4.63637136
aa(lp65
F5.53958426
aF-8.367255934
aF-2.61075702
aa(lp66
F-0.29712050000000045
aF-1.2932280539999994
aF-0.18495208000000005
aa(lp67
F-0.22852640000000052
aF-1.1061212399999996
aF-0.13946222000000005
aaa(lp68
(lp69
F0.5315127399999999
aF1.1189301999999999
aF0.26072854
aa(lp70
F0.9433155
aF1.0151415799999999
aF0.2794033800000001
aa(lp71
F2.49140636
aF0.9220071359999998
aF1.0807427400000003
aa(lp72
F1.9723434599999998
aF-4.16986124
aF-3.5121743199999997
aa(lp73
F2.83916404
aF2.88142186
aF-6.265506147999999
aa(lp74
F20.0071467
aF13.699382260000002
aF10.534247952000001
aa(lp75
F26.24978858
aF-8.537244139999999
aF10.3399586
aa(lp76
F13.784975600000001
aF-17.39411414
aF-2.1539436600000004
aa(lp77
F2.651099540000001
aF-3.8804023399999976
aF-0.2823961800000003
aa(lp78
F0.09852140000000116
aF0.12988544000000202
aF-0.7765591800000002
aaa(lp79
(lp80
F0.9722852
aF1.0204088800000002
aF1.1761514800000001
aa(lp81
F2.3374590399999997
aF1.0579978
aF0.5989094400000001
aa(lp82
F2.00789714
aF-4.25377795
aF-2.98042182
aa(lp83
F0.8080431799999997
aF0.4916494600000007
aF-4.66055302
aa(lp84
F16.783234779999997
aF15.05593682
aF3.4098217999999996
aa(lp85
F25.800636379999997
aF4.54144112
aF8.97634098
aa(lp86
F21.504001719999998
aF-16.59205688
aF1.222599059999998
aa(lp87
F6.842628359999997
aF-11.755410520000002
aF-1.8515560200000016
aaa(lp88
(lp89
F0.8785524
aF3.19446374
aF1.3086706599999998
aa(lp90
F-0.11168930800000006
aF-3.5046322000000005
aF0.35254645999999995
aa(lp91
F1.57658214
aF4.58094588
aF-5.016450999999999
aa(lp92
F20.57852336
aF13.897382740000001
aF5.9322329200000015
aa(lp93
F23.424750300000003
aF-8.062234659999998
aF10.767682760000001
aa(lp94
F10.739072260000004
aF-12.059713319999997
aF-1.0529700599999998
aa(lp95
F-1.0472235799999972
aF1.0681732400000015
aF1.10061458
aaa(lp96
(lp97
F1.7404647400000002
aF4.074691919999999
aF-0.29400792
aa(lp98
F3.6069843600000007
aF3.351523293999999
aF0.1035490000000003
aa(lp99
F-1.6786945799999995
aF-4.879862046000001
aF-7.5883023199999995
aa(lp100
F11.854770340000002
aF9.236231039999996
aF-1.7660828000000008
aa(lp101
F26.802489939999997
aF-3.864480960000003
aF11.106581539999999
aa(lp102
F14.594814379999997
aF-9.657131860000002
aF0.17082613999999907
aa(lp103
F-0.13814554000000356
aF5.8981157799999995
aF2.466506419999999
aaa(lp104
(lp105
F2.44855026
aF-1.2977770800000001
aF-0.7194574600000003
aa(lp106
F5.161061020000001
aF-6.3469090999999995
aF-3.28843612
aa(lp107
F0.055785040000001375
aF-6.649775679999999
aF-9.43554872
aa(lp108
F16.31612584
aF11.025896980000002
aF-1.7543510400000002
aa(lp109
F28.307126240000002
aF-5.223549419999998
aF7.314525906
aa(lp110
F18.992603908
aF-19.886837351999997
aF-5.240907174000001
aaa(lp111
(lp112
F-10.954430668
aF13.485819492
aF5.4017977
aa(lp113
F-13.211444788
aF17.249624132
aF3.5182792340000004
aa(lp114
F-20.550151707999998
aF15.194800512
aF1.3892351340000004
aa(lp115
F-10.542986747999999
aF27.325860932
aF4.957673294
aa(lp116
F9.314522332000003
aF14.432486672000001
aF12.854109574
aa(lp117
F3.357987452000002
aF-1.5411474679999984
aF3.718434514000001
aa(lp118
F-13.252505427999997
aF15.028164432
aF6.4540493900000016
aa(lp119
F-20.715471347999998
aF20.910478332
aF7.591893810000002
aaa(lp120
(lp121
F4.89410746
aF-1.9401414600000002
aF-3.5656846359999994
aa(lp122
F6.652169720000001
aF-5.30950142
aF-5.653787736
aa(lp123
F3.2940624600000006
aF-6.144838340000001
aF-11.127411316
aa(lp124
F20.43283588
aF6.0495487599999995
aF5.869983963999999
aa(lp125
F28.609154479999994
aF-14.361978040000002
aF7.015130524
aa(lp126
F11.254304119999995
aF-12.585959200000001
aF-4.600817616000001
aa(lp127
F-0.5658696400000054
aF-1.694017580000002
aF-1.522832016000001
aa(lp128
F3.2690430599999942
aF-2.675999280000002
aF-3.955460836000001
aaa(lp129
(lp130
F1.2303800599999997
aF0.38714237999999973
aF1.10791686
aa(lp131
F3.668994284
aF-3.90733734
aF-1.21805016
aa(lp132
F6.192842044
aF-2.339853859999999
aF-10.336008119999999
aa(lp133
F20.09226062
aF8.964489080000002
aF3.661452680000001
aa(lp134
F25.738865820000008
aF-13.090895919999998
aF5.95821048
aa(lp135
F9.631873480000007
aF-13.468940579999998
aF-2.3239317799999997
aa(lp136
F-2.475963819999994
aF-1.2836513599999972
aF0.9629482000000003
aa(lp137
F-0.6405687399999938
aF-0.6719328199999971
aF0.30346522000000037
aaa(lp138
(lp139
F-0.39528272
aF0.5055357
aF0.0839167999999999
aa(lp140
F3.35355842
aF0.80038165
aF1.7920600993199998
aa(lp141
F-0.8852563399999991
aF-4.30836587
aF-4.651933520680001
aa(lp142
F3.946602020000001
aF7.08228774
aF-3.962762640000001
aa(lp143
F25.865399620000005
aF5.114852459999999
aF13.90767826
aa(lp144
F21.290319412000006
aF-17.41853514
aF4.840597359999999
aa(lp145
F4.428195872000005
aF-8.796656028000001
aF3.18153517
aaa(lp146
(lp147
F-4.449743671999999
aF8.984002308
aF-0.9161414300000006
aa(lp148
F-2.2513876519999996
aF9.554420828000001
aF-1.6348807700000005
aa(lp149
F-2.522171872
aF2.731305108000001
aF-6.70771517
aa(lp150
F-2.9504943919999995
aF10.864048868000001
aF-13.76378661
aa(lp151
F15.578831348
aF17.094479768000003
aF8.39419019
aa(lp152
F17.797897168000002
aF-4.901768831999999
aF10.249217910000002
aa(lp153
F2.9767108680000005
aF0.8036136880000001
aF-2.8485013699999984
aa(lp154
F-6.585012651999999
aF10.222283528
aF-1.2240357099999983
aaa(lp155
(lp156
F2.71705988
aF-1.42790194
aF-1.1942277399999999
aa(lp157
F1.6996440400000004
aF-9.216000619999999
aF-6.04224684
aa(lp158
F7.5407781400000005
aF0.9483431799999998
aF-7.342537780000001
aa(lp159
F28.203337480000005
aF3.5825637000000006
aF12.4578691
aa(lp160
F27.165451280000003
aF-19.9166451
aF3.4344819
aa(lp161
F9.930430759999998
aF-15.317743252
aF-3.9881417
aa(lp162
F-0.8572439200000014
aF-3.2986115519999997
aF-1.3511676400000006
aaa(lp163
(lp164
F3.5959714399999996
aF-0.44041338799999996
aF0.6223724799999999
aa(lp165
F-1.0597929600000011
aF-7.513124408
aF-6.03374726
aa(lp166
F7.0308133
aF4.854483151999999
aF2.1395786200000004
aa(lp167
F27.8979573
aF-3.216131088
aF15.41111682
aa(lp168
F16.198331160000002
aF-15.684534448000003
aF-1.0988191199999988
aa(lp169
F0.4893750800000035
aF-2.7591977180000007
aF-0.7639898799999987
aa(lp170
F-0.5679045799999967
aF-0.16855178800000076
aF0.5161898000000011
aaa(lp171
(lp172
F1.17100406
aF0.32632969999999994
aF0.02908956000000007
aa(lp173
F4.6482230200000005
aF0.85401182
aF1.3335702200000001
aa(lp174
F6.145197680000001
aF-8.67538992
aF-5.2344428800000005
aa(lp175
F11.835137880000001
aF2.185426839999999
aF-8.5972185
aa(lp176
F28.46586188
aF5.357504819999998
aF12.828012699999999
aa(lp177
F11.702858419999998
aF-4.102943240000002
aF8.88129096
aaa(lp178
(lp179
F1.2324151000000003
aF0.28826191999999995
aF-0.24145515999999995
aa(lp180
F4.545152318
aF-0.9345766400000002
aF1.1973400920000001
aa(lp181
F4.440765238
aF-5.6978408599999995
aF-6.871358868
aa(lp182
F11.60110452
aF6.40125696
aF-0.5622782739999991
aa(lp183
F27.339150259999997
aF-3.7329197199999995
aF14.953464926000004
aa(lp184
F17.216465079999995
aF-18.413685199999996
aF0.14736308000000306
aa(lp185
F2.903927199999994
aF-5.9185863079999965
aF-1.4794968399999968
aa(lp186
F-0.3567360600000063
aF-2.2037429079999966
aF0.7740453200000031
aaa(lp187
(lp188
F1.2623428399999999
aF-0.18148048000000006
aF-0.53809684
aa(lp189
F3.0757111000000004
aF-1.6646884399999997
aF-1.0168174200000002
aa(lp190
F3.980958700000001
aF-2.01555876
aF-5.24569574
aa(lp191
F10.310629420000001
aF8.216660659999999
aF-6.56334466
aa(lp192
F22.08387698
aF15.146557499999997
aF0.24684232000000036
aa(lp193
F25.91974778
aF2.4788367799999973
aF2.1288042799999998
aa(lp194
F24.394641179999997
aF-11.781268000000003
aF-3.4636917400000002
aa(lp195
F10.907384405999995
aF-11.810357900000003
aF-5.509536940000001
aa(lp196
F1.3230357999999953
aF-4.535336250000002
aF-2.05637966
aaa(lp197
(lp198
F0.8971074800000001
aF1.5322890900000001
aF0.07062857999999998
aa(lp199
F0.5425261400000002
aF2.4748863299999995
aF1.2489348599999999
aa(lp200
F0.8773551800000001
aF2.62596045
aF1.38815772
aa(lp201
F2.5427620000000006
aF-0.4327520159999999
aF1.1912344999999998
aa(lp202
F1.3248315600000005
aF-5.1652504100000005
aF-4.65025828
aa(lp203
F14.78994174
aF12.400527890000001
aF-5.50438968
aa(lp204
F26.949493940000004
aF8.662939670000004
aF5.74285154
aa(lp205
F23.837031740000008
aF-10.803475829999996
aF1.9621677800000001
aa(lp206
F12.257474820000004
aF-7.752185769999997
aF-3.80833728
aaa(lp207
(lp208
F-2.8093561400000007
aF6.2504227
aF2.8942308000000003
aa(lp209
F-0.9403225800000007
aF3.1009700599999994
aF2.3210588400000005
aa(lp210
F-4.21690722
aF3.5489253599999997
aF-2.4064118999999993
aa(lp211
F9.5149172
aF19.25524706
aF-0.5656302199999992
aa(lp212
F23.1169758
aF9.461525519999999
aF7.411371120000001
aa(lp213
F18.581519460000003
aF-7.723575160000001
aF0.21176704000000085
aa(lp214
F4.518098040000002
aF-3.5369544140000024
aF-1.6925807999999989
aa(lp215
F-3.2290597799999987
aF4.422808821999998
aF1.755548500000001
aaa(lp216
(lp217
F0.16172825999999993
aF2.822284908
aF1.1225214399999996
aa(lp218
F1.45124538
aF2.4323892020000004
aF1.13497124
aa(lp219
F0.22840697999999993
aF1.3548787223400003
aF-1.4741099400000002
aa(lp220
F-4.79067752
aF8.241081638
aF1.4026431
aa(lp221
F11.62229318
aF18.538542818
aF3.08516826
aa(lp222
F25.75430818
aF9.962632177999998
aF3.4404678999999994
aa(lp223
F21.780053259999995
aF-7.804259522000001
aF-4.370615120000001
aa(lp224
F7.460931059999996
aF-6.121255330000001
aF-4.1637562
aa(lp225
F-0.34380736000000434
aF0.8975862099999989
aF-0.09397233999999947
aaa(lp226
(lp227
F0.22601253999999998
aF2.0963630600000003
aF1.79756646
aa(lp228
F1.2176909400000002
aF1.722029596
aF2.07086464
aa(lp229
F0.46064454
aF-0.5228936759999999
aF-1.1820171800000001
aa(lp230
F-0.63793492
aF4.375283968000001
aF-2.4077286599999996
aa(lp231
F10.960535799999999
aF15.021221407999999
aF-2.58094946
aa(lp232
F24.76538334
aF12.725540967999999
aF2.488892318
aa(lp233
F23.910413939999998
aF-9.982264232000002
aF1.8507179979999997
aa(lp234
F11.503420939999998
aF-13.996861791999999
aF-2.4091652600000004
aaa(lp235
(lp236
F-2.7463887399999996
aF7.9628753660000005
aF2.1607669799999996
aa(lp237
F-4.4390892
aF6.180751266
aF-0.5336678800000009
aa(lp238
F-0.022624979999999795
aF14.595412426000001
aF0.08678961999999935
aa(lp239
F17.00972592
aF22.811235186
aF6.199066959999999
aa(lp240
F22.111769900000002
aF7.489781026
aF6.300700779999999
aa(lp241
F16.28404322
aF-6.293518413999999
aF-3.465846160000001
aa(lp242
F2.4292768200000006
aF-0.2551023539999996
aF-1.8046296000000008
aa(lp243
F-4.1892543799999995
aF6.143042638800001
aF1.6593012799999998
aa(lp244
F-5.25982172
aF6.887519638800001
aF3.0986954599999996
aaa(lp245
(lp246
F2.72771406
aF0.2885013232
aF-0.1697489800000004
aa(lp247
F3.01106776
aF-0.1369483228000002
aF-4.67946708
aa(lp248
F3.9305607999999994
aF9.9389297772
aF-5.440344420000001
aa(lp249
F16.384120919999997
aF10.818679147199997
aF-3.554312020000002
aa(lp250
F13.180200159999998
aF-6.892906452800001
aF-3.4040758600000016
aa(lp251
F3.015497119999998
aF-6.826228092799999
aF-2.0268116400000014
aa(lp252
F1.3930660799999979
aF-0.7620743708000001
aF-0.7284360000000015
aaa(lp253
(lp254
F0.5940015800000001
aF1.85383036
aF0.27904426000000004
aa(lp255
F1.8492815200000003
aF1.740584606
aF0.46076417999999997
aa(lp256
F1.3722368000000003
aF0.4966771240000002
aF-1.62362752
aa(lp257
F11.37437334
aF9.541851517999998
aF-0.7744042680000007
aa(lp258
F20.51735094
aF7.232165017999999
aF3.0374040719999997
aa(lp259
F19.610307740000003
aF-5.098691962000001
aF-0.19093746000000067
aa(lp260
F11.917618000000001
aF-6.896138702000002
aF-2.9706054600000007
aa(lp261
F3.3060335400000014
aF-3.876212422000002
aF-2.448669540000001
aaa(lp262
(lp263
F-2.5096022400000004
aF5.727289420000001
aF3.2923863200000008
aa(lp264
F-0.9502586600000005
aF4.640202130000001
aF1.9864691000000008
aa(lp265
F-2.9283482600000004
aF8.059601020000002
aF-3.360740719999999
aa(lp266
F5.110184080000001
aF18.827163940000002
aF-2.285385319999999
aa(lp267
F19.965966200000004
aF18.424339330000002
aF5.535513740000001
aa(lp268
F21.5250708
aF-0.5437232699999968
aF2.60129972
aa(lp269
F10.493786300000002
aF-6.608715059999997
aF-0.8979457199999995
aa(lp270
F-2.2705412399999987
aF-0.8802284799999971
aF0.43921588000000045
aaa.