(lp0
(lp1
(lp2
F1.9000384799999999
aF7.899788200000001
aF-2.2462400600000003
aa(lp3
F1.8868703599999996
aF9.875004500000001
aF-2.49403992
aa(lp4
F0.32309746599999956
aF8.210435880000002
aF-0.7509413400000001
aa(lp5
F0.34859574599999954
aF0.6530185140000011
aF-1.7216704352
aa(lp6
F11.720575299999998
aF-3.0729578399999986
aF-4.97048238
aa(lp7
F19.607914
aF-1.7906234659999984
aF3.92218132
aa(lp8
F16.790537000000004
aF-2.4120384859999984
aF10.731530000000001
aa(lp9
F11.038227560000003
aF-2.9920339199999986
aF6.8504095199999995
aa(lp10
F3.286400988000002
aF-2.1571757599999986
aF-1.3521254400000005
aa(lp11
F2.1484369160000023
aF3.3065122000000016
aF-9.41795162
aaa(lp12
(lp13
F-3.2160113800000003
aF-3.33524262
aF7.224024794740001
aa(lp14
F1.0004171319999997
aF-10.6874768
aF5.918107434740001
aa(lp15
F12.928569792000001
aF-12.41621016
aF6.948332415200002
aa(lp16
F13.837169392000002
aF-10.53544506
aF16.4522358152
aa(lp17
F9.426211592000001
aF-9.179129812000001
aF18.35430938
aa(lp18
F3.4781766120000013
aF-7.232284712
aF12.66269328
aa(lp19
F-2.5725696779999985
aF-6.726150472000002
aF7.331644160000001
aa(lp20
F-1.9145233979999987
aF-3.8122872200000018
aF1.2514493200000003
aa(lp21
F1.5984888320000015
aF1.2035655999999981
aF1.3063964200000002
aaa(lp22
(lp23
F-1.3848063000000004
aF-0.34249069999999976
aF3.7921759619999995
aa(lp24
F-4.213196460000001
aF-4.665700982
aF7.205469461999999
aa(lp25
F0.7843403799999997
aF-10.888231082
aF4.1156323399999994
aa(lp26
F11.81131556
aF-11.49947076
aF4.227800673999999
aa(lp27
F13.17206056
aF-11.26759242
aF14.334444593999999
aa(lp28
F10.06821716
aF-10.848247974
aF18.693926779999998
aa(lp29
F1.8454505400000003
aF-10.952036600000001
aF11.323376719999997
aa(lp30
F-3.87214244
aF-8.399458520000001
aF2.992153339999998
aa(lp31
F-1.7633296200000004
aF-1.9403809600000013
aF-1.060033040000002
aa(lp32
F-1.3306973000000002
aF1.2621034399999984
aF2.6245239399999982
aa(lp33
F-2.098517760000001
aF-0.008020560000001708
aF4.782776879999998
aaa(lp34
(lp35
F0.08188160000000008
aF0.6084859999999999
aF0.01053437999999991
aa(lp36
F-2.4961947399999995
aF-2.5743659
aF2.8172570456000003
aa(lp37
F-0.17286135999999958
aF-8.9515613824
aF1.1110291856000003
aa(lp38
F11.59368262
aF-11.6804724224
aF0.9582791000000004
aa(lp39
F16.46947452
aF-9.962632688
aF6.27304776
aa(lp40
F13.342886119999998
aF-10.013988368
aF10.02476186
aa(lp41
F6.379948819999997
aF-10.209834071999998
aF10.183856551999998
aa(lp42
F-0.6432023640000036
aF-9.922889001999998
aF3.5349190119999987
aa(lp43
F-0.6566098600000038
aF-5.432922829999998
aF-4.362355140000001
aa(lp44
F2.0707450599999957
aF0.828513000000002
aF-4.475122300000001
aa(lp45
F0.8097190399999958
aF0.612795400000002
aF-0.025737700000000883
aaa(lp46
(lp47
F-0.20195097999999997
aF0.03351879999999987
aF-0.14077914000000008
aa(lp48
F-1.6230293879999997
aF-0.9780314999999999
aF1.9151219244
aa(lp49
F-2.840361258
aF-7.45638206
aF1.6601394243999998
aa(lp50
F6.902124549999999
aF-13.9546046
aF-1.6600198599999998
aa(lp51
F16.11932262
aF-13.77527896
aF0.60118384
aa(lp52
F13.292248819999998
aF-10.187447946
aF9.86961754
aa(lp53
F6.968922619999995
aF-9.150279737999998
aF9.35211098
aa(lp54
F-1.0170569400000047
aF-9.345646605199999
aF4.347870260800001
aa(lp55
F-1.2583924800000046
aF-6.521925159999999
aF-2.0824765859999994
aa(lp56
F2.6688164799999954
aF-0.4720168999999995
aF-4.731780419999999
aa(lp57
F2.415629659999995
aF0.9804256000000002
aF-1.7769764599999995
aaa(lp58
(lp59
F-2.9799430960000004
aF-0.5033806799999994
aF1.8653225832
aa(lp60
F-7.453269575999999
aF-6.992625161999999
aF5.1702784952
aa(lp61
F0.9421184600000011
aF-12.89038195
aF-0.0065840800000003695
aa(lp62
F12.894572360000003
aF-11.635580868
aF1.5788563499999995
aa(lp63
F12.074079360000002
aF-13.78748938
aF13.98548975
aa(lp64
F5.065293160000003
aF-13.8715258
aF16.067128380000003
aa(lp65
F-2.5627533119999972
aF-13.224971579999998
aF6.066787432000003
aa(lp66
F-1.5439008319999963
aF-7.457339859999999
aF-3.2763454799999976
aa(lp67
F0.6737285400000035
aF-0.3120841999999989
aF-1.9758151599999976
aa(lp68
F-0.8275557199999966
aF-0.733104199999999
aF1.9893421000000022
aaa(lp69
(lp70
F-1.91212926
aF-0.11564040000000038
aF1.3086706199999998
aa(lp71
F-5.38659472
aF-8.029554200000002
aF2.28646264
aa(lp72
F5.147533780000002
aF-14.763605460000003
aF-4.750335380000001
aa(lp73
F14.024036839999999
aF-13.944668800000006
aF2.6338616399999992
aa(lp74
F10.89732864
aF-13.069827600000005
aF17.34994192
aa(lp75
F2.929425559999998
aF-13.403818700000006
aF9.452547860000001
aa(lp76
F-2.1128829800000024
aF-11.191576312000006
aF-1.1310207199999986
aa(lp77
F1.433408539999998
aF-3.650559212000007
aF-6.874471399999999
aa(lp78
F3.531806679999998
aF2.2655130999999926
aF-3.4810496999999985
aaa(lp79
(lp80
F-4.182909759999999
aF-3.9770083903999995
aF2.23498733
aa(lp81
F-1.5383941199999995
aF-12.4718753704
aF-1.090798356
aa(lp82
F10.69573752
aF-17.2127539
aF-5.175785492000001
aa(lp83
F12.59481812
aF-15.782817059999996
aF11.235150708
aa(lp84
F8.376473919999999
aF-12.454756919999998
aF13.046124759999998
aa(lp85
F-1.3581108320000017
aF-13.262081739999996
aF5.731838599999998
aa(lp86
F-5.668511992000001
aF-10.690709039999994
aF-2.635178160000002
aa(lp87
F-1.9217060200000016
aF-4.201105779999995
aF-6.987597360000002
aaa(lp88
(lp89
F-1.6038758640000002
aF2.4442401
aF5.23085195
aa(lp90
F-6.385695124
aF-6.874351679999999
aF11.373295990000003
aa(lp91
F3.411857180000001
aF-17.443195780000003
aF2.226487680000003
aa(lp92
F13.78341978
aF-17.7363659
aF3.202125180000003
aa(lp93
F13.743077379999999
aF-12.415851365999998
aF18.816749500000004
aa(lp94
F5.046737791999999
aF-10.678618339999996
aF14.938022980000003
aa(lp95
F-4.730822936000001
aF-11.023383371999996
aF7.573338800000002
aa(lp96
F-2.449747180000002
aF-5.041111251999996
aF-1.131619359999998
aaa(lp97
(lp98
F-3.9250543084
aF1.6342820519999997
aF10.00117912
aa(lp99
F1.3077130599999998
aF-8.439321888
aF6.868725139999998
aa(lp100
F14.90354696
aF-9.149561628
aF-1.5526399600000018
aa(lp101
F15.72284276
aF-7.430165638000001
aF13.676398279999997
aa(lp102
F11.314040080000002
aF-3.4349612580000013
aF20.89874716
aa(lp103
F0.4230555199999998
aF-5.261018928000001
aF13.32241556992
aa(lp104
F-1.5931017800000005
aF-3.0365661480000012
aF3.4845209800000005
aa(lp105
F2.5006239599999995
aF3.5921403519999986
aF-0.18267783999999948
aaa(lp106
(lp107
F-6.69035722
aF-6.827425100000001
aF7.6323559
aa(lp108
F0.1571796599999999
aF-22.1184731
aF-1.4727931999999995
aa(lp109
F13.25394212
aF-22.686856820000003
aF9.479482440000002
aa(lp110
F10.941502119999999
aF-18.49951742
aF21.3419139
aa(lp111
F-0.08092406000000381
aF-22.9556055
aF8.65934876
aa(lp112
F0.510803139999996
aF-12.88236124
aF-4.00107018
aaa(lp113
(lp114
F-7.714596879999999
aF4.60189472
aF12.714049020000001
aa(lp115
F-6.095517839999998
aF-11.603857779999998
aF11.685619660000002
aa(lp116
F8.968560200000002
aF-12.754750593999999
aF7.1536355200000035
aa(lp117
F9.012254200000003
aF-6.519650833999999
aF24.006181820000002
aa(lp118
F-0.6789958259999992
aF-7.68227504
aF19.488442960000004
aa(lp119
F-7.027341326
aF-5.6765326599999995
aF6.988315780000003
aa(lp120
F-3.9870643400000008
aF5.03775944
aF1.1499354000000035
aaa(lp121
(lp122
F-5.23300662
aF0.22984342600000005
aF10.85435256
aa(lp123
F-3.6303277600000015
aF-12.139320874000001
aF14.968428920000003
aa(lp124
F11.32230014
aF-20.1203925
aF3.3111809000000023
aa(lp125
F14.09382814
aF-15.3424037374
aF14.595771500000001
aa(lp126
F8.9253447
aF-10.336008197399998
aF21.9350768
aa(lp127
F-1.1623849519999996
aF-12.57542484
aF11.947305440000003
aa(lp128
F-0.31328117200000005
aF-5.019803279999999
aF0.7917620800000019
aa(lp129
F-1.14837876
aF2.0378244000000016
aF3.694971140000001
aaa(lp130
(lp131
F-2.38630086
aF0.16819299999999976
aF5.9463591000000005
aa(lp132
F-6.33984606
aF-9.01452814
aF11.93306034
aa(lp133
F4.69598744
aF-21.184495
aF2.30609524
aa(lp134
F15.2422069
aF-20.857686337999997
aF7.5746556
aa(lp135
F13.7566047
aF-15.175288037999994
aF18.38806744
aa(lp136
F2.966775279999999
aF-16.482521999999996
aF11.075936340000002
aa(lp137
F-0.965342040000001
aF-9.898227939999995
aF-1.5326477399999967
aaa(lp138
(lp139
F-4.11886506
aF1.40048808
aF8.43118088
aa(lp140
F-9.16536342
aF-4.23749768
aF15.827468340000001
aa(lp141
F-0.1286883000000003
aF-17.93089494
aF10.728178040000003
aa(lp142
F13.823043660000002
aF-22.000199600000002
aF7.324221700000004
aa(lp143
F13.839084860000003
aF-12.661615880000003
aF22.051434800000003
aa(lp144
F9.053434220000003
aF-9.18080608
aF19.352690880000004
aa(lp145
F-1.1063607799999968
aF-12.04319388
aF14.07862369
aa(lp146
F-1.1775882199999965
aF-6.577949820000001
aF4.067389260000001
aa(lp147
F0.49703618000000327
aF2.728551819999999
aF1.22511268
aaa(lp148
(lp149
F-2.518580552
aF-0.2889803000000004
aF3.74225692
aa(lp150
F-8.258679052
aF-5.724775719999999
aF12.10400616
aa(lp151
F-1.5330070599999985
aF-18.980872060000003
aF8.630498339999999
aa(lp152
F13.024936680000001
aF-24.1209835
aF3.0364457799999998
aa(lp153
F13.690045880000003
aF-17.319894419999997
aF18.15403404
aa(lp154
F8.60907088
aF-13.991235939999996
aF19.000264879999996
aa(lp155
F-2.244444339999999
aF-15.513828439999994
aF8.209717491999998
aa(lp156
F-1.4814123599999989
aF-9.002677319999993
aF-1.9167979800000032
aaa(lp157
(lp158
F-2.4841040100000003
aF4.79570572
aF7.603625439999999
aa(lp159
F-8.54299057
aF-2.6168623999999996
aF14.769231679999999
aa(lp160
F0.6994661200000003
aF-15.0011101
aF8.47511496
aa(lp161
F12.7253024
aF-17.10477562
aF7.4238209799999995
aa(lp162
F12.980165
aF-10.49103272
aF22.97212588
aa(lp163
F7.7642764
aF-10.392511160000002
aF20.990923979999998
aa(lp164
F-0.738372
aF-11.770374120000003
aF10.64737408
aa(lp165
F0.31890739999999995
aF-2.0174738600000017
aF0.1557427599999997
aa(lp166
F-0.22768868000000014
aF4.962821519999998
aF3.1652540399999998
aaa(lp167
(lp168
F-2.8262353399999998
aF0.08164179999999951
aF5.2729899200000006
aa(lp169
F-8.8448994
aF-12.4281818
aF13.805087
aa(lp170
F4.210682740000001
aF-25.166771
aF2.2067363600000007
aa(lp171
F13.423691080000003
aF-21.850323000000003
aF6.90775134
aa(lp172
F12.361623080000003
aF-13.255498200000002
aF20.65489786
aa(lp173
F3.366247748000003
aF-14.099334620000002
aF15.16319766
aa(lp174
F-2.360203951999997
aF-13.66789943
aF6.06343582
aa(lp175
F0.6277597400000031
aF-6.021657169999999
aF-2.31902344
aaa(lp176
(lp177
F-2.808637932
aF6.13035357
aF7.155430908
aa(lp178
F-9.020513792
aF-2.6052504100000005
aF16.765756588
aa(lp179
F0.36870710000000245
aF-16.028940830000003
aF11.035952980000001
aa(lp180
F12.755828140000002
aF-20.084598830000004
aF9.052955372000003
aa(lp181
F12.574946340000002
aF-10.783125090000008
aF22.748626892
aa(lp182
F6.2189390000000015
aF-9.190262810000007
aF17.803882262000002
aa(lp183
F-1.3532028399999987
aF-9.386587302000008
aF7.481162042000001
aa(lp184
F1.4051570200000012
aF0.0031124179999920897
aF-1.5859190599999995
aaa(lp185
(lp186
F-4.87411582
aF3.436517232
aF8.48349454
aa(lp187
F-11.53071472
aF-3.234087756000001
aF15.919765260000002
aa(lp188
F-6.44004324
aF-16.946039956
aF13.776595440000003
aa(lp189
F8.65982794
aF-21.321204168
aF7.827842340000002
aa(lp190
F10.46266194
aF-14.367364968
aF21.85870204
aa(lp191
F6.254013999999999
aF-10.244070788000002
aF23.27762584
aa(lp192
F-3.5998021170000016
aF-12.533645948000002
aF16.27769833
aa(lp193
F-3.6029144970000018
aF-8.004654268000001
aF5.879321229999999
aa(lp194
F-0.8200140400000018
aF0.28898013199999895
aF1.1599906999999987
aaa(lp195
(lp196
F-5.64732341
aF1.0632649600000001
aF7.767388819999999
aa(lp197
F-8.667129959999999
aF-1.3763069
aF12.066776485999998
aa(lp198
F-4.199070809999998
aF-4.147714980000001
aF10.904630914
aa(lp199
F4.8088736600000015
aF-4.2227732200000005
aF7.955812420000001
aa(lp200
F7.731236180000002
aF-5.221035580000001
aF10.246105794
aa(lp201
F5.834789380000004
aF-5.85657648
aF13.520176600000003
aa(lp202
F4.038180180000003
aF-3.92445578
aF17.036061780000004
aa(lp203
F1.9286489800000037
aF-3.1148564000000003
aF20.416195620000003
aa(lp204
F-2.986407647999997
aF-3.7667974600000007
aF18.86475292
aa(lp205
F-7.0379953919999965
aF-3.9329550800000006
aF13.763307700000002
aa(lp206
F-6.560232463999997
aF-2.3727736200000007
aF7.3710286000000025
aa(lp207
F-3.9056613599999963
aF0.42963957999999935
aF5.035365060000003
aa(lp208
F-3.1446643599999966
aF1.9397822999999992
aF6.048232200000003
aaa(lp209
(lp210
F-1.7988833800000001
aF-0.061052000000000106
aF2.9678523599999997
aa(lp211
F-4.008252730000001
aF-2.5803507199999998
aF5.8703431468
aa(lp212
F-0.9414002200000002
aF-7.403589868
aF4.7678133268
aa(lp213
F9.2476038
aF-11.841721607999999
aF1.2634204399999995
aa(lp214
F13.70488934
aF-15.1993501
aF5.663005299999999
aa(lp215
F11.364676939999999
aF-10.634206019999999
aF10.693941279999999
aa(lp216
F7.181527839999998
aF-8.609070499999998
aF13.729669239999998
aa(lp217
F1.6938976999999977
aF-8.009322999999998
aF12.053488726
aa(lp218
F-3.683239872000003
aF-6.0702591199999985
aF7.494449895999997
aa(lp219
F-4.111083708000003
aF-4.654328239999999
aF2.119586849999998
aa(lp220
F-0.5661089280000031
aF-2.3827095799999993
aF-1.0371682000000022
aa(lp221
F1.7428591399999966
aF0.1391033000000011
aF-0.684861460000002
aaa(lp222
(lp223
F-2.9648595900000005
aF0.48781859999999994
aF3.511575776
aa(lp224
F-6.703884329999999
aF-2.6892871400000002
aF8.178593076000002
aa(lp225
F-3.9151183119999993
aF-7.420229864000001
aF5.723937728000001
aa(lp226
F6.755838720000002
aF-9.996151444
aF0.6121974000000019
aa(lp227
F12.209471200000001
aF-12.45619374
aF4.179797340000002
aa(lp228
F9.819579000000001
aF-10.411306020000001
aF8.293754176000002
aa(lp229
F6.275202800000001
aF-8.0928808
aF12.902592324
aa(lp230
F1.544978280000001
aF-8.09683126
aF13.405254979999999
aa(lp231
F-4.022498169999999
aF-7.253234260000001
aF8.921274385999999
aa(lp232
F-4.080557509999999
aF-4.633977560000001
aF3.6452917259999986
aa(lp233
F-2.587892459999999
aF-2.690125280000001
aF-0.4180276400000015
aa(lp234
F-0.44125127999999914
aF-0.5871781200000006
aF-0.6947971600000014
aa(lp235
F-1.3788206799999991
aF-0.6441604000000009
aF1.5137340999999984
aaa(lp236
(lp237
F-3.5996822795
aF0.5862204999999999
aF2.238578606
aa(lp238
F-5.8301205595
aF-1.2848479400000001
aF4.355172616
aa(lp239
F-3.7275326399999997
aF-5.06074358
aF3.5656846
aa(lp240
F5.7084951
aF-7.418194309
aF-1.137365396
aa(lp241
F13.266990420000003
aF-11.381196689
aF-0.8092402999999997
aa(lp242
F11.810597220000002
aF-12.683163559999999
aF6.9951389399999995
aa(lp243
F6.8737530200000005
aF-9.395565507999999
aF11.73290488
aa(lp244
F3.6637271000000013
aF-7.767628047999999
aF11.972923819999998
aa(lp245
F-1.826416809999999
aF-5.421430199999999
aF8.22156894
aa(lp246
F-4.878425401999999
aF-2.6710910399999994
aF4.172734419999999
aa(lp247
F-3.601837039999998
aF-0.7540536399999989
aF0.9403227599999988
aa(lp248
F-2.2279243999999983
aF-0.42604799999999887
aF-0.5266046600000012
aa(lp249
F0.05494684000000207
aF0.40282480000000104
aF-0.3952827200000012
aa(lp250
F1.1386823000000021
aF0.9272746000000014
aF-0.40282448000000104
aaa(lp251
(lp252
F-1.4122198799999999
aF1.4593855999999996
aF2.48434344
aa(lp253
F-6.33517742
aF-3.7361517600000007
aF6.628826259999999
aa(lp254
F-0.0784099800000007
aF-13.117232719999999
aF2.3975536600000003
aa(lp255
F13.055702120000001
aF-16.419435319999998
aF-1.0243590700000003
aa(lp256
F13.182833920000002
aF-13.11208498
aF7.1480089499999995
aa(lp257
F9.73219042
aF-7.47637372
aF10.398975759999999
aa(lp258
F1.3548788200000008
aF-7.975923898
aF7.80581586
aa(lp259
F-3.995324013999999
aF-7.98765547
aF3.063620619999999
aa(lp260
F-3.299449313999999
aF-5.77972258
aF-5.298727560000001
aa(lp261
F-1.1135432399999985
aF-2.1838711
aF-5.689102160000002
aaa(lp262
(lp263
F-2.4679431440000004
aF0.7559691799999998
aF4.11766768
aa(lp264
F-6.112875724
aF-4.09228934
aF8.899127966
aa(lp265
F2.42353068
aF-10.55567612
aF4.117069386000002
aa(lp266
F13.97627254
aF-14.91934814
aF0.6039376068000013
aa(lp267
F12.651081739999999
aF-12.539870863999997
aF12.410104986800002
aa(lp268
F9.184157539999998
aF-7.587464569999999
aF16.757736040000005
aa(lp269
F3.197216939999998
aF-7.273345305999999
aF13.996503210000006
aa(lp270
F-2.360802510080002
aF-6.506602241999998
aF8.705197630000004
aa(lp271
F-1.5152901500800018
aF-3.9412151399999984
aF1.4375983800000047
aa(lp272
F0.36260189999999815
aF0.5181052800000018
aF-1.0413581799999954
aaa(lp273
(lp274
F-3.6942532799999994
aF0.0027532399999994793
aF6.06654818
aa(lp275
F-6.192483
aF-7.10407536
aF9.840049480000001
aa(lp276
F4.27951614
aF-14.5310089
aF3.9625236999999993
aa(lp277
F14.149852280000001
aF-17.56637778
aF1.6230294479999994
aa(lp278
F11.546756180000003
aF-18.9465154
aF13.887926488
aa(lp279
F8.341637980000002
aF-13.62707792
aF19.663459179999997
aa(lp280
F3.4520796800000006
aF-12.289437359999999
aF13.685616060000001
aa(lp281
F-1.6815675999999993
aF-9.94288024
aF7.4472843000000015
aa(lp282
F0.04213790000000071
aF-5.526057019999999
aF-0.5663484799999992
aa(lp283
F1.2498929000000003
aF-0.8540120999999988
aF-1.362300719999999
aaa(lp284
(lp285
F-1.7735048800000002
aF0.7560891999999999
aF2.60967986
aa(lp286
F-4.8522089
aF-0.75022282
aF7.090787539999999
aa(lp287
F-3.7132871400000007
aF-9.93390176
aF5.8960808999999985
aa(lp288
F9.44225306
aF-17.295832559999997
aF-1.6905457000000017
aa(lp289
F12.615647599999999
aF-14.421952511199995
aF7.356424239999998
aa(lp290
F8.9850798
aF-8.791508381199995
aF14.549204819999996
aa(lp291
F-0.26312269399999944
aF-9.857885799999995
aF11.519940979999998
aa(lp292
F-4.950849955999999
aF-9.010936985999994
aF4.946780099999998
aa(lp293
F-0.9050082079999993
aF-4.557482465999994
aF-2.862866480000002
aaa(lp294
(lp295
F-4.19140922
aF0.7547721999999997
aF7.817906547999999
aa(lp296
F-6.094200979999999
aF-5.78822198
aF10.648571208
aa(lp297
F4.519654460000001
aF-15.022538059999999
aF3.3262644400000005
aa(lp298
F12.80131824
aF-18.55961214
aF8.17679726
aa(lp299
F9.485588139999999
aF-12.120885384000001
aF19.959621580000004
aa(lp300
F3.4688394799999998
aF-8.994536784000001
aF17.478270980000005
aa(lp301
F-4.089895016000001
aF-8.90415567
aF10.764689960000005
aa(lp302
F-3.152205820000001
aF-5.130534750000001
aF2.970126860000005
aa(lp303
F-0.20063394000000115
aF0.3901352799999998
aF0.46052482000000483
aaa(lp304
(lp305
F-4.524442752000001
aF-2.3919273
aF6.8326923
aa(lp306
F-4.449264912000001
aF-11.16799322
aF8.34702486
aa(lp307
F8.731773539999999
aF-20.93657532
aF0.9390055999999987
aa(lp308
F13.242928259999996
aF-18.85397892
aF9.846992259999999
aa(lp309
F9.894995859999996
aF-10.861535319999998
aF17.085262659999998
aa(lp310
F1.9206284399999967
aF-12.14937636
aF13.301945119999996
aa(lp311
F-2.3894133400000035
aF-9.640253035999999
aF5.674856419999997
aa(lp312
F-0.06081288000000358
aF-4.0224981999999985
aF-2.2251713400000033
aaa.