(lp0
(lp1
(lp2
F2.8513744999999995
aF7.060859699999999
aF-3.36600822
aa(lp3
F2.106538408
aF7.816350119999998
aF-1.5678430200000002
aa(lp4
F1.668040348
aF3.4917037599999987
aF-2.0808006600000004
aa(lp5
F9.0316472
aF-1.6273388800000013
aF-5.29980486
aa(lp6
F18.5815196
aF-1.3156137960000014
aF-6.338050439999999
aa(lp7
F17.755519800000002
aF2.125213163999999
aF0.6848614400000006
aa(lp8
F11.445002400000002
aF2.8939913599999985
aF4.50696496
aa(lp9
F4.544075200000002
aF1.8727445999999985
aF0.8489838640000006
aa(lp10
F0.7576451460000018
aF0.6683414039999986
aF-5.206670536
aa(lp11
F2.8649017800000016
aF1.2783840059999987
aF-10.9792107
aaa(lp12
(lp13
F-1.5569492799999998
aF2.3831882639999997
aF4.9993327
aa(lp14
F-2.3227347199999997
aF4.330512343999999
aF8.33122352
aa(lp15
F-3.55431208
aF3.3328484439999997
aF8.032906
aa(lp16
F-4.410957454
aF1.5631740839999995
aF8.00501349
aa(lp17
F-2.399588674000001
aF-3.3371581760000004
aF9.29991763
aa(lp18
F6.1279591799999995
aF-6.556521476
aF6.177639299999999
aa(lp19
F13.02697148
aF-5.982152482
aF8.387367674
aa(lp20
F11.450389479999998
aF-2.042254162
aF13.284587454
aa(lp21
F5.2814892199999965
aF-0.46148245600000004
aF14.528016099999999
aa(lp22
F-1.6498443480000033
aF-0.9660604960000001
aF12.725541375999997
aa(lp23
F-5.863040788000004
aF-2.3089682359999997
aF9.098924399999996
aa(lp24
F-6.458837880000003
aF-2.7915196159999995
aF3.9580944999999956
aa(lp25
F-2.2038625600000037
aF-0.909437576
aF0.993594099999996
aaa(lp26
(lp27
F-1.6826449999999997
aF0.90129716
aF2.2353465999999997
aa(lp28
F-3.6264973399999993
aF0.7455542800000001
aF7.715434849999999
aa(lp29
F-3.450284028
aF-4.7447092799999995
aF8.26861497
aa(lp30
F6.798335939999999
aF-9.053793540000001
aF3.8748957200000005
aa(lp31
F13.284109039999999
aF-6.076244580000003
aF7.534313420000001
aa(lp32
F8.847533439999998
aF-2.850656380000003
aF15.034509380000003
aa(lp33
F1.0277110999999977
aF-2.1493947200000028
aF15.082513076000001
aa(lp34
F-4.379952606800002
aF-2.0705057000000027
aF11.125137056
aa(lp35
F-5.824374476800002
aF-2.8291085400000027
aF4.9874813599999985
aa(lp36
F-3.258388794000002
aF-1.4396336800000025
aF0.15286979999999878
aaa(lp37
(lp38
F-0.63494218
aF0.6546945000000001
aF2.707004
aa(lp39
F-2.14209226
aF-0.4125209599999999
aF6.3610348000000005
aa(lp40
F-1.18680576
aF-3.0170532800000003
aF6.3634291
aa(lp41
F3.9284061
aF-7.261613680000001
aF4.8186900800000005
aa(lp42
F11.69794976
aF-8.742666860000002
aF5.423944200000001
aa(lp43
F12.950236960000002
aF-5.355470040000002
aF9.178052482000002
aa(lp44
F7.989211500000001
aF-2.877351560000002
aF13.530591462
aa(lp45
F1.2368445800000003
aF-2.0298041400000018
aF13.528077580000001
aa(lp46
F-3.9061400579999996
aF-2.1899761600000014
aF9.683947360000001
aa(lp47
F-5.0998890359999995
aF-2.545156040000001
aF4.775474660000001
aa(lp48
F-1.94828166
aF-1.7147273400000014
aF0.3305194000000011
aaa(lp49
(lp50
F-1.1332953799999999
aF1.8872296800000001
aF5.3971293346
aa(lp51
F-4.869447193000001
aF-2.62320688
aF9.9815469546
aa(lp52
F0.8293513599999998
aF-9.78953142
aF5.403833260000001
aa(lp53
F12.170445740000002
aF-8.947371013999998
aF5.897038759999999
aa(lp54
F12.327984340000002
aF-5.077981953999998
aF12.70578936
aa(lp55
F7.718547340000003
aF-3.1111452399999986
aF16.8655952
aa(lp56
F0.8117542140000029
aF-2.554732759999999
aF14.630847224800002
aa(lp57
F-5.334879973999998
aF-3.586394277199999
aF9.383475304800001
aa(lp58
F-5.757456525999997
aF-4.704725875199999
aF3.5586220600000003
aa(lp59
F0.45046899400000273
aF-1.2580331279999986
aF-0.30609819999999976
aaa(lp60
(lp61
F-1.93391636
aF2.1922506999999998
aF4.39958484
aa(lp62
F-3.5022381599999997
aF0.9461884000000002
aF7.4772114400000005
aa(lp63
F-3.6900633999999997
aF-3.5069069999999996
aF7.619666500000001
aa(lp64
F2.64379728
aF-8.81245788
aF5.781159020000001
aa(lp65
F11.292252719999999
aF-9.267715311999998
aF6.309319940000001
aa(lp66
F10.03014932
aF-4.291726271999998
aF10.92988976
aa(lp67
F2.610158719999999
aF-1.8510770399999985
aF15.25286024
aa(lp68
F-3.8192305520000005
aF-1.0886435599999984
aF13.567222600000003
aa(lp69
F-6.872675686000001
aF-2.220981223999998
aF8.360671900000003
aa(lp70
F-6.196074300800001
aF-3.1724369639999983
aF2.6907235000000016
aa(lp71
F-2.9907170300000003
aF-1.5703568399999985
aF-0.35601779999999844
aaa(lp72
(lp73
F-1.5087062599999999
aF1.7082627799999996
aF4.25282038
aa(lp74
F-1.5033192800000004
aF0.6921636
aF6.1523800600000005
aa(lp75
F-0.27629090000000034
aF-3.2219970680000003
aF6.44770486
aa(lp76
F7.25119912
aF-8.3741994
aF5.13520344
aa(lp77
F13.8310642
aF-5.956654164
aF8.55316588
aa(lp78
F10.5666896
aF-1.0668563839999994
aF14.708538780000001
aa(lp79
F3.269761159999999
aF-0.37864307999999935
aF15.006736559999998
aa(lp80
F-3.7318421880000017
aF-1.0906786399999995
aF11.014405199999999
aa(lp81
F-4.8277880080000015
aF-1.8746599999999998
aF5.135083599999999
aa(lp82
F-1.4749479940000016
aF-1.1455058999999996
aF0.3855861999999993
aaa(lp83
(lp84
F-0.689170846
aF2.28957504
aF3.3516429000000003
aa(lp85
F-2.1988346860000005
aF1.7688361999999997
aF6.68508994
aa(lp86
F-1.535521106
aF-2.4911668600000008
aF7.78175392
aa(lp87
F7.066845494000001
aF-7.73039842
aF5.714480479999999
aa(lp88
F14.696447874
aF-7.051881759999999
aF7.4852319939999985
aa(lp89
F11.578119674000002
aF-1.9292477399999988
aF15.419736133999999
aa(lp90
F4.514267194000003
aF-0.21775257999999878
aF16.168881919999997
aa(lp91
F-2.0045453235999973
aF-0.6880935199999989
aF12.036130651199997
aa(lp92
F-4.084747403599996
aF-2.2956802799999987
aF5.843168839999995
aa(lp93
F-1.1608285659999962
aF-0.9537301799999984
aF-0.12234400000000445
aa(lp94
F0.7068881340000038
aF1.8213889200000017
aF1.1359285999999957
aaa(lp95
(lp96
F-0.6386532
aF0.6075288399999998
aF1.7806876799999998
aa(lp97
F-1.4410700000000003
aF0.8901642000000001
aF4.300225880000001
aa(lp98
F-2.6374525800000006
aF-2.042852528
aF6.500497240000001
aa(lp99
F0.8265980799999995
aF-7.859086748
aF5.64792218
aa(lp100
F11.21096954
aF-8.635646036
aF3.7859513000000007
aa(lp101
F13.086108540000001
aF-4.1071333160000005
aF9.16691964
aa(lp102
F7.269634440000002
aF-1.4161703399999999
aF14.001531219999999
aa(lp103
F-0.642005117999999
aF-2.0045453799999997
aF12.082339143999999
aa(lp104
F-5.151124925999999
aF-3.4211944819999998
aF6.554845783999999
aa(lp105
F-3.357987577999998
aF-4.162918159999999
aF1.7359162599999998
aa(lp106
F1.526662740000002
aF-1.46393462
aF-1.7456124000000006
aaa(lp107
(lp108
F-3.04650192
aF1.1902774800000002
aF4.6249991
aa(lp109
F-3.84353166
aF0.5760449679999999
aF8.48756486
aa(lp110
F-0.9931148399999994
aF-4.620809232
aF8.074206020000002
aa(lp111
F7.958685600000001
aF-6.664619500000001
aF5.42238834
aa(lp112
F11.101913200000002
aF-4.419816040000001
aF7.860523652
aa(lp113
F7.495527200000002
aF-0.7365761800000005
aF13.470497152000002
aa(lp114
F-0.03196259999999747
aF0.13646947999999953
aF15.15625464
aa(lp115
F-5.354033549999998
aF-0.4679467000000005
aF11.04792426
aa(lp116
F-5.605185291999997
aF-1.7397466800000003
aF5.04697758
aa(lp117
F-1.7681178599999972
aF-0.7144298000000007
aF1.2830531000000005
aaa(lp118
(lp119
F-1.9681534800000002
aF0.7665038399999999
aF2.6622326
aa(lp120
F-3.07834486
aF0.5291188000000002
aF4.7305834
aa(lp121
F-3.585197360000001
aF-2.5638307599999997
aF6.48002646
aa(lp122
F2.5471910799999997
aF-6.47739292
aF4.844187959999999
aa(lp123
F11.79132392
aF-5.056314472
aF6.665337559999999
aa(lp124
F11.120707719999999
aF-1.5832854720000005
aF16.06222004
aa(lp125
F1.9073404519999975
aF-3.5352781400000004
aF18.82441042
aa(lp126
F-5.276461498000002
aF-8.464700060000002
aF12.42913877
aa(lp127
F1.8849550199999978
aF-5.210142020000001
aF0.14508880000000027
aa(lp128
F2.3309947199999974
aF0.2558204199999986
aF0.8127119800000002
aaa(lp129
(lp130
F-4.938759368
aF0.47812227999999984
aF5.3546317000000005
aa(lp131
F-4.189134708
aF-6.68820226
aF7.064450780000001
aa(lp132
F7.028658300000001
aF-8.328948639999998
aF4.305851500000001
aa(lp133
F9.636183200000001
aF-2.9671339799999985
aF11.685858664000003
aa(lp134
F0.8647854000000024
aF-3.217208379999999
aF16.841532739999998
aa(lp135
F-7.414722981999998
aF-6.156689479999999
aF11.008060152
aa(lp136
F-2.936248751999997
aF-7.0419456799999995
aF-0.23678660000000065
aaa(lp137
(lp138
F-4.547068080000001
aF2.24995106
aF5.672103099999999
aa(lp139
F-5.592735691200001
aF3.8782479200000006
aF8.717168468999999
aa(lp140
F-4.3864170512000005
aF-4.27592428
aF10.693462188999998
aa(lp141
F7.447643500000001
aF-4.940315269999999
aF5.742851399999998
aa(lp142
F8.984361539999998
aF1.6116570100000007
aF13.933176219999998
aa(lp143
F0.4593274399999984
aF1.6998833280000007
aF19.12440414
aa(lp144
F-6.667133660000002
aF-0.6708551739999994
aF14.18767996
aa(lp145
F-4.157172440000001
aF-1.6156071799999996
aF3.5320456600000014
aa(lp146
F-0.9318237000000007
aF2.173097260000001
aF1.2154162800000015
aaa(lp147
(lp148
F-1.46369516
aF3.3917459
aF3.5053508
aa(lp149
F-5.84939372
aF1.35547728
aF10.450570736
aa(lp150
F-1.771948664
aF-8.05708718
aF8.375994976
aa(lp151
F10.40831344
aF-7.278253359999998
aF7.247488
aa(lp152
F9.19588964
aF-2.777633066599998
aF20.1786908
aa(lp153
F0.5446811000000007
aF-4.251623386599999
aF17.09723322
aa(lp154
F1.228465020000001
aF-1.8877082759999986
aF0.10666141999999894
aaa(lp155
(lp156
F-4.00286598
aF1.33728134
aF2.680907440000001
aa(lp157
F-5.760688726
aF3.213856616000001
aF7.58315518
aa(lp158
F-6.8925476119999995
aF-3.2338481949999993
aF9.402269456
aa(lp159
F3.8356309540000004
aF-6.878182344
aF4.22660368
aa(lp160
F9.187629800000002
aF-1.270483103999999
aF12.79413503
aa(lp161
F1.315015480000001
aF-0.4073734119999993
aF21.2461461
aa(lp162
F-7.25550858
aF-3.221158983999999
aF15.883014550000002
aa(lp163
F-6.695145488
aF-5.172912233999999
aF7.380246370000002
aa(lp164
F-1.4097056799999992
aF-1.3866019039999995
aF-0.5284000999999978
aaa(lp165
(lp166
F-3.2249897600000006
aF1.6402674799999999
aF4.66929152
aa(lp167
F-6.13514204
aF-2.7093983600000002
aF9.3949669
aa(lp168
F1.4711173200000005
aF-10.80922202
aF5.212895080000001
aa(lp169
F12.02032926
aF-4.2273220799999995
aF10.576385680000001
aa(lp170
F2.9741969539999973
aF-4.0606858
aF22.0036709
aa(lp171
F-7.366479966000003
aF-9.30650142
aF15.346234058000002
aa(lp172
F0.3072954999999979
aF-7.3481641600000005
aF1.080263638000001
aa(lp173
F2.7989412199999983
aF0.32034412
aF-0.21045019999999912
aaa(lp174
(lp175
F-7.4819999280000005
aF-1.04111856
aF7.34636822
aa(lp176
F-3.9152380240000006
aF-7.938454559999999
aF7.07474606
aa(lp177
F7.219955039999999
aF-7.210018679999999
aF8.389402139999998
aa(lp178
F5.864477639999999
aF-3.575021927999999
aF21.49825474
aa(lp179
F-5.860167788000003
aF-9.342055248
aF20.88198732
aa(lp180
F-6.110361740000002
aF-10.82849528
aF6.644508019999996
aa(lp181
F0.05841865999999847
aF-2.029445080000001
aF-2.3483528000000033
aaa(lp182
(lp183
F-2.2531831799999997
aF2.3864205800000002
aF1.7221490800000006
aa(lp184
F-5.405867945999999
aF2.34440242
aF6.124487480000001
aa(lp185
F-6.032310825999999
aF0.19644442000000026
aF7.39700572
aa(lp186
F-3.2264262399999994
aF-8.209478039999999
aF6.724713966
aa(lp187
F7.767628620000001
aF-10.716207359999999
aF5.597284360000001
aa(lp188
F9.167159280000002
aF-4.400183531999998
aF19.43900228
aa(lp189
F-1.9823989839999996
aF-7.5495165119999985
aF20.29385206
aa(lp190
F-5.239710424
aF-10.954190939999998
aF8.984002359999996
aa(lp191
F0.8658630799999996
aF-5.226183119999997
aF-2.3494300200000033
aaa(lp192
(lp193
F-5.025908245999999
aF1.1055227
aF8.49821856
aa(lp194
F-4.963419498
aF-3.52091298
aF11.44607959984
aa(lp195
F6.23258632
aF-8.20349268
aF9.447160719999998
aa(lp196
F8.351693919999999
aF-5.764758779999999
aF20.985297279999997
aa(lp197
F-2.7794290200000007
aF-6.414545079999999
aF26.660872079999997
aa(lp198
F-8.44530716
aF-6.093123499999998
aF14.724938845999995
aa(lp199
F0.3245336999999999
aF-0.7624335279999983
aF3.394618699999996
aa(lp200
F2.1503521400000003
aF4.040694180000001
aF2.1367051999999953
aaa(lp201
(lp202
F-3.613329366
aF0.7685387800000001
aF1.96049206
aa(lp203
F-5.764040786
aF-3.8815995
aF5.01190198
aa(lp204
F2.9307421400000004
aF-10.661140679999999
aF2.862746940000001
aa(lp205
F11.908998819999999
aF-8.800726280000001
aF9.44979432
aa(lp206
F6.071096959999998
aF-6.730340400000001
aF21.079988179999997
aa(lp207
F-4.187578760000002
aF-7.504505580000002
aF13.546632639999999
aa(lp208
F-6.460633792000003
aF-7.9503059400000025
aF4.5129505
aa(lp209
F0.6247666999999968
aF-4.001429294000003
aF-4.406887320000001
aa(lp210
F2.2638372199999965
aF-0.3651156800000031
aF-4.143166020000001
aaa(lp211
(lp212
F-5.517078666000001
aF3.0036456400000002
aF6.34894406
aa(lp213
F-8.225040486
aF0.29340930000000026
aF9.31284596
aa(lp214
F-3.4663252599999987
aF-2.07170284
aF6.52539668
aa(lp215
F2.3845050600000013
aF-3.5735855360000004
aF6.21271384
aa(lp216
F5.914875400000002
aF-2.7151444760000003
aF8.220491379999999
aa(lp217
F4.928823800000002
aF-0.3620033800000006
aF12.06031217
aa(lp218
F0.8651450600000018
aF0.9999382799999996
aF14.69728588
aa(lp219
F-4.244320939999998
aF1.5292963399999997
aF14.555908300000002
aa(lp220
F-7.586387171999999
aF1.2734759199999997
aF12.347017826000002
aa(lp221
F-9.102036575199998
aF0.9253588199999996
aF9.19936084
aa(lp222
F-8.769122825199998
aF-0.8825029000000004
aF5.100487420000002
aa(lp223
F-6.787082925999998
aF-1.3910312000000002
aF1.2163741000000015
aaa(lp224
(lp225
F-0.86694046
aF1.5623363
aF3.4759016599999994
aa(lp226
F-1.33608422
aF1.3321338600000001
aF6.07863858
aa(lp227
F0.2494758599999999
aF-1.6211139164000001
aF6.72220002
aa(lp228
F6.73632608
aF-4.1902121244
aF5.7495554
aa(lp229
F12.000457760000002
aF-3.144544528
aF7.15770512
aa(lp230
F11.882184160000003
aF0.02825161999999981
aF11.047923860000001
aa(lp231
F7.441897100000003
aF1.7738640599999997
aF14.33779634
aa(lp232
F0.7104793000000026
aF1.5740679999999996
aF13.595952969999999
aa(lp233
F-2.8852524679999974
aF1.1605892599999996
aF10.49785605
aa(lp234
F-4.170100791999998
aF-0.11599908000000037
aF6.438486979999999
aa(lp235
F-3.418800321999998
aF-1.6991649400000004
aF2.403538759999999
aa(lp236
F-0.4271255599999977
aF-0.7212531600000004
aF0.7398080999999991
aaa(lp237
(lp238
F-1.6007632600000001
aF1.5952565
aF2.81462352
aa(lp239
F-2.6275166800000003
aF0.8562861999999999
aF5.43399984
aa(lp240
F-0.5711368600000004
aF-1.8250999580000005
aF5.7779269
aa(lp241
F5.914276719999999
aF-3.9876626610000008
aF4.78361498
aa(lp242
F11.416870639999999
aF-2.566105443000001
aF5.8461618
aa(lp243
F10.846092939999998
aF0.4872200399999988
aF10.432733906
aa(lp244
F6.239289639999997
aF2.0937294599999987
aF13.300748100000002
aa(lp245
F0.37948088799999696
aF2.238458899999999
aF11.590450134000001
aa(lp246
F-4.745906352000003
aF1.1807005599999991
aF8.091563773999999
aa(lp247
F-5.812882360000002
aF0.3549404199999989
aF4.87519318
aa(lp248
F-4.847181120000003
aF-0.34284966000000117
aF2.541564840000001
aa(lp249
F-2.490448640000003
aF-0.05327104000000107
aF0.9713275000000012
aaa(lp250
(lp251
F-1.5516821459999999
aF0.8924387399999999
aF3.69892212
aa(lp252
F-1.3468581619999997
aF-0.84706852
aF6.00250336
aa(lp253
F3.921463
aF-3.775296932
aF5.70155218
aa(lp254
F12.14279272
aF-4.218583344
aF6.93037612
aa(lp255
F14.797483519999997
aF-1.2680888999999995
aF8.618647452
aa(lp256
F11.365395519999996
aF0.3848679200000006
aF12.782044652
aa(lp257
F5.924811379999997
aF1.2706027400000006
aF13.719135160000002
aa(lp258
F0.6256049459999972
aF1.3901931200000006
aF11.189780660800002
aa(lp259
F-3.060388324000003
aF0.6931213200000004
aF7.5221031008000026
aa(lp260
F-4.147715060000003
aF0.12401972000000035
aF4.578671480000002
aa(lp261
F-3.195541040000003
aF-0.8678981399999994
aF2.3854631400000015
aa(lp262
F-0.526963840000003
aF-1.0480618199999991
aF-0.40126799999999785
aa(lp263
F0.7444770399999969
aF0.05099646000000089
aF-0.8263585999999978
aaa(lp264
(lp265
F-0.62943564
aF0.8725669
aF3.4919432199999996
aa(lp266
F-1.3575123279999999
aF-0.12509685999999992
aF5.605424819999999
aa(lp267
F0.7767986920000001
aF-3.149572236
aF6.165428499999999
aa(lp268
F7.660368
aF-4.612788612
aF5.498284239999999
aa(lp269
F12.02715248
aF-2.9650990359999994
aF6.2789138
aa(lp270
F11.40454008
aF-0.5431245599999992
aF8.948448668000001
aa(lp271
F7.361212480000001
aF1.1475409200000009
aF11.167275066000002
aa(lp272
F1.7624915400000005
aF2.0575769800000008
aF10.545500912000003
aa(lp273
F-2.7745206529999993
aF1.4873979800000006
aF8.472122220000005
aa(lp274
F-4.963778712999999
aF0.39875442000000055
aF6.344634540000004
aa(lp275
F-4.938041061999999
aF-0.6649894599999995
aF3.4164061400000043
aa(lp276
F-2.4417266619999993
aF-0.7612363599999996
aF1.4930242000000047
aa(lp277
F-0.2633621999999992
aF-0.5889735599999996
aF0.6760028000000045
aaa(lp278
(lp279
F-0.957321512
aF1.45603378
aF2.9204473999999996
aa(lp280
F-2.7881675919999998
aF-1.439513772
aF6.4988213
aa(lp281
F3.5368343199999996
aF-5.934866791999999
aF6.551015
aa(lp282
F12.831724020000001
aF-5.202001672
aF6.7685282199999985
aa(lp283
F13.91462162
aF-1.4277821919999991
aF9.668265543999999
aa(lp284
F9.004832019999998
aF0.9190142200000011
aF12.36653084
aa(lp285
F1.6136920359999998
aF0.5841852400000012
aF11.032122507999999
aa(lp286
F-4.426639484000001
aF-0.768897859999999
aF7.432679628
aa(lp287
F-4.62224578
aF-1.0705672799999992
aF3.5681985
aa(lp288
F-1.0673350600000002
aF-0.3405751199999991
aF0.24253271999999998
aaa(lp289
(lp290
F0.51475328
aF1.4167689199999998
aF1.43747888
aa(lp291
F-0.1511939200000001
aF1.3850456999999998
aF3.320159339999999
aa(lp292
F-0.3410541
aF-0.64667392
aF5.598362019999999
aa(lp293
F4.66977068
aF-2.3306356785999998
aF5.071158719999998
aa(lp294
F10.19965828
aF-2.899258571
aF5.733035779999998
aa(lp295
F11.62744028
aF-1.8731037359999996
aF7.364205439999999
aa(lp296
F11.064204080000001
aF-0.2560599199999995
aF7.523060679999999
aa(lp297
F9.065764080000003
aF1.3742717400000004
aF8.187451659999999
aa(lp298
F4.896501380000002
aF2.6876110600000005
aF8.04643322
aa(lp299
F0.31794994600000165
aF2.942952820000001
aF7.450516400000001
aa(lp300
F-2.8391641399999985
aF2.273893160000001
aF5.88506756
aa(lp301
F-3.9288850399999986
aF1.479496880000001
aF4.13083608
aa(lp302
F-2.627995539999999
aF0.6703765000000012
aF2.5087643999999996
aa(lp303
F-0.38426945999999873
aF0.550187540000001
aF0.33255447999999943
aaa(lp304
(lp305
F-1.36708918
aF1.9882648000000003
aF4.526597840000001
aa(lp306
F-1.4161703016
aF-0.9909600799999996
aF6.82455262
aa(lp307
F5.12957724
aF-3.4701559999999994
aF5.6189523999999995
aa(lp308
F11.775880760000002
aF-3.0825347539999997
aF5.822339919999999
aa(lp309
F11.798864960000001
aF-2.17058328
aF8.151658639999999
aa(lp310
F9.411606960000002
aF-0.8358157999999998
aF10.104848354
aa(lp311
F7.012018360000001
aF0.7936778600000003
aF9.96299193
aa(lp312
F3.9929299600000006
aF2.5680207400000006
aF9.147047968
aa(lp313
F0.13443440800000114
aF2.9188909800000005
aF8.47176338
aa(lp314
F-3.380612855999999
aF1.2087126600000004
aF7.079535099999999
aa(lp315
F-4.660313629999999
aF-0.41635177999999956
aF4.438012479999999
aa(lp316
F-3.4568681199999993
aF-0.21547815999999953
aF2.161605699999999
aa(lp317
F-1.032379779999999
aF1.0344149600000005
aF1.0699693999999993
aaa(lp318
(lp319
F0.06512226000000002
aF0.5999869399999997
aF1.78451812
aa(lp320
F-0.6868964700000001
aF0.1252166599999999
aF3.8205472799999995
aa(lp321
F0.14257472999999984
aF-2.0513521
aF4.667017319999999
aa(lp322
F4.48864938
aF-3.77948692
aF4.01100598
aa(lp323
F8.928696519999999
aF-4.912303453
aF4.61913316
aa(lp324
F10.928932320000001
aF-5.222831428
aF6.327276379999999
aa(lp325
F10.814369619999999
aF-4.685692276
aF6.85914832
aa(lp326
F9.365757819999999
aF-2.92607372
aF6.62164344
aa(lp327
F6.6479797199999995
aF-0.13838502000000014
aF6.71717208
aa(lp328
F2.942473859999999
aF1.2582724999999997
aF7.08025278
aa(lp329
F-0.6843825460000008
aF0.4699815599999996
aF6.339726200000001
aa(lp330
F-2.3691822940000007
aF-0.7236475800000003
aF4.012442440000002
aa(lp331
F-2.456570662000001
aF-1.41868434
aF1.5817292000000014
aa(lp332
F-1.0700884820000012
aF-0.5470752200000001
aF-0.49775479999999883
aaa(lp333
(lp334
F0.18866312000000002
aF0.8365342000000002
aF2.65947932
aa(lp335
F-0.43335045999999994
aF-0.6503847799999999
aF4.471291519999999
aa(lp336
F1.7875109999999999
aF-4.249348792000001
aF5.38647518
aa(lp337
F8.81940086
aF-7.107666492000002
aF6.47751292
aa(lp338
F14.152245599999997
aF-7.034403912
aF7.612723559999997
aa(lp339
F14.009192099999996
aF-5.310099891999999
aF7.916787219999998
aa(lp340
F11.349473899999996
aF-3.800675449999999
aF8.13657494
aa(lp341
F7.413765419999995
aF-1.5691597399999992
aF7.51875122
aa(lp342
F1.1222820601999952
aF-0.15334835999999913
aF7.06481058
aa(lp343
F-2.973359059800005
aF-0.45058851999999927
aF5.91655138
aa(lp344
F-3.8758533800000046
aF-1.965040979999999
aF3.6300888999999996
aa(lp345
F-2.1133617600000045
aF-2.427840119999999
aF0.1470042999999995
aaa.