(lp0
(lp1
(lp2
F5.400481000000001
aF5.1514840799999995
aF-2.95205072
aa(lp3
F6.52060826
aF6.2268397
aF-3.7746983999999997
aa(lp4
F7.30961754
aF6.845262100000001
aF-3.41257538
aa(lp5
F12.6928603
aF5.459258880000002
aF-9.600748779999998
aa(lp6
F2.2546196599999986
aF-4.968088019999999
aF-11.365275519999996
aa(lp7
F-1.5702371460000009
aF-5.7776874199999995
aF-0.14772221999999502
aa(lp8
F10.724467434
aF0.2584540760000003
aF5.290108500000005
aa(lp9
F19.2491424
aF3.1959001600000003
aF3.1537621480000047
aa(lp10
F13.53466181
aF-1.7275361999999999
aF-6.021776439999995
aa(lp11
F4.206612422000001
aF1.17196174
aF-7.031052199999995
aaa(lp12
(lp13
F1.3776234680000004
aF0.05123598000000005
aF-0.6698975799999999
aa(lp14
F6.304172048
aF1.3766659999999997
aF-4.38749424
aa(lp15
F1.522233187999999
aF-3.563290446
aF-8.069058239999999
aa(lp16
F-6.841311732000001
aF-8.475952885999998
aF-3.702632873999998
aa(lp17
F-3.544854992000001
aF-6.582618219999999
aF3.888183546000002
aa(lp18
F9.175419148
aF-1.6894684799999997
aF5.432204220000002
aa(lp19
F13.029963848
aF-1.6584634759999997
aF0.14616606600000176
aa(lp20
F5.560293988
aF-4.897698728
aF-6.608475639999997
aa(lp21
F-1.1092337120000013
aF-2.7262774319999994
aF-3.487035059999998
aa(lp22
F0.8914809879999985
aF0.3217807800000007
aF-1.1714828199999983
aaa(lp23
(lp24
F0.051235860000000064
aF-0.46375686
aF-0.2887407800000001
aa(lp25
F1.62829646
aF-0.12342130000000022
aF-1.75291502
aa(lp26
F2.7259182799999997
aF-1.3048400600000003
aF-6.50636274
aa(lp27
F-3.0109481008000007
aF-6.39778579932
aF-6.899969260000001
aa(lp28
F-7.316919860800001
aF-8.517971158
aF2.40282092
aa(lp29
F-1.2264297999999996
aF-6.846938131399999
aF8.061636179999999
aa(lp30
F10.353126940000001
aF-4.155376559999999
aF4.140891559999998
aa(lp31
F7.755417800000001
aF-5.906256288
aF-3.3940205200000007
aa(lp32
F-1.497812619999999
aF-5.678926819999999
aF-3.81851252
aa(lp33
F-1.1136628399999988
aF-1.5005659999999985
aF0.4242525399999998
aaa(lp34
(lp35
F1.8436548600000002
aF1.1415552400000002
aF-0.58250936
aa(lp36
F3.88878198
aF-0.13670905519999987
aF-5.832754319999999
aa(lp37
F-3.10731486
aF-5.3519985152
aF-7.813597279999999
aa(lp38
F-6.85364194
aF-6.996096800000001
aF1.7430984200000013
aa(lp39
F5.528570960000001
aF-5.271433600000001
aF5.816593320000001
aa(lp40
F13.968491180000001
aF-3.2295386600000007
aF0.297718960000001
aa(lp41
F7.254071452
aF-6.967605780000001
aF-4.825034639999999
aa(lp42
F-2.721369648000001
aF-5.226781720000001
aF-3.6994007999999985
aaa(lp43
(lp44
F2.23402968
aF1.8197129399999998
aF0.42688615999999985
aa(lp45
F7.09497734
aF1.8227055999999997
aF-5.0587088
aa(lp46
F0.6695385940000002
aF-4.8209645000000005
aF-7.52940526
aa(lp47
F-6.011720726
aF-6.1554925659999995
aF0.9719261000000003
aa(lp48
F0.61351424
aF-2.4999056459999993
aF7.2553887
aa(lp49
F12.138483260000001
aF0.31423898000000083
aF5.002564640000001
aa(lp50
F11.59212606
aF-2.2436064599999996
aF-1.2885593599999994
aa(lp51
F4.226005380000001
aF-3.406829311199999
aF-4.23570186
aa(lp52
F0.9384073200000005
aF-0.2809595799999993
aF0.03782826000000057
aaa(lp53
(lp54
F3.0265104600000003
aF2.3455995
aF-0.27281914
aa(lp55
F5.97640654
aF1.7355569400000008
aF-6.0051365
aa(lp56
F-2.1559785200000006
aF-3.4814087299999996
aF-5.069841820000001
aa(lp57
F-7.066486241999999
aF-3.6469677080000005
aF2.23917728
aa(lp58
F-0.618901021999999
aF-0.9816226000000002
aF7.128735739999999
aa(lp59
F10.492708620000002
aF1.2459427199999997
aF4.573164739999999
aa(lp60
F11.628158740000002
aF-0.11204850800000035
aF-1.9208680000000005
aa(lp61
F2.368224540000002
aF-2.2917298280000002
aF-4.36534788
aaa(lp62
(lp63
F0.3456030200000001
aF3.608900018
aF2.5388114600000002
aa(lp64
F2.7293901600000003
aF5.050089558000001
aF2.78661132
aa(lp65
F4.6252388
aF4.740040458000001
aF-2.2151152799999996
aa(lp66
F-1.1888407159999996
aF0.06596022100000028
aF-2.91422218
aa(lp67
F-6.240486656
aF-2.7790696729999995
aF4.907395320000001
aa(lp68
F2.2086512399999996
aF-0.31316161599999964
aF11.354501620000002
aa(lp69
F12.833160800000002
aF1.995327698
aF6.062717220000002
aa(lp70
F7.559691960000004
aF-0.6740875859999997
aF-1.5348029399999976
aa(lp71
F-1.154483979999997
aF0.49428289000000036
aF0.8039731000000021
aaa(lp72
(lp73
F1.7660829
aF3.018130724
aF1.5053542800000002
aa(lp74
F6.410954079999999
aF4.578072728
aF-2.41706646
aa(lp75
F1.682405699999999
aF-0.9676166419999994
aF-4.618654479999999
aa(lp76
F-5.579926460000001
aF-3.9665936839999993
aF3.7136461800000005
aa(lp77
F2.458126819999999
aF-0.36475664399999913
aF10.56357694
aa(lp78
F13.51359258
aF3.3690008680000005
aF6.6919133639999995
aa(lp79
F10.01674138
aF1.0928333480000003
aF-1.4891937599999998
aa(lp80
F1.3915100399999993
aF-0.01771713199999967
aF-0.41120429999999963
aaa(lp81
(lp82
F4.70305008
aF3.62577912
aF-1.3448231600000002
aa(lp83
F4.851610199999999
aF1.7909824600000004
aF-5.4775741799999995
aa(lp84
F-3.3265037840000007
aF-3.47542328
aF-1.0377666199999989
aa(lp85
F-2.39336372
aF-3.69401388
aF7.679162580000001
aa(lp86
F11.42764442
aF1.36409636
aF9.171707918000001
aa(lp87
F13.508924380000002
aF1.3925873199999999
aF-0.8731655219999993
aa(lp88
F3.1194056860000012
aF-1.7507600200000002
aF-3.584239759999999
aa(lp89
F-0.5659892339999993
aF1.3183671599999998
aF1.9231424400000008
aaa(lp90
(lp91
F5.7772087139999995
aF2.8830975200000006
aF-2.0866664
aa(lp92
F8.149862414000001
aF1.2880803600000004
aF-6.9994488200000005
aa(lp93
F-0.9779116459999997
aF-4.76266578
aF-5.524859960000001
aa(lp94
F-4.3502644660000005
aF-6.3877301719999995
aF2.9914353339999993
aa(lp95
F9.068877154
aF-1.159751232
aF6.674794899999999
aa(lp96
F15.447030613999999
aF1.5877149600000002
aF0.31591485999999874
aa(lp97
F7.4102937079999975
aF-1.9753361399999996
aF-5.22199342
aa(lp98
F-0.11252749200000274
aF-1.3187262399999997
aF-1.7243041800000007
aaa(lp99
(lp100
F2.786970606
aF1.6399084
aF-0.9197323399999998
aa(lp101
F4.000950426
aF2.3168687999999995
aF-0.8197745999999999
aa(lp102
F6.339367085999999
aF2.0011933799999992
aF-5.1186834
aa(lp103
F0.285628273999999
aF-3.4930206440000005
aF-6.460992619999999
aa(lp104
F-5.035604706000002
aF-6.115748952
aF1.8216284320000011
aa(lp105
F3.8376661259999985
aF-2.736572651999999
aF8.095035392000002
aa(lp106
F13.877631326
aF0.6423641600000009
aF3.9249346000000003
aa(lp107
F10.709503666
aF-1.6673221079999991
aF-3.6797683599999997
aa(lp108
F0.6585253860000005
aF-3.1602266639999987
aF-3.4605792199999996
aaa(lp109
(lp110
F3.58232416
aF3.275268036
aF0.2837127999999997
aa(lp111
F6.73381186
aF3.0412347560000006
aF-4.385339340000001
aa(lp112
F-0.4774038999999998
aF-3.316088924
aF-5.126225120000001
aa(lp113
F-5.032492329999999
aF-4.029800474
aF3.5449747599999997
aa(lp114
F2.0214243699999996
aF-0.020949163999999597
aF7.460571979999999
aa(lp115
F12.44099034
aF2.7331011960000007
aF5.295854499999999
aa(lp116
F10.84286074
aF0.7362172760000003
aF-1.4808135800000013
aa(lp117
F2.9556419000000007
aF-1.2401963639999998
aF-2.795709080000001
aa(lp118
F1.1394005600000006
aF0.7132328560000001
aF0.8675388999999992
aa(lp119
F3.3393127400000004
aF2.5224114159999997
aF0.4462791199999992
aaa(lp120
(lp121
F0.8975860399999999
aF-0.15981308000000016
aF-0.8177396
aa(lp122
F2.6156650200000002
aF-0.6493076600000002
aF-5.844845080000001
aa(lp123
F-4.47057322
aF-5.770624768
aF-5.516240819999999
aa(lp124
F-7.3942525660000005
aF-6.438367582
aF2.5025393400000007
aa(lp125
F2.587174274000001
aF-3.52869424
aF6.502891348000001
aa(lp126
F10.807306800000001
aF-1.2768278599999998
aF0.523971108000001
aa(lp127
F3.271796232
aF-3.62913106
aF-4.885727659999998
aa(lp128
F-3.8915355480000002
aF-3.0154970600000004
aF-1.7808071799999978
aaa(lp129
(lp130
F5.37366594
aF1.32243756
aF-2.47297102
aa(lp131
F4.90356426
aF-2.8152217800000003
aF-9.25754018
aa(lp132
F-4.99538218
aF-10.227311400000001
aF-1.3630190599999992
aa(lp133
F0.8632294999999999
aF-8.467932360000002
aF10.98483654
aa(lp134
F13.080601740000002
aF-4.243363520000002
aF4.752370440000001
aa(lp135
F5.083369360000004
aF-7.476493440000001
aF-7.079175399999999
aaa(lp136
(lp137
F5.47470108
aF7.05499434
aF2.738008796
aa(lp138
F7.6401368434000005
aF4.039736716
aF-4.927626764
aa(lp139
F-5.092826236599999
aF-7.646601164000001
aF1.8241416559999997
aa(lp140
F4.533899960000001
aF-4.870883380000002
aF16.787902695999996
aa(lp141
F14.85901472
aF0.9623494399999977
aF3.926131655999997
aa(lp142
F2.2808362399999984
aF-2.0897789200000028
aF-1.9161991840000028
aaa(lp143
(lp144
F4.6166194
aF6.486849940000001
aF4.13430734
aa(lp145
F9.896432880000003
aF3.0949844024000006
aF-4.01926586
aa(lp146
F-2.9516914799999983
aF-9.3473226576
aF-0.8672993640000002
aa(lp147
F3.4563891800000035
aF-7.1343619799999995
aF16.404949835999997
aa(lp148
F14.256633420000004
aF-0.9311048999999999
aF3.6487633999999987
aa(lp149
F2.481949380000002
aF-1.08445358
aF-1.3633779800000014
aaa(lp150
(lp151
F7.776247580000001
aF6.327396039999999
aF-1.9768925199999998
aa(lp152
F7.013814100000002
aF0.5121195799999991
aF-7.625891619999999
aa(lp153
F-5.923614119999998
aF-7.815751680000001
aF3.3055543200000024
aa(lp154
F5.6202688200000015
aF-4.101027988000001
aF13.615345720000002
aa(lp155
F14.012185640000002
aF-0.5051764800000014
aF-0.2941278199999985
aa(lp156
F2.7332207599999996
aF-1.8867505920000014
aF-4.520372639999998
aaa(lp157
(lp158
F7.108863940000001
aF6.403891
aF0.8626310200000002
aa(lp159
F9.383595200000002
aF0.41455595999999983
aF-6.10293934
aa(lp160
F-5.596566139999998
aF-9.100480379999999
aF2.2894556600000007
aa(lp161
F2.9947873800000018
aF-4.730822939999999
aF14.69369466
aa(lp162
F16.234962600000003
aF0.9026139200000014
aF5.4636881599999985
aa(lp163
F4.918169400000003
aF-0.6285977399999986
aF-3.107912640000002
aa(lp164
F0.7641095000000023
aF3.8655582600000016
aF3.450523639999998
aaa(lp165
(lp166
F1.9197905
aF-0.14018042000000008
aF-0.6622362199999999
aa(lp167
F7.80090752
aF-1.74968248
aF-8.16746006
aa(lp168
F-2.831861860000001
aF-9.786060039999999
aF-7.97915616
aa(lp169
F-7.147889260000001
aF-13.03930136
aF5.392939320000001
aa(lp170
F8.017343879999999
aF-6.643790019999999
aF6.534135466
aa(lp171
F5.015733119999998
aF-6.87842182
aF-7.278013833999999
aa(lp172
F-3.8312014600000017
aF-4.47200944
aF-1.6673219779999997
aaa(lp173
(lp174
F6.77415448
aF1.9005171000000005
aF-4.232349986
aa(lp175
F6.539522679999999
aF-4.518217859999999
aF-9.963111402
aa(lp176
F-4.764940320000001
aF-14.99452614
aF3.2709582319999995
aa(lp177
F9.97508244
aF-6.542994359999999
aF10.575787578
aa(lp178
F11.135552139999998
aF-3.020525013999999
aF-7.295012701999999
aa(lp179
F0.6873751799999972
aF-3.077267591999999
aF-4.463749442
aa(lp180
F3.125031539999997
aF2.196679900000001
aF-0.3440468020000001
aaa(lp181
(lp182
F1.4064738800000003
aF0.06979094000000004
aF-2.3749284
aa(lp183
F3.7792473599999994
aF-2.8458679599999996
aF-9.94443632
aa(lp184
F-8.04583444
aF-13.84686576
aF-4.900811279999999
aa(lp185
F-2.3244105200000007
aF-12.074917099999999
aF9.535746220000002
aa(lp186
F10.96987368
aF-4.632780351999999
aF2.155260220000001
aa(lp187
F2.785414579999999
aF-7.886859532
aF-8.00980164
aa(lp188
F-5.851548546000002
aF-5.521029179999999
aF-1.144428379999999
aaa(lp189
(lp190
F3.7252579800000007
aF1.6922218199999999
aF-1.72597996
aa(lp191
F9.995074046000003
aF2.87244346
aF-8.130828900000001
aa(lp192
F2.1956028460000026
aF-5.69819994
aF-7.843524579999999
aa(lp193
F-0.459327533999997
aF-9.252512079999999
aF6.9113421000000015
aa(lp194
F14.969507146000002
aF-0.8301895999999989
aF5.869026400000001
aa(lp195
F12.053010106000002
aF-2.130600213999999
aF-10.302369199999998
aa(lp196
F0.5227740060000009
aF-3.0338127679999993
aF-4.415985169999997
aaa(lp197
(lp198
F2.21044668
aF1.8347964600000002
aF0.18303677000000002
aa(lp199
F10.16470272
aF3.706942480000001
aF-5.7805604299999995
aa(lp200
F5.55502656
aF-3.530489739999999
aF-9.13747073
aa(lp201
F-4.265868879999999
aF-8.9707145
aF2.7973852099999994
aa(lp202
F9.401431859999999
aF-1.9760541999999996
aF10.776421469999999
aa(lp203
F15.3109204
aF1.72334648
aF-3.634038550000001
aa(lp204
F4.249229339999999
aF-1.5874753599999996
aF-4.808155184000001
aa(lp205
F2.982816179999999
aF3.5252226400000004
aF1.5777789559999988
aaa(lp206
(lp207
F2.2978350599999997
aF0.5826290799999997
aF-1.7730260059999998
aa(lp208
F5.33499982
aF1.1477802799999997
aF-4.701134926
aa(lp209
F2.28574454
aF-1.21002958
aF-7.379528285999998
aa(lp210
F-4.242884600000001
aF-3.9953241
aF-4.4140701659999975
aa(lp211
F-4.247433566800001
aF-2.4425646399999996
aF1.006761770000002
aa(lp212
F0.4874594399999987
aF-0.5950788599999994
aF2.998139068000002
aa(lp213
F7.998548999999999
aF0.8452730600000006
aF0.2470815480000022
aa(lp214
F8.974904519999999
aF0.27042502000000057
aF-3.903985145999998
aa(lp215
F4.857475920000001
aF-1.9346347199999994
aF-6.4305861859999975
aa(lp216
F0.7612363400000006
aF-2.0584149199999997
aF-4.433103885999999
aa(lp217
F-1.052969959999999
aF-0.5850231399999994
aF-1.6960524059999984
aaa(lp218
(lp219
F3.5725080599999997
aF0.6253655799999999
aF-2.1984757800000003
aa(lp220
F4.58034728
aF0.5718550399999999
aF-5.57382138
aa(lp221
F-0.19548660000000098
aF-2.1497537600000003
aF-5.153639
aa(lp222
F-4.0065768
aF-3.04757936
aF0.49512087200000005
aa(lp223
F0.5189431599999995
aF-1.0879253600000005
aF4.867890808
aa(lp224
F8.16291068
aF0.8426392399999996
aF3.364092735999999
aa(lp225
F10.46685128
aF0.5645526799999999
aF-0.7745244800000007
aa(lp226
F7.099765680000002
aF-1.0794259600000005
aF-3.8532283400000003
aa(lp227
F2.863944040000002
aF-1.8373104000000005
aF-3.30256168
aa(lp228
F0.36092594000000194
aF-0.7978677600000006
aF-0.1028309400000003
aaa(lp229
(lp230
F1.2702438
aF1.3160928399999998
aF-0.1334768199999999
aa(lp231
F4.1728540999999995
aF2.3342270399999996
aF-1.2319366399999996
aa(lp232
F5.8116848999999995
aF1.98419448
aF-5.615600199999999
aa(lp233
F-0.6859388400000004
aF-1.9682732799999996
aF-4.73297762
aa(lp234
F-4.311119292
aF-2.5705346999999996
aF-0.3912127000000002
aa(lp235
F-1.3569138320000005
aF-1.1340136399999996
aF4.7769110999999995
aa(lp236
F6.72890366
aF1.0222045000000004
aF4.732618359999999
aa(lp237
F10.45559834
aF1.9572599800000006
aF-0.609803280000001
aa(lp238
F6.87530962
aF0.25342630000000044
aF-4.102704040000001
aa(lp239
F2.63829074
aF-0.9683348399999995
aF-3.9261318000000016
aa(lp240
F-0.2345120400000001
aF-0.3944446999999995
aF-0.8834605400000017
aaa(lp241
(lp242
F3.2492908399999996
aF1.2524068400000001
aF-1.5925032000000001
aa(lp243
F6.305249959999999
aF0.8599970799999997
aF-6.22217098
aa(lp244
F-0.09145852799999972
aF-2.3503878400000002
aF-4.50014128
aa(lp245
F-4.961623916
aF-3.3571496000000005
aF0.28706479999999923
aa(lp246
F-0.990600988
aF-1.5215152200000004
aF5.051645891999999
aa(lp247
F7.02662258
aF0.8559270799999998
aF5.480926269999999
aa(lp248
F11.147522380000002
aF1.8052279599999999
aF0.8485050299999992
aa(lp249
F8.859503580000002
aF0.42185821999999984
aF-2.756683980000001
aa(lp250
F4.418618800000003
aF-1.4276625000000003
aF-3.9673119000000012
aa(lp251
F0.6846220200000026
aF-1.0667365400000002
aF-0.556651780000001
aaa(lp252
(lp253
F2.7164613999999996
aF0.6544550600000001
aF-0.8325836000000002
aa(lp254
F5.74081702
aF1.0817002600000003
aF-5.2649697600000005
aa(lp255
F0.6506244639999998
aF-2.1906945799999997
aF-6.0794768999999995
aa(lp256
F-3.1689653360000003
aF-3.0266301199999996
aF-1.4179658799999992
aa(lp257
F-1.8301277600000005
aF-1.78344086
aF3.3346440900000003
aa(lp258
F3.75386908
aF0.5980717200000002
aF4.41418961
aa(lp259
F9.04158342
aF1.7278953800000003
aF1.1089941440000004
aa(lp260
F8.440997620000001
aF0.3532644600000003
aF-1.9580979599999992
aa(lp261
F5.807854620000001
aF-1.4318523599999995
aF-4.565383679999998
aa(lp262
F2.1292834000000007
aF-2.36978082
aF-3.4847609399999984
aa(lp263
F0.2455253400000008
aF-1.04650556
aF0.08236044000000149
aaa(lp264
(lp265
F1.7222689199999999
aF0.1353921200000002
aF-0.9036914800000002
aa(lp266
F4.36259462
aF0.5368997200000001
aF-3.60746358
aa(lp267
F2.0672735599999994
aF-1.0806229200000002
aF-6.156929180000001
aa(lp268
F-4.407964626000001
aF-3.4510023199999997
aF-2.7621904600000002
aa(lp269
F-4.972158302000001
aF-3.0558392999999997
aF1.6403872
aa(lp270
F-0.03830730000000102
aF-0.7219715199999996
aF3.748721274
aa(lp271
F7.127658219999999
aF0.7617153800000006
aF1.870230614
aa(lp272
F7.270352819999999
aF-0.12425899999999963
aF-1.9959262599999996
aa(lp273
F3.8904582799999985
aF-1.8495207
aF-4.20984442
aa(lp274
F-0.025019260000001077
aF-2.3405715000000002
aF-2.4243684599999997
aa(lp275
F-1.2243946000000006
aF-0.9507374599999997
aF-0.6342239
aaa(lp276
(lp277
F1.47171576
aF0.3338713399999998
aF-0.2363078200000001
aa(lp278
F4.7378854399999994
aF0.8892063799999999
aF-2.01543896
aa(lp279
F4.9509694600000005
aF-0.04608852000000008
aF-5.58567282
aa(lp280
F-2.914821
aF-3.5674802
aF-4.24707486
aa(lp281
F-5.968984359999999
aF-4.787804840000001
aF0.9846153600000012
aa(lp282
F0.20709828000000066
aF-2.403299680000001
aF5.542935940000001
aa(lp283
F9.92061456
aF-0.31423912000000076
aF2.9278691440000006
aa(lp284
F9.812156760000002
aF-1.1429920000000007
aF-2.721249699999999
aa(lp285
F4.674199760000003
aF-2.6563667600000005
aF-5.718550619999999
aa(lp286
F-0.24049771999999656
aF-2.728671640000001
aF-2.326445599999999
aaa.