(lp0
(lp1
(lp2
F3.2148143000000005
aF7.3377493000000005
aF-1.27227876
aa(lp3
F4.77559442
aF8.944498200000002
aF-2.5901671
aa(lp4
F6.54299412
aF8.8569905
aF-4.6378081
aa(lp5
F8.16805838
aF7.782712020000001
aF-4.16459407
aa(lp6
F6.45213408
aF4.727710340000002
aF4.3916840100000005
aa(lp7
F4.08785994
aF3.085048520000002
aF11.7443972
aa(lp8
F5.1766232
aF6.111080040000003
aF7.39928032
aa(lp9
F6.7844494000000015
aF7.850108600000001
aF0.12246345400000039
aa(lp10
F5.5854332000000015
aF9.229168800000002
aF-4.666897666
aaa(lp11
(lp12
F-0.7345411000000002
aF-0.24420899999999968
aF3.0286651460000003
aa(lp13
F-0.9631873200000001
aF-0.4887766000000003
aF4.3874943040000005
aa(lp14
F2.79487124
aF-1.0261554000000004
aF0.4329912400000001
aa(lp15
F5.611290519999999
aF-3.69545064
aF1.2819752
aa(lp16
F2.7164613799999993
aF-7.490978406000001
aF13.37544724
aa(lp17
F0.012808979999999526
aF-7.054994186000002
aF18.23340204
aa(lp18
F2.4259250199999998
aF-4.014477620000003
aF10.740508479999999
aa(lp19
F3.4574666599999992
aF-1.5405490000000022
aF1.26018798
aa(lp20
F0.8172607999999993
aF-0.22888560000000185
aF0.26671409999999973
aa(lp21
F-1.0097545600000006
aF-0.29257120000000203
aF3.8132450539999994
aaa(lp22
(lp23
F-0.61195798
aF0.16364359999999997
aF0.3636792059999999
aa(lp24
F-0.6095637199999999
aF0.09133840000000042
aF0.35254613599999995
aa(lp25
F0.62811892
aF-0.3551802000000002
aF-0.795832694
aa(lp26
F6.58800516
aF-1.24654132
aF-6.099587994
aa(lp27
F7.86471318
aF-5.424543160000001
aF1.3491326999999997
aa(lp28
F3.8861485200000003
aF-7.47457836
aF14.008234986000001
aa(lp29
F3.6565445800000007
aF-6.4886461199999985
aF13.572131086000002
aa(lp30
F6.090250580000001
aF-4.3538561599999985
aF5.458061526
aa(lp31
F5.502713320000002
aF-1.3779829799999987
aF-3.8541859539999996
aaa(lp32
(lp33
F-2.7529727
aF0.1796847000000003
aF4.883812413999999
aa(lp34
F-2.8153416399999998
aF0.0860711000000002
aF4.73321715
aa(lp35
F-2.4467542
aF-0.31340140000000005
aF4.770686370000001
aa(lp36
F3.0099905000000002
aF-0.9883269
aF-0.6041767399999992
aa(lp37
F4.6933536799999995
aF-4.611232920000001
aF4.086184140000001
aa(lp38
F-0.04010264000000028
aF-6.815574360000001
aF17.24435768
aa(lp39
F-0.8571240600000001
aF-6.6352910199999995
aF19.30277268
aa(lp40
F2.21032708
aF-4.178840119999999
aF11.252149600000001
aa(lp41
F2.8349743199999997
aF-1.5528795999999994
aF2.4705767600000006
aa(lp42
F-0.31124611999999985
aF-0.47441119999999926
aF1.0366892400000005
aaa(lp43
(lp44
F-0.3423708400000002
aF0.12126579999999976
aF0.8523358920000002
aa(lp45
F-0.5298367200000003
aF-0.18950180000000003
aF1.1111490920000002
aa(lp46
F3.42215228
aF-0.5772424
aF-2.966655428
aa(lp47
F8.79845194
aF-3.97952274
aF-2.7624299740000007
aa(lp48
F6.17069594
aF-7.630560651999998
aF9.962153546
aa(lp49
F2.8760350199999998
aF-7.682036011999999
aF16.240109546
aa(lp50
F5.6001577
aF-5.382046139999998
aF8.110358345999998
aa(lp51
F6.185180739999999
aF-1.3150158599999984
aF-2.0861875140000015
aa(lp52
F1.631049979999999
aF0.2889795000000017
aF-2.1760898140000013
aa(lp53
F-1.0846930800000012
aF0.19285260000000157
aF0.7378930659999987
aaa(lp54
(lp55
F-0.062488619999999884
aF0.11133029999999984
aF1.3372813551999998
aa(lp56
F1.25132954
aF-0.16807280000000055
aF0.6149506759999998
aa(lp57
F4.70903572
aF-0.3056198000000002
aF-3.13855902
aa(lp58
F7.19792832
aF-2.69551206
aF-2.65792304
aa(lp59
F5.028183
aF-5.77708906
aF6.55412722
aa(lp60
F2.6257210400000006
aF-6.693469779999999
aF14.26429468
aa(lp61
F3.9178717600000006
aF-4.936604539999999
aF9.76822326
aa(lp62
F6.30441182
aF-1.7614142599999991
aF-0.12725190800000163
aa(lp63
F3.3563116199999996
aF0.09744420000000087
aF-4.013280640000001
aaa(lp64
(lp65
F-0.9162610000000001
aF0.03435699999999997
aF2.4120385086
aa(lp66
F-1.70802342
aF-0.23834280000000022
aF4.0354269801
aa(lp67
F1.3378799199999998
aF-0.12282299999999964
aF1.0737994994999993
aa(lp68
F5.3176416799999995
aF-1.80534814
aF-0.6317100800000005
aa(lp69
F4.461594959999999
aF-6.538325522799999
aF9.300635599999998
aa(lp70
F0.4502295999999989
aF-8.244553402799998
aF18.95752818
aa(lp71
F1.262702079999999
aF-5.419395479999998
aF12.73380122
aa(lp72
F3.476021779999999
aF-2.0462046599999977
aF5.420353028
aa(lp73
F2.171540939999999
aF-0.4769249999999978
aF-0.1868676319999997
aa(lp74
F-0.9970651800000006
aF-0.16627749999999786
aF1.05560352
aaa(lp75
(lp76
F-0.43442788
aF0.37541119999999994
aF1.28796079
aa(lp77
F-0.56108114
aF0.3132813000000002
aF1.5066711140000002
aa(lp78
F0.5382165000000001
aF-0.5821500199999997
aF0.7903259840000003
aa(lp79
F6.566098139999999
aF-1.23923862
aF-3.042312016
aa(lp80
F7.961798139999999
aF-3.81659674
aF1.0013748640000002
aa(lp81
F3.3357214799999992
aF-7.081569480000001
aF12.293267924
aa(lp82
F1.1631031799999993
aF-6.5840543799999995
aF15.565662884
aa(lp83
F3.8936901599999993
aF-3.746925459999999
aF8.929414584
aa(lp84
F5.322549619999999
aF-1.224873239999999
aF2.0329166499999998
aa(lp85
F3.0925902399999994
aF-0.3744528999999991
aF-2.5704150759999997
aa(lp86
F0.41539393999999935
aF0.09564850000000095
aF-0.9361329359999997
aaa(lp87
(lp88
F0.01699886000000008
aF0.05195449999999972
aF1.217691048
aa(lp89
F-0.4214991599999999
aF-0.04620789999999993
aF2.286103534
aa(lp90
F1.19327022
aF-0.05997470000000007
aF0.896508846
aa(lp91
F5.3242258
aF-0.58406532
aF-1.92433962
aa(lp92
F5.142147
aF-3.9278074199999997
aF4.1373001732
aa(lp93
F1.53540162
aF-6.86489438
aF14.719552019999998
aa(lp94
F1.7695545199999998
aF-5.6232614199999995
aF14.739423899999997
aa(lp95
F4.3666648
aF-2.74219898
aF6.715376639999997
aa(lp96
F4.4503422
aF-1.3669695999999996
aF-0.4930858200000035
aa(lp97
F1.7720685
aF-0.4424484999999995
aF-3.850115780000004
aaa(lp98
(lp99
F-1.0396821200000002
aF-0.04453190000000014
aF4.8312596999999995
aa(lp100
F0.51690828
aF-0.009816100000000105
aF3.70562569
aa(lp101
F4.4173024
aF-1.07487682
aF1.38827786
aa(lp102
F5.2672438
aF-4.072536940000001
aF6.8414315000000006
aa(lp103
F1.7664418599999998
aF-6.39108178
aF17.121894479999998
aa(lp104
F1.7433380399999998
aF-4.88201644
aF16.1299766
aa(lp105
F4.8650179399999995
aF-2.4742875600000005
aF7.079774183999997
aa(lp106
F2.7631481199999994
aF-0.7534548800000008
aF1.470159583999997
aaa(lp107
(lp108
F-1.40551614
aF-0.06895279999999993
aF3.518877946
aa(lp109
F-2.0705056399999995
aF-0.33099859999999987
aF4.385938092
aa(lp110
F0.35362362000000047
aF-0.5370197999999998
aF2.451542858
aa(lp111
F5.48679202
aF-1.4666881999999999
aF-0.961631232
aa(lp112
F6.12592422
aF-4.52144994
aF3.9035062480000002
aa(lp113
F2.6564863599999997
aF-6.7433888600000005
aF14.414889548000001
aa(lp114
F0.8396464199999996
aF-4.95767362
aF15.835608728000002
aa(lp115
F2.92463728
aF-2.4140737000000003
aF6.431903196000002
aa(lp116
F3.2580295199999996
aF-1.2211626199999999
aF-0.20063404399999846
aa(lp117
F0.3494336199999994
aF-0.19632439999999995
aF-0.5298367619999985
aaa(lp118
(lp119
F0.22254097999999994
aF-0.31268269999999987
aF1.15328692
aa(lp120
F5.30327654
aF-1.3312959599999996
aF-2.8142645
aa(lp121
F9.43662644
aF-4.67755196
aF-0.11360493999999974
aa(lp122
F5.522226239999998
aF-7.329010719999999
aF14.0173327
aa(lp123
F3.879325039999999
aF-6.0457184999999996
aF15.999851339999998
aa(lp124
F9.249759039999999
aF-4.38857186
aF3.7719449999999988
aa(lp125
F6.978020599999998
aF-2.0539857599999998
aF-5.41999382
aaa(lp126
(lp127
F-1.0521317399999996
aF-0.10055659999999982
aF2.9428330209000007
aa(lp128
F0.5896919200000005
aF-0.19740196000000018
aF3.1109058175000004
aa(lp129
F6.907391620000001
aF-2.08858192
aF-1.0732011439999996
aa(lp130
F7.872494620000003
aF-6.67754832
aF6.605003826000001
aa(lp131
F1.8189950600000047
aF-8.87925614
aF19.653522556000002
aa(lp132
F1.468962520000004
aF-6.579984580000001
aF17.578348376
aa(lp133
F7.197808120000003
aF-3.040755820000001
aF4.1448418259999995
aa(lp134
F2.086427100000004
aF0.07074893999999876
aF-1.5565904440000002
aa(lp135
F-2.966415759999996
aF0.8711303399999988
aF3.5382709051999996
aaa(lp136
(lp137
F0.6477511800000002
aF-0.3811567
aF1.4701595296
aa(lp138
F3.9640796000000003
aF-1.2570756
aF-0.4294001291999997
aa(lp139
F10.34402888
aF-3.2328906399999995
aF-3.9054219491999995
aa(lp140
F10.586082580000001
aF-6.854120752
aF4.6660597768
aa(lp141
F5.335598120000002
aF-8.820957392
aF16.8536233708
aa(lp142
F7.408737320000003
aF-6.946536952
aF11.8036535028
aa(lp143
F10.206002880000003
aF-2.6776754
aF-2.8273130972
aaa(lp144
(lp145
F-2.59770886
aF-0.38271320000000025
aF5.35511114
aa(lp146
F-4.0345889800000005
aF-0.8638279200000006
aF6.812940612
aa(lp147
F1.7493235399999993
aF-1.5981297200000006
aF2.814623812
aa(lp148
F6.073610939999999
aF-3.880043380000001
aF2.6858157668000002
aa(lp149
F3.837306739999998
aF-7.4131666019999995
aF12.718239206800002
aa(lp150
F-0.04537026000000157
aF-9.146568601999999
aF21.85223828
aa(lp151
F4.255214839999999
aF-5.795763599999999
aF12.616126340000005
aa(lp152
F3.5291733399999985
aF-1.8592170799999994
aF-0.996825559999996
aa(lp153
F-3.2643741800000017
aF-0.2686291999999996
aF2.751057710600004
aaa(lp154
(lp155
F-0.9819819199999997
aF0.06584090000000024
aF2.4552538574
aa(lp156
F-0.92356344
aF-0.42173859999999974
aF3.673782783399999
aa(lp157
F4.31590744
aF-1.0260351399999998
aF-0.3772063806000002
aa(lp158
F10.09096132
aF-4.05996756
aF-0.23175869060000043
aa(lp159
F5.70370672
aF-7.546523851999998
aF11.582190449399999
aa(lp160
F-0.11121089999999967
aF-7.233122843999999
aF18.9177847694
aa(lp161
F2.8252777
aF-4.516182819999999
aF12.0956267294
aa(lp162
F6.947135319999999
aF-2.8258763399999984
aF0.25175046939999746
aa(lp163
F3.0597895999999993
aF-0.6751649399999984
aF-3.251206090600003
aaa(lp164
(lp165
F-0.8374915999999999
aF-0.2664744000000002
aF2.439093024
aa(lp166
F1.4403519600000003
aF-0.6185418000000003
aF0.5444415559999998
aa(lp167
F6.556401740000001
aF-1.0430338000000006
aF-1.1295841880000002
aa(lp168
F7.8086891000000005
aF-5.474940479000002
aF6.268977799999999
aa(lp169
F2.84167822
aF-9.436506441000002
aF18.258421312
aa(lp170
F3.5981260799999992
aF-7.039431610000001
aF13.532746223999998
aa(lp171
F7.170514399999999
aF-1.321240040000001
aF0.6965932239999987
aa(lp172
F1.8403031999999988
aF1.1190498999999992
aF-1.7979255480000014
aaa(lp173
(lp174
F-3.22259546
aF-0.9563637000000004
aF4.428554717
aa(lp175
F-1.9430143000000002
aF-1.3943828000000003
aF3.754227854
aa(lp176
F3.5037948400000003
aF-2.44795114
aF0.4240130599999999
aa(lp177
F10.1894836
aF-8.2914795
aF3.9744943199999994
aa(lp178
F7.396766700000002
aF-14.26728728
aF19.182463059999996
aa(lp179
F1.9100940400000017
aF-9.806530389999999
aF17.011640739999997
aa(lp180
F4.028483640000002
aF-3.8751350399999986
aF5.201402919999998
aa(lp181
F2.2408530800000017
aF-1.2592303999999983
aF-1.062307560000003
aa(lp182
F-1.476983059999998
aF-0.7490262999999981
aF-0.39324788000000294
aaa(lp183
(lp184
F0.8656237399999999
aF-0.7574051999999998
aF2.0318392689199998
aa(lp185
F2.1777659199999997
aF-1.3109447199999997
aF2.433945516
aa(lp186
F6.90571574
aF-2.5170237799999997
aF-1.015141586
aa(lp187
F10.1496196
aF-5.765117460000001
aF1.748964274
aa(lp188
F6.7265096999999985
aF-9.844118980000001
aF15.002426653999999
aa(lp189
F2.2679076199999986
aF-9.711959078
aF18.616474273999998
aa(lp190
F8.09300002
aF-6.14842936
aF7.395090734
aa(lp191
F7.081689399999999
aF-1.7100583199999988
aF-2.932777186
aaa(lp192
(lp193
F-1.5324086399999999
aF-0.5361813999999999
aF4.5396457537999995
aa(lp194
F-1.0862493199999999
aF-1.2225989
aF4.901649075
aa(lp195
F3.4531570799999995
aF-1.8521543999999999
aF2.2725761659999995
aa(lp196
F8.061875679999998
aF-4.73261834
aF3.5187582059999998
aa(lp197
F3.54485514
aF-8.763017547999999
aF16.114413726
aa(lp198
F-1.2372038
aF-8.474875328
aF21.350772205999995
aa(lp199
F4.00645708
aF-5.958210299999999
aF11.632588085999998
aa(lp200
F5.1715953599999995
aF-2.97395766
aF0.2430114859999982
aaa(lp201
(lp202
F-3.2723948000000007
aF0.23702571999999994
aF4.628111597999999
aa(lp203
F-2.9591135600000005
aF0.3214214199999999
aF5.269997077999999
aa(lp204
F-1.3601460000000005
aF0.5457580199999997
aF3.7368700319999997
aa(lp205
F-1.4154520600000005
aF-0.07014978000000038
aF4.17512861
aa(lp206
F-2.538212980000001
aF-0.3882194800000002
aF5.693770754
aa(lp207
F-3.112103140000001
aF-0.73753348
aF7.940250218
aa(lp208
F-4.142328000000001
aF-1.99568656
aF14.25950642
aa(lp209
F-3.5051112600000005
aF-1.7848771799999998
aF14.788026539999999
aa(lp210
F-2.96833122
aF-0.3210622199999996
aF9.82819796
aa(lp211
F-3.2951397200000003
aF0.3772067200000002
aF6.9892732764000005
aa(lp212
F-3.3024421000000004
aF0.35518012
aF5.6081780644
aa(lp213
F-3.85993196
aF0.7832631200000002
aF3.1972169200000002
aa(lp214
F-4.680065740000001
aF1.05476532
aF4.080437900000001
aaa(lp215
(lp216
F1.0388440600000002
aF-0.28263529999999976
aF1.0289081888
aa(lp217
F1.4775815399999999
aF-0.5808330999999992
aF0.11360485479999997
aa(lp218
F3.8871060999999996
aF-0.3942051999999997
aF-1.9828779380000001
aa(lp219
F4.352299499999999
aF-1.1648986599999995
aF-0.2140416779999999
aa(lp220
F1.9850324999999998
aF-2.1790822599999995
aF3.479732802
aa(lp221
F1.2802992999999998
aF-4.06331918
aF9.941563682
aa(lp222
F1.52378964
aF-4.17452982
aF12.203485802
aa(lp223
F2.8956672599999997
aF-2.1958417199999998
aF5.594291761999999
aa(lp224
F2.77835128
aF-0.7426809999999999
aF0.1959654219999994
aa(lp225
F1.3676877199999997
aF-0.003352000000000288
aF-1.8259379780000007
aa(lp226
F0.08750807999999947
aF0.012330200000000246
aF-0.5474342260000004
aaa(lp227
(lp228
F0.50912696
aF0.007661399999999574
aF1.1437101640000003
aa(lp229
F0.9188946000000001
aF-0.11013340000000013
aF1.1054029240000003
aa(lp230
F2.7119123000000003
aF-0.4859034000000001
aF-1.0204087519999996
aa(lp231
F5.40694528
aF-1.0976216
aF-2.6384102919999997
aa(lp232
F4.678389720000001
aF-2.7182567
aF2.1404162880000004
aa(lp233
F3.434362740000001
aF-4.03506776
aF9.434471588
aa(lp234
F2.8322209000000007
aF-4.33853294
aF12.036849268
aa(lp235
F4.0460812000000015
aF-2.4213759799999997
aF6.427473887999997
aa(lp236
F4.0950426800000015
aF-1.0947486
aF0.5195417679999977
aa(lp237
F3.236003080000002
aF-0.3473984
aF-1.9394230520000022
aa(lp238
F1.5421053800000022
aF-0.02370220000000014
aF-0.6319495320000021
aaa(lp239
(lp240
F-0.32381582
aF-0.10402839999999962
aF1.9076999319999999
aa(lp241
F1.10588156
aF0.03794770000000014
aF0.9653421139999999
aa(lp242
F4.28286758
aF-0.7667433799999998
aF-2.285265518
aa(lp243
F4.3048945199999995
aF-2.6573247599999994
aF1.156758568
aa(lp244
F3.2012868999999986
aF-4.46123594
aF9.532394518
aa(lp245
F2.3034613599999987
aF-3.989697919999999
aF11.475409058000002
aa(lp246
F2.961986779999999
aF-2.1819561199999984
aF5.927325198000004
aa(lp247
F3.2277429999999994
aF-1.443464659999999
aF1.9875465280000042
aa(lp248
F2.2376208999999996
aF-0.6932413999999992
aF-1.8189947219999958
aa(lp249
F0.39444463999999924
aF-0.17848789999999912
aF-1.4450204619999958
aa(lp250
F-0.3065775800000007
aF-0.10738019999999918
aF0.31028855800000416
aaa(lp251
(lp252
F0.27365727999999995
aF0.03663140000000027
aF0.7533355552000002
aa(lp253
F0.7489062599999998
aF-0.21452039999999997
aF0.7296329612
aa(lp254
F3.39234436
aF-0.48434719999999987
aF-1.9941305360000001
aa(lp255
F4.4868536
aF-1.1243171999999995
aF-2.34117012
aa(lp256
F3.6575022000000006
aF-2.1300015399999994
aF2.0758926079999993
aa(lp257
F2.18638508
aF-3.79708414
aF8.14627122
aa(lp258
F1.3843275399999997
aF-4.138736679999999
aF11.47121898
aa(lp259
F1.9712660200000003
aF-2.4417265599999993
aF6.973711159999999
aa(lp260
F2.47692136
aF-1.0742782399999993
aF1.5604209707999988
aa(lp261
F2.6712107
aF-0.6756433999999993
aF-0.9539696000000012
aa(lp262
F1.9425355
aF0.04070170000000086
aF-2.384984060000001
aa(lp263
F0.6124367799999997
aF0.31818970000000046
aF-0.7416040340000011
aa(lp264
F-0.025977080000000364
aF0.009337600000000102
aF0.7817068439999989
aaa(lp265
(lp266
F-0.2218227800000001
aF0.03280039999999999
aF-0.05530606199999999
aa(lp267
F-0.13742716000000002
aF-0.5378574999999994
aF0.4179079052
aa(lp268
F3.76129088
aF-0.9527726999999991
aF-2.5817874439999997
aa(lp269
F6.85208554
aF-2.1192279999999997
aF-4.618295464
aa(lp270
F5.101445320000001
aF-4.09971148
aF2.122220396
aa(lp271
F4.1841068
aF-6.078519200000001
aF11.793238996
aa(lp272
F3.3820492800000013
aF-4.96198316
aF11.261486855999998
aa(lp273
F4.074811560000001
aF-1.96827336
aF2.686294255999998
aa(lp274
F3.746087640000001
aF-0.74974446
aF-1.6559496600000023
aa(lp275
F2.1863849600000007
aF0.2495954000000001
aF-3.3257855640000025
aaa(lp276
(lp277
F0.12605471999999995
aF-0.8456325000000003
aF1.5015235180000002
aa(lp278
F4.301901580000001
aF-1.72801556
aF-1.5938202179999998
aa(lp279
F6.101383660000001
aF-2.7554869600000003
aF-0.968813846
aa(lp280
F3.9578549200000013
aF-4.527435580000001
aF5.241506114
aa(lp281
F2.698025960000001
aF-6.313509960000001
aF13.666223174
aa(lp282
F2.550782540000001
aF-4.956835580000002
aF12.290155594000002
aa(lp283
F4.6472650600000005
aF-3.2085895000000013
aF5.445492034000001
aa(lp284
F4.46470706
aF-1.7641677800000015
aF-0.9484631059999998
aa(lp285
F1.7772159600000002
aF-0.2877831000000013
aF-2.1139604660000004
aaa(lp286
(lp287
F-0.8054095
aF-0.21476000000000042
aF1.507149956
aa(lp288
F-0.6124367800000001
aF-0.20745740000000018
aF1.979286542
aa(lp289
F1.3563152600000001
aF-0.4465184000000001
aF-0.2643199000000001
aa(lp290
F3.62278638
aF-1.9136854800000003
aF0.4268860799999999
aa(lp291
F2.1551407599999997
aF-3.96491782
aF7.85094662
aa(lp292
F1.2543221199999999
aF-5.122035479999999
aF13.47636298
aa(lp293
F1.8462885
aF-3.967072499999999
aF10.822988939999998
aa(lp294
F2.13526866
aF-2.005622699999999
aF5.250843501999997
aa(lp295
F2.4225730999999997
aF-0.3264493999999994
aF0.7651868359999974
aa(lp296
F-0.4835090400000004
aF0.45118710000000084
aF-0.32213986000000255
aaa(lp297
(lp298
F-1.38145444
aF-0.6403291000000003
aF3.3024421339999996
aa(lp299
F-0.6080075599999999
aF-1.2284647000000004
aF3.5808877939999997
aa(lp300
F3.8300044400000006
aF-1.88208178
aF-0.33614593200000015
aa(lp301
F6.08414518
aF-3.3145327
aF-0.4355053400000003
aa(lp302
F6.15800608
aF-4.89291014
aF6.835804899999999
aa(lp303
F4.47177004
aF-6.10629152
aF13.98656708
aa(lp304
F2.5135526599999998
aF-4.4918813
aF11.962149920000002
aa(lp305
F2.83808668
aF-2.48158988
aF5.874652708000002
aa(lp306
F2.4547750200000005
aF-1.3460199800000001
aF2.632783918000002
aa(lp307
F1.0867280800000003
aF-0.5422865999999995
aF0.3253720260000025
aa(lp308
F-0.8592789799999995
aF-0.26539689999999927
aF1.3207614080000023
aaa(lp309
(lp310
F0.38762132000000005
aF-0.07086850000000026
aF0.4531026540000001
aa(lp311
F2.06463994
aF-0.31376040000000033
aF-1.871427748
aa(lp312
F4.60895806
aF-0.9671377400000004
aF-1.4385560879999997
aa(lp313
F6.27173106
aF-3.5939360400000004
aF2.9503746920000005
aa(lp314
F6.5213263
aF-7.275500200000001
aF12.059115152
aa(lp315
F3.86747368
aF-6.261914880000001
aF12.766721652000001
aa(lp316
F4.4705732
aF-3.126228900000001
aF5.725613662000002
aa(lp317
F4.37600228
aF-0.9746797000000009
aF0.8505401420000027
aa(lp318
F2.35242302
aF0.0701498999999993
aF-2.7302279079999976
aa(lp319
F-0.01807614000000015
aF0.4161121999999994
aF-1.6730681399999974
aaa.