(lp0
(lp1
(lp2
F-1.68527864
aF5.14047084
aF-4.06619242
aa(lp3
F-2.798941604
aF4.5769953800000005
aF-10.461823220000001
aa(lp4
F-0.6312312800000001
aF14.1498512
aF-6.684012400000002
aa(lp5
F13.184869200000003
aF14.121839119999999
aF9.4720604
aa(lp6
F15.157092699999998
aF-8.346306680000001
aF-2.359006800000001
aa(lp7
F4.443039699999997
aF-4.7918747800000006
aF-12.738230400000003
aaa(lp8
(lp9
F0.7779958600000001
aF5.8565761400000005
aF-3.0141801999999993
aa(lp10
F10.65036726
aF14.33300744
aF10.878414699999999
aa(lp11
F19.56912796
aF-3.808935720000001
aF21.303726739999995
aa(lp12
F11.403463380000002
aF-19.608272160000002
aF2.423171339999996
aa(lp13
F2.48937125
aF-6.284300620000001
aF-3.7869090000000036
aaa(lp14
(lp15
F0.880587402
aF2.9816190999999996
aF6.26514726
aa(lp16
F4.0360255899999995
aF3.6381093399999997
aF2.8623883999999995
aa(lp17
F14.120403490000001
aF10.43716312
aF6.45345124
aa(lp18
F19.016905370000003
aF4.278677472800001
aF13.908396639999998
aa(lp19
F12.913246850000002
aF-16.000689127199998
aF5.863400319999997
aa(lp20
F-0.4557363899999999
aF-10.934797339999998
aF-2.111206520000003
aa(lp21
F-2.1329942699999997
aF1.3494918600000028
aF4.092409079999998
aa(lp22
F-2.3596054699999995
aF0.08140278000000264
aF3.2902317399999967
aaa(lp23
(lp24
F0.34680015999999997
aF3.4118575200000003
aF3.3092657
aa(lp25
F0.9720459119999999
aF2.5359388200000006
aF4.443638460000001
aa(lp26
F4.540962692
aF0.9838973800000005
aF-1.0406397799999996
aa(lp27
F12.4752274
aF7.29249926
aF-1.3208809399999997
aa(lp28
F19.4287079
aF4.232589800000001
aF7.897154788
aa(lp29
F15.918927880000002
aF-13.045645799999999
aF4.845984128
aa(lp30
F-2.442684359999999
aF-12.969150899999999
aF-4.73189998
aa(lp31
F-2.8197710939999987
aF1.1835738
aF-1.7345990400000002
aa(lp32
F0.10498576600000131
aF0.5445612999999998
aF1.4253879599999995
aaa(lp33
(lp34
F0.4436455619999998
aF1.33237306
aF0.48626248000000005
aa(lp35
F-0.766383986
aF-1.1775880399999998
aF-2.7863718200000003
aa(lp36
F0.2926910940000001
aF3.755185660000001
aF-4.55999602
aa(lp37
F14.825974694000001
aF8.3154213
aF7.396527352000001
aa(lp38
F19.428348734000004
aF-10.0708503
aF9.912474012
aa(lp39
F6.908588814000003
aF-17.2495046
aF-5.009028459999999
aa(lp40
F1.1055226240000036
aF-2.241930700000001
aF-4.733935
aaa(lp41
(lp42
F-1.2072762259999998
aF1.6754623000000002
aF1.5435418799999998
aa(lp43
F-0.65182147
aF-2.171181594
aF-1.1080365600000004
aa(lp44
F7.329249802000001
aF1.3705612060000003
aF-4.1443633
aa(lp45
F18.103277062
aF9.0887493
aF7.306145839999999
aa(lp46
F19.193716662
aF-5.058588439999999
aF10.731171119999999
aa(lp47
F11.294407261999998
aF-18.696799300000002
aF1.6326061999999986
aa(lp48
F-2.407848798000001
aF-10.553161712000001
aF-7.899428800000001
aa(lp49
F-2.1856667320000005
aF-1.1535260520000015
aF-2.485899540000001
aaa(lp50
(lp51
F-0.47740382000000003
aF0.44520173999999973
aF0.75836334
aa(lp52
F2.6938359139999997
aF-2.155260438
aF-3.42658116
aa(lp53
F13.368144694
aF6.468414502
aF-1.0613494920000002
aa(lp54
F19.588161294
aF3.7565025199999993
aF9.059898708
aa(lp55
F19.262071294
aF-12.387839080000001
aF7.698435859999999
aa(lp56
F6.941509093999995
aF-18.907010579999998
aF-4.260361980000001
aa(lp57
F-0.42880154160000483
aF-5.932831779999997
aF-5.734711540000001
aa(lp58
F0.48087543839999525
aF-1.1385626199999972
aF-1.1625046400000005
aaa(lp59
(lp60
F-0.6178237444000001
aF1.5011644600000003
aF1.2653356399999998
aa(lp61
F0.39767689533999995
aF-1.15963164
aF-0.9679757
aa(lp62
F3.6073436093400004
aF3.8373064400000003
aF-3.3591847199999996
aa(lp63
F15.235622515600003
aF12.65862338
aF7.63319364
aa(lp64
F20.0605376556
aF-1.3933054200000001
aF11.352107248
aa(lp65
F11.085992095600002
aF-15.86445942
aF-0.35517959200000104
aa(lp66
F-1.3057976243999974
aF-7.71627284
aF-5.2952553400000015
aa(lp67
F-0.3716998403999975
aF2.3948001999999997
aF0.24911673999999911
aa(lp68
F0.6570886544000024
aF0.6786363799999995
aF0.5650316599999995
aaa(lp69
(lp70
F-1.4578294708000001
aF1.88687038
aF1.39186926
aa(lp71
F-0.6762422708000001
aF0.6405686599999999
aF2.4204184
aa(lp72
F0.24612392919999992
aF-2.1705832139999996
aF-3.7362714999999995
aa(lp73
F7.1498046692
aF4.9753906
aF-3.772304179999999
aa(lp74
F16.8801996552
aF9.52473266
aF6.999089577000001
aa(lp75
F18.2517178552
aF-3.4166459200000006
aF7.864114671000001
aa(lp76
F8.636005195200001
aF-13.82567708
aF-2.7279531499999985
aa(lp77
F-2.4732103447999996
aF-6.414904321399999
aF-6.2579644
aa(lp78
F-1.8331205147999996
aF0.33961744000000155
aF-0.13994125999999946
aaa(lp79
(lp80
F0.02094924540000005
aF0.7258022799999999
aF0.5456385999999996
aa(lp81
F2.1479580294000002
aF-2.4230518040000004
aF-2.2013486
aa(lp82
F5.710530194
aF3.7791277279999997
aF-4.92678794
aa(lp83
F14.855422869999998
aF9.918459359999998
aF5.9457607999999995
aa(lp84
F17.00852835
aF0.9306261599999992
aF9.869976914
aa(lp85
F14.44721155
aF-9.842323560000002
aF3.5660436540000005
aa(lp86
F5.751351290000001
aF-13.10909224
aF-5.6236206
aaa(lp87
(lp88
F-1.5355212800000002
aF8.707711560000002
aF5.78487006
aa(lp89
F-2.3365014860000004
aF11.792520700000003
aF7.30734296
aa(lp90
F-2.429516244
aF9.158180568000002
aF5.84149308
aa(lp91
F0.8882487399999999
aF9.874765368000004
aF1.6752230000000004
aa(lp92
F11.541728260000001
aF17.476116260000005
aF6.995498244000001
aa(lp93
F18.19748932
aF14.692976280000005
aF14.523586576000003
aa(lp94
F13.500903519999998
aF-1.6350003199999954
aF11.039185092000002
aa(lp95
F1.3048399999999964
aF-0.9113528399999951
aF1.8341976800000033
aa(lp96
F-6.8231158200000035
aF6.804321270000005
aF1.0579975400000037
aa(lp97
F-5.153878280000003
aF11.187027200000006
aF6.519770280000003
aaa(lp98
(lp99
F1.0382455400000001
aF0.5392939200000001
aF0.06787567999999969
aa(lp100
F3.4688390599999996
aF-5.07594708
aF-1.8855532800000006
aa(lp101
F12.19809862
aF-1.6011226880000002
aF-6.37767387
aa(lp102
F22.101834059999998
aF1.9954469400000001
aF11.386105330000001
aa(lp103
F14.323312059999997
aF-20.54667936
aF2.9006951999999986
aaa(lp104
(lp105
F-10.478822580000001
aF17.15337736
aF-4.6083595399999995
aa(lp106
F-11.955925496
aF22.09429128
aF-1.3640964999999992
aa(lp107
F-10.584287300000002
aF17.75192768
aF-6.312671999999999
aa(lp108
F-1.7675197000000011
aF18.51412174
aF-10.289081919999997
aa(lp109
F7.1551916
aF22.36723038
aF2.049077180000002
aa(lp110
F5.1711164
aF9.394966499999999
aF2.9714436400000017
aa(lp111
F-9.422141853800003
aF4.592317559999998
aF-9.514078559999998
aaa(lp112
(lp113
F1.8472464300000002
aF8.243715159999999
aF5.3986854
aa(lp114
F3.6535518718000004
aF7.738059739999999
aF5.050807520000001
aa(lp115
F10.1667381938
aF10.72889648
aF-2.561796199999999
aa(lp116
F18.8749289938
aF15.1880973
aF12.184331400000001
aa(lp117
F19.4800633938
aF0.8252813000000018
aF15.221974846000004
aa(lp118
F7.537545523799997
aF-2.147000519999998
aF-0.4684255999999962
aaa(lp119
(lp120
F-1.41186081
aF12.19390872
aF10.239521479999999
aa(lp121
F-0.39779664600000014
aF8.757870239999999
aF11.69220336
aa(lp122
F3.9165547379999994
aF7.96634696
aF2.5933993200000005
aa(lp123
F10.859620038
aF16.842011919999997
aF5.689221340000001
aa(lp124
F16.966630438
aF9.686940339999998
aF18.964112208
aaa(lp125
(lp126
F-5.743929560000001
aF4.7975011200000015
aF-1.91081246
aa(lp127
F-8.348222580000002
aF2.417904100000001
aF-3.661333108
aa(lp128
F-3.230496600000001
aF1.2362458400000014
aF-11.007342468
aa(lp129
F6.0501477999999995
aF11.70405474
aF-2.0406982079999993
aa(lp130
F10.712975460000001
aF-0.6262036599999995
aF5.247012532000001
aa(lp131
F-0.17908655999999964
aF-14.476779959999998
aF-6.280469668
aa(lp132
F-14.51137676
aF-3.533482499999998
aF-11.026256068
aa(lp133
F-11.577521846
aF4.937561960000002
aF-3.0251937080000006
aa(lp134
F-10.447817779999998
aF4.681861180000003
aF-3.181535128
aaa(lp135
(lp136
F0.5170278819999999
aF0.23654718
aF0.012090700000000254
aa(lp137
F1.2449849059999998
aF-5.1416679
aF-2.28718088
aa(lp138
F9.012493551999999
aF-3.0318971176000007
aF-6.64570528
aa(lp139
F19.65914978
aF7.39389348
aF7.13172792
aa(lp140
F17.44415384
aF-13.242089720000001
aF5.184643760000001
aa(lp141
F2.005502919999998
aF-14.904982672
aF-6.08761676
aa(lp142
F-1.4460978420000021
aF0.19249378799999944
aF-0.18555082000000028
aa(lp143
F1.1779472519999978
aF-0.24444800000000075
aF-0.09971866000000044
aa(lp144
F1.0670957179999976
aF0.24073701999999936
aF-0.07110796000000033
aa(lp145
F0.9994595139999974
aF0.3025074199999995
aF-0.11025322000000042
aaa(lp146
(lp147
F-0.18459293599999999
aF-0.7432799000000002
aF0.20398594000000028
aa(lp148
F-1.567483982
aF-3.046262546
aF-4.903923600000001
aa(lp149
F6.641515631999999
aF7.469788994
aF4.1321525999999995
aa(lp150
F20.130089352
aF-8.7069934
aF15.762465879999999
aa(lp151
F8.064509531999997
aF-18.606418400000003
aF-1.5116986800000014
aa(lp152
F0.25941175199999567
aF-1.1499352000000016
aF-0.0216673400000019
aa(lp153
F2.1863849819999954
aF-0.4004301600000019
aF0.7985859999999979
aa(lp154
F-0.14939815200000428
aF0.9387664399999979
aF1.494460739999998
aaa(lp155
(lp156
F0.29125462
aF-4.31614708
aF-2.4155103600000003
aa(lp157
F3.6652835132
aF-1.3911512199999998
aF-3.1799788000000007
aa(lp158
F15.504012743999999
aF-4.2181047
aF16.2635722
aa(lp159
F17.667532804
aF-26.9800187
aF2.870049399999998
aa(lp160
F9.630556424000002
aF-7.639298699999999
aF-1.3851650400000026
aa(lp161
F4.649659376
aF-0.6233302599999995
aF0.45034903999999754
aaa(lp162
(lp163
F-2.448909136
aF1.8124107500000002
aF-6.15453434
aa(lp164
F9.505938888000001
aF8.62535055
aF3.6370325800000005
aa(lp165
F18.426375488
aF-7.6482772400000005
aF15.96872698
aa(lp166
F9.328049508000003
aF-19.79334404
aF2.6103987200000005
aaa(lp167
(lp168
F-4.596627906
aF9.942641000000002
aF4.40185912
aa(lp169
F-4.672883252
aF9.803178680000002
aF4.2774803200000004
aa(lp170
F-4.237497684
aF8.657553140000003
aF2.8555640600000003
aa(lp171
F-2.129403096
aF8.563460940000002
aF2.0600905600000003
aa(lp172
F1.61931826
aF10.403165400000002
aF2.7596763200000005
aa(lp173
F4.52001338
aF11.878352600000003
aF5.534316500000001
aa(lp174
F4.119223879999998
aF11.088864900000003
aF6.733213000000001
aa(lp175
F2.060330119999999
aF8.139447800000003
aF5.939056320000001
aa(lp176
F0.6168659199999992
aF5.438907960000003
aF3.6060264800000015
aa(lp177
F0.03926469999999913
aF3.9750930800000033
aF2.1450845600000017
aa(lp178
F-0.474411260000001
aF3.307350260000004
aF1.2836507600000013
aa(lp179
F-0.39121274000000106
aF2.936248984000004
aF-0.2800022399999985
aa(lp180
F-2.021663940000001
aF3.669712612000004
aF-1.204164039999998
aa(lp181
F-4.821802580000001
aF5.675335320000004
aF-0.2952054399999987
aaa(lp182
(lp183
F-1.6251841399999996
aF3.12215872
aF3.64984082
aa(lp184
F-1.0718840939999994
aF2.888604459999999
aF3.7044284399999996
aa(lp185
F0.14472948200000052
aF2.2980744799999995
aF0.5930435199999996
aa(lp186
F2.4605210920000005
aF4.83233708
aF0.29400779999999943
aa(lp187
F7.46739548
aF6.2084044800000004
aF3.8441300799999993
aa(lp188
F8.716929140000001
aF7.26951468
aF8.119934966999999
aa(lp189
F6.18853262
aF3.630447860000001
aF7.8838668
aa(lp190
F5.7202268599999995
aF-0.6004656199999993
aF4.45153924
aa(lp191
F5.13652032
aF-1.0988187999999992
aF1.9632451999999994
aa(lp192
F3.5051112399999993
aF-0.6473920799999993
aF0.8681371999999998
aa(lp193
F1.9608511799999995
aF0.4780024400000006
aF-0.17633300000000016
aa(lp194
F-0.16388312800000043
aF1.2155363400000005
aF0.46411599999999975
aa(lp195
F-1.89117996
aF1.826177420000001
aF1.44645688
aa(lp196
F-3.6266170800000004
aF2.947860940000001
aF2.7284321799999995
aa(lp197
F-3.46668442
aF3.8112100600000014
aF3.1571141
aaa(lp198
(lp199
F1.53109202
aF0.5043385200000001
aF0.7291540799999998
aa(lp200
F2.6378117572
aF-0.5006275599999999
aF0.5839458199999996
aa(lp201
F3.3584664652000003
aF-0.74268138
aF-1.9864691200000002
aa(lp202
F6.3612742959999995
aF0.6617572200000004
aF-1.9917367000000006
aa(lp203
F11.652340420000002
aF1.3828909200000004
aF1.0635043199999994
aa(lp204
F11.74703112
aF1.1160572199999998
aF3.783078019999999
aa(lp205
F9.98765182
aF-0.5167882799999999
aF3.0972588599999993
aa(lp206
F9.12095088
aF-3.383007
aF1.0645816399999994
aa(lp207
F8.207562820000001
aF-5.43735176
aF-0.7231687800000006
aa(lp208
F6.141007640000001
aF-5.8698643
aF-2.1449653400000006
aa(lp209
F4.177163738
aF-5.21648668
aF-3.5504816200000007
aa(lp210
F3.127785137
aF-4.32548448
aF-3.4532769200000004
aa(lp211
F2.2248119760000002
aF-2.4774002600000005
aF-2.11599538
aa(lp212
F2.04800019
aF-0.5797559400000003
aF-1.1583149800000003
aaa(lp213
(lp214
F0.755729758
aF0.7157466000000001
aF1.1332954
aa(lp215
F1.9530700060000001
aF-0.05805934000000015
aF0.9142258000000002
aa(lp216
F2.3149536000000004
aF-1.2084733
aF-0.8814252399999999
aa(lp217
F3.295618660000001
aF-0.7362170599999999
aF-2.01184764
aa(lp218
F8.20504901
aF1.031901
aF0.04824315999999999
aa(lp219
F9.79695363
aF0.85317398
aF3.3862391800000005
aa(lp220
F8.251496310000002
aF-0.9333794400000001
aF3.691380240000001
aa(lp221
F7.968142570000002
aF-3.9487569000000002
aF2.7183768000000006
aa(lp222
F7.587943430000001
aF-6.25509136
aF0.3925295000000011
aa(lp223
F5.412092830000001
aF-5.940014432
aF-1.6209939399999989
aa(lp224
F3.810611390000001
aF-5.00687432
aF-2.0402190399999993
aa(lp225
F2.295799994000001
aF-4.541082399999999
aF-2.3521835399999995
aa(lp226
F1.0642226340000012
aF-3.433883799999999
aF-1.853950139999999
aaa(lp227
(lp228
F0.107260218
aF2.4947583399999997
aF2.1547817599999997
aa(lp229
F0.5051765530000001
aF2.5568878399999995
aF2.3162704999999995
aa(lp230
F2.9704860170000003
aF1.4867991
aF0.07445977999999939
aa(lp231
F7.36205045
aF2.73190404
aF-1.1651381200000008
aa(lp232
F11.177091249999998
aF2.8974629399999996
aF1.957619179999999
aa(lp233
F9.543647129999998
aF1.7486051599999997
aF5.780201659999999
aa(lp234
F7.506181409999998
aF-0.5045780000000005
aF4.356130439999999
aa(lp235
F7.123348549999998
aF-1.7932571200000005
aF1.9607316999999989
aa(lp236
F5.514325289999998
aF-1.4715960600000009
aF0.42724537999999884
aa(lp237
F2.9198486899999985
aF-1.1434707000000006
aF-0.4004300000000011
aaa(lp238
(lp239
F0.7448360939999998
aF6.27867404
aF3.1144972600000003
aa(lp240
F-1.619438086
aF5.69796044
aF4.189613560000001
aa(lp241
F-3.0650570459999993
aF4.5063663599999995
aF4.241687400000001
aa(lp242
F-2.1835119639999996
aF2.8066028999999997
aF3.7585376000000013
aa(lp243
F-1.5962142639999997
aF1.8643648399999997
aF-0.46902431999999833
aa(lp244
F2.293405764
aF7.54939664
aF0.25222899800000176
aa(lp245
F9.970293794000002
aF9.33247824
aF7.351875112000002
aa(lp246
F9.440457074000001
aF4.33386396
aF7.835863014000002
aa(lp247
F7.479127174000001
aF-2.325966994719999
aF4.078163420000003
aa(lp248
F3.5674802540000017
aF-3.742975283319999
aF0.19309228000000261
aa(lp249
F-0.23546973059999807
aF-3.364092881999999
aF-2.5777173199999974
aa(lp250
F-3.0697257259999984
aF-0.24720139999999943
aF-1.4581885199999973
aa(lp251
F-2.816898025999999
aF3.0008923800000007
aF1.2781445400000029
aaa(lp252
(lp253
F1.9664775724
aF0.7945157599999997
aF1.66157602
aa(lp254
F2.559401629
aF0.7904453999999996
aF2.0644004199999997
aa(lp255
F3.2024841979999996
aF-1.5406689800000002
aF-0.36643218000000033
aa(lp256
F4.133349869999999
aF-0.20063398000000027
aF-3.3077088600000004
aa(lp257
F9.780433859999999
aF3.224151859999999
aF1.3601460399999998
aa(lp258
F12.647011699999998
aF2.891597319999999
aF6.05086596
aa(lp259
F9.89918624
aF-2.5334244800000008
aF4.140652139999999
aa(lp260
F8.10736554
aF-5.6249375000000015
aF1.0924742399999996
aa(lp261
F5.307586100000002
aF-5.695087640000002
aF-1.1298235600000006
aa(lp262
F3.213617230000002
aF-5.283404640000002
aF-2.3338678600000007
aa(lp263
F1.6663643900000022
aF-4.473925060000002
aF-2.7977444600000005
aaa(lp264
(lp265
F-0.345842416
aF4.3291954399999995
aF3.8896200199999997
aa(lp266
F0.282874932
aF5.1761443
aF5.157469599999999
aa(lp267
F1.02220446
aF2.7444733999999995
aF2.9035680599999987
aa(lp268
F3.02770756
aF4.499303599999999
aF-1.0737994000000017
aa(lp269
F6.21355207
aF8.53089992
aF3.7367505399999983
aa(lp270
F9.15219505
aF9.15207572
aF9.419268438
aa(lp271
F8.58560737
aF5.166448079999999
aF7.979395491999999
aa(lp272
F8.12687841
aF0.6421248599999995
aF4.000232399999999
aa(lp273
F1.5561114299999985
aF1.4154520799999994
aF0.5378577999999987
aa(lp274
F-2.624763300000002
aF3.3344048199999987
aF1.3860036999999985
aaa(lp275
(lp276
F1.4399925580000001
aF1.0001777
aF1.7257404800000002
aa(lp277
F2.818933038
aF0.08643055999999998
aF2.2582108400000003
aa(lp278
F4.851730003999999
aF-0.22194253999999985
aF-0.9339783199999998
aa(lp279
F7.3535511499999995
aF2.6812663799999994
aF-0.5243302
aa(lp280
F10.51365779
aF4.89937444
aF4.78912144
aa(lp281
F10.238803390000001
aF3.106357139999999
aF6.13957092
aa(lp282
F10.096946990000003
aF-0.4369419200000005
aF4.1780015
aa(lp283
F9.026379690000002
aF-2.5893292400000005
aF1.6800112799999993
aa(lp284
F6.660070530000001
aF-2.8439525600000004
aF-0.11420332000000055
aa(lp285
F3.517441390000002
aF-2.68868856
aF-2.4185030400000005
aaa(lp286
(lp287
F-0.46208091000000007
aF3.4727895799999997
aF5.183087680000001
aa(lp288
F1.0304644399999998
aF2.19799696
aF4.669052580000002
aa(lp289
F2.5238477
aF2.5965117400000004
aF0.6347031000000015
aa(lp290
F7.03919232
aF6.3794701400000005
aF2.8741196000000016
aa(lp291
F10.18313834
aF7.43064474
aF8.579861364000001
aa(lp292
F8.24299714
aF2.59351926
aF9.120591663999999
aa(lp293
F8.910859740000001
aF-0.9500192399999999
aF5.566159919999999
aa(lp294
F6.564781240000002
aF-2.120664168
aF3.226665599999999
aa(lp295
F1.9777303260000025
aF-1.6191986399999998
aF1.423233199999999
aa(lp296
F-1.4502876539999976
aF-0.14077911999999976
aF1.0265137999999994
aaa.