(lp0
(lp1
(lp2
F-0.8668207160000001
aF7.9534182
aF0.34847605000000004
aa(lp3
F-2.10689748
aF9.813952200000001
aF1.12766899
aa(lp4
F-4.03111742
aF9.2608919
aF1.2394782500000001
aa(lp5
F-9.1682365
aF6.16267534
aF-3.5940559699999994
aa(lp6
F5.7657164
aF2.2446838399999995
aF-8.230786654
aa(lp7
F10.80634908
aF3.78080365
aF-7.4623674399999995
aa(lp8
F-0.11324570999999964
aF7.5200678199999995
aF-2.521573128
aa(lp9
F-5.26844064
aF10.408672200000002
aF-0.9185354799999998
aa(lp10
F-2.2565351
aF9.887693600000002
aF1.6089035000000003
aaa(lp11
(lp12
F1.473152286
aF0.26539740000000017
aF-0.8042123199999999
aa(lp13
F1.4124592901600004
aF0.25737699999999997
aF-1.2667720775999998
aa(lp14
F-2.80468761984
aF0.5009869999999996
aF-2.1763293055999995
aa(lp15
F-3.2662896999999993
aF-7.31632104
aF-5.770504739999999
aa(lp16
F13.285784699999999
aF-9.988010708
aF-9.31883134
aa(lp17
F12.584163519999999
aF-5.898474787999999
aF-9.417472499999999
aa(lp18
F2.234268919999998
aF-1.877173299999998
aF-5.008909355999999
aa(lp19
F-4.942709620000002
aF0.3761296000000023
aF-4.521809048
aa(lp20
F-0.20889409340000248
aF0.3186685000000022
aF-1.112705207999999
aaa(lp21
(lp22
F-0.0673967786
aF0.3649957000000004
aF-0.8255207453000001
aa(lp23
F-0.06464343860000002
aF0.14436999999999997
aF-0.34117374000000006
aa(lp24
F-2.6503811786
aF0.6423639999999999
aF-0.34093432400000007
aa(lp25
F-10.0962287266
aF-4.173812046
aF-5.512290232
aa(lp26
F7.003878213400002
aF-8.785283902
aF-9.258258408
aa(lp27
F14.430691893400004
aF-8.278311656000001
aF-10.618643948
aa(lp28
F3.7575798734000045
aF-5.505826140000002
aF-4.990354348000001
aa(lp29
F-4.257010166599995
aF0.18303669999999778
aF-3.531088436000001
aa(lp30
F-3.1279047265999957
aF0.8200140999999977
aF-1.532049728000001
aa(lp31
F0.07936779740000421
aF0.19955649999999778
aF-0.31316157000000094
aa(lp32
F0.47117892540000417
aF0.1107314999999975
aF-0.15466541800000094
aaa(lp33
(lp34
F-0.15263035200000002
aF-0.03387779999999978
aF-0.187226573
aa(lp35
F0.037948102000000004
aF0.24432840000000056
aF-0.3889380682
aa(lp36
F-3.4957738380000003
aF0.8137894000000003
aF-1.1901576872
aa(lp37
F-11.655811512000001
aF-4.2359410423999995
aF-5.4626105979999995
aa(lp38
F6.198947687999999
aF-7.952460546399999
aF-6.57447777
aa(lp39
F16.580086687999998
aF-6.158365504
aF-7.91618839
aa(lp40
F0.3440470679999983
aF-4.63565332
aF-5.373067410000001
aa(lp41
F-6.215586772000002
aF-0.14856005999999997
aF-3.0265103900000008
aaa(lp42
(lp43
F4.008970939999999
aF-0.20242960000000032
aF1.652837178
aa(lp44
F3.81911072
aF-0.23714560000000057
aF1.6010027070000004
aa(lp45
F-3.224869960000001
aF-0.5367802000000003
aF0.3782839090000003
aa(lp46
F0.03938472799999957
aF-7.495168272000001
aF-2.5722107039999997
aa(lp47
F18.825847528
aF-8.636244780000002
aF-6.3279946240000005
aa(lp48
F11.36096592
aF-7.879078506800001
aF-6.468654084000001
aa(lp49
F-2.8924350800000007
aF-2.5918431868
aF-1.7501615240000006
aa(lp50
F1.552639739999999
aF0.6046553000000001
aF1.0002975419999995
aaa(lp51
(lp52
F0.9999383380000001
aF-0.4746503000000004
aF-0.4212597848
aa(lp53
F1.0162189080000001
aF-0.3623621
aF-0.26587609539999996
aa(lp54
F0.7309497880000001
aF-0.21416099999999966
aF-0.05231330359999993
aa(lp55
F-4.109168251999999
aF-0.27210061999999996
aF-1.1048043879999998
aa(lp56
F-6.131191391999999
aF-4.430829
aF-5.095818876
aa(lp57
F11.367550008000004
aF-5.99986916
aF-7.648756162000001
aa(lp58
F13.337140008000006
aF-4.80947206
aF-6.966887422000001
aa(lp59
F3.0435091820000046
aF-3.2510861600000007
aF-3.139875802
aa(lp60
F-4.697064611999996
aF-0.38702240000000077
aF-3.354276602
aa(lp61
F-2.529115031999995
aF-0.07086820000000031
aF-1.6601394620000007
aaa(lp62
(lp63
F1.33656308
aF-0.23989890000000003
aF0.7799112039199999
aa(lp64
F1.4076709
aF-0.35517970000000004
aF0.5774814557999999
aa(lp65
F-1.7348385200000003
aF0.7510608999999999
aF-0.5864597122000001
aa(lp66
F-5.795644240000001
aF-3.8634035320000004
aF-4.047278260000001
aa(lp67
F11.6724517
aF-7.674733132
aF-8.73273082
aa(lp68
F13.838366099999998
aF-6.427713140000002
aF-6.8783018600000005
aa(lp69
F-1.3650539800000012
aF-2.684019420000001
aF-2.521932300000001
aa(lp70
F-2.3776816200000015
aF0.9458296999999991
aF-0.612197378000001
aa(lp71
F1.305917311999999
aF-0.35901040000000073
aF1.433647971999999
aaa(lp72
(lp73
F0.26240452799999997
aF0.12174499999999995
aF-0.5238513119999999
aa(lp74
F0.10642226800000003
aF-0.015562500000000057
aF-0.387740944
aa(lp75
F-1.575624112
aF0.6102815999999998
aF-0.668461102
aa(lp76
F-7.375458172
aF-4.25665138
aF-5.027584182
aa(lp77
F8.921514108
aF-8.947012079999999
aF-11.136509552
aa(lp78
F14.371554847999999
aF-6.840473779999998
aF-8.756074472
aa(lp79
F0.11288658799999922
aF-3.612850539999998
aF-1.3253103520000002
aa(lp80
F-6.035064232
aF1.629014800000002
aF-1.001135412
aa(lp81
F-0.8397662119999996
aF0.3642779000000022
aF0.34907462339999995
aaa(lp82
(lp83
F1.01969049
aF-0.08248040000000004
aF-0.22649147539999998
aa(lp84
F1.30675524
aF-0.2561800000000002
aF-0.37984009139999997
aa(lp85
F0.18219876000000018
aF0.2535457999999998
aF-0.6245275154
aa(lp86
F-7.90206276
aF-2.0187911000000005
aF-4.207689919400001
aa(lp87
F3.828687800000001
aF-9.178292052
aF-7.8795573554
aa(lp88
F18.687941560000002
aF-7.0698384
aF-8.747455275399998
aa(lp89
F5.11293746
aF-5.694010268000001
aF-5.269877275399999
aa(lp90
F-4.8107892
aF0.24301119999999887
aF-2.541684575399999
aaa(lp91
(lp92
F2.086546794
aF-1.0040084999999999
aF1.1799823799999998
aa(lp93
F0.9575609540000001
aF-0.9356541
aF0.7261614259999998
aa(lp94
F-5.5341971260000005
aF-2.5607187000000002
aF-2.941875272
aa(lp95
F6.233543750000001
aF-7.315123960000001
aF-7.1320874000000005
aa(lp96
F16.843807493999996
aF-7.559212768
aF-8.19726792
aa(lp97
F7.518272059999999
aF-5.653069160000001
aF-5.1016846000000005
aa(lp98
F-0.8878895800000002
aF-1.8486828000000013
aF-3.94372906
aa(lp99
F-1.6830040059999998
aF-0.8942344000000013
aF-0.2688688179999998
aa(lp100
F1.4838064940000002
aF-1.089481800000001
aF1.3218388040000002
aaa(lp101
(lp102
F-0.8086416800000003
aF0.3693059999999999
aF-0.7964311972
aa(lp103
F-8.87530584
aF-2.761471952
aF-4.126406573199999
aa(lp104
F5.626972619999999
aF-6.993941860000001
aF-9.008423303199999
aa(lp105
F16.827287419999998
aF-5.688982168000001
aF-8.8958959632
aa(lp106
F1.0518924199999986
aF-5.25000524
aF-5.006634943199999
aa(lp107
F-7.199723640000002
aF0.7704542599999996
aF-2.1855470631999987
aaa(lp108
(lp109
F5.08719968
aF-1.124437
aF1.371039656
aa(lp110
F4.5409625600000005
aF-1.0119094
aF1.5209166699999999
aa(lp111
F0.5911283199999999
aF-0.4541800000000006
aF0.8408436899999998
aa(lp112
F-1.34326686
aF-10.71058089
aF-4.456327636
aa(lp113
F18.890850340000004
aF-13.725718840000003
aF-4.968926040000001
aa(lp114
F5.953302340000003
aF-7.706456320000001
aF-4.587888820000002
aa(lp115
F-0.8643068399999976
aF0.6779184999999999
aF-1.8818424600000014
aaa(lp116
(lp117
F2.38354762
aF-0.8858550999999999
aF1.3145364659999998
aa(lp118
F-6.27388548
aF-2.4425651
aF-1.536119612
aa(lp119
F5.5464082
aF-10.7395511
aF-6.06582966
aa(lp120
F13.912467300000003
aF-15.22616552
aF-4.338652920000001
aa(lp121
F-3.077865619999998
aF-9.07713732
aF-3.866516220000001
aa(lp122
F1.6268601000000031
aF-1.6318883000000004
aF2.1668722739999997
aaa(lp123
(lp124
F0.42042180000000007
aF0.5972339999999997
aF0.161967726
aa(lp125
F-3.38228854
aF-1.0004168599999996
aF-2.6955120172
aa(lp126
F0.9227255999999997
aF-14.56117514
aF-7.1608177799999995
aa(lp127
F16.63096326
aF-16.62018888
aF-4.420893613999999
aa(lp128
F-2.373372
aF-8.379705900000001
aF-7.050924133999999
aaa(lp129
(lp130
F-4.40305684
aF0.85449062
aF-2.067512854
aa(lp131
F11.16799352
aF-9.93162738
aF-1.6162058800000003
aa(lp132
F19.644904239999995
aF-9.846633180000001
aF2.021304899999999
aa(lp133
F1.332014239999996
aF-0.45645428000000055
aF-0.0742201280000007
aa(lp134
F5.360378139999996
aF4.8810592999999995
aF3.638348739999999
aaa(lp135
(lp136
F1.5695189999999999
aF-1.8664001999999997
aF0.9900024000000001
aa(lp137
F-1.54904846
aF-1.9219455999999995
aF1.91248832
aa(lp138
F-8.37683288
aF-10.34055726
aF-4.74626522
aa(lp139
F10.75990206
aF-15.68022594
aF-3.1996109400000003
aa(lp140
F6.73943858
aF-8.166143640000001
aF-4.16231962
aa(lp141
F-7.262930360000001
aF-2.4672249000000006
aF0.1395819999999997
aaa(lp142
(lp143
F5.761766020000001
aF-2.0198687
aF0.42125975399999993
aa(lp144
F8.971791880000001
aF0.8403647
aF1.7416619939999998
aa(lp145
F3.027347840000002
aF0.6240485
aF0.7806294199999997
aa(lp146
F5.113775210000002
aF-11.368507736000002
aF-0.9385269399999998
aa(lp147
F18.16612521
aF-13.325527935999997
aF-1.4415485200000002
aa(lp148
F2.9214048600000004
aF-4.469974699999998
aF-0.39803602
aa(lp149
F7.093420934000001
aF3.445375900000002
aF1.85071788
aaa(lp150
(lp151
F0.792959666
aF-0.7697354000000001
aF-2.4691401980000003
aa(lp152
F-2.610996574
aF-1.3402738999999992
aF-1.4921862260000003
aa(lp153
F-6.663422234
aF-8.549215039999998
aF-3.7365108740000004
aa(lp154
F10.961972505999999
aF-14.2550769
aF-4.4516588200000005
aa(lp155
F0.3878608059999998
aF-3.030221440000001
aF-9.560885180000001
aa(lp156
F-4.225406794
aF0.6506245999999987
aF-5.0549977800000025
aa(lp157
F1.1645397339999992
aF-1.138083400000001
aF-2.758958318000002
aaa(lp158
(lp159
F-1.8152837519999998
aF0.10295069999999988
aF0.08786720899999996
aa(lp160
F-12.410224628
aF-5.799953820000001
aF-4.96066609
aa(lp161
F4.452257891999999
aF-15.617138120000002
aF-0.4073732339999999
aa(lp162
F9.201994792
aF-9.478046080000002
aF1.261505112
aa(lp163
F-6.843346788
aF-1.2342109200000013
aF-3.382408334
aa(lp164
F-1.2368445879999999
aF1.274553399999999
aF2.6754006261999996
aaa(lp165
(lp166
F-4.52587932
aF0.2780863999999994
aF-1.1973402402
aa(lp167
F-6.920918799999998
aF-11.1203485
aF-3.6673182722
aa(lp168
F9.383954000000003
aF-16.295535280000003
aF-1.5556324122000003
aa(lp169
F4.539645940000002
aF-9.873209
aF-5.3551110122
aa(lp170
F-6.9849636599999965
aF-0.22062592000000017
aF-4.1268854842
aa(lp171
F-1.0994174299999977
aF1.1558005999999996
aF-0.031962526200000244
aaa(lp172
(lp173
F-0.40653539
aF-0.15574270000000007
aF0.005386922000000016
aa(lp174
F0.25617961
aF-1.176032
aF0.518943174
aa(lp175
F-3.2789790700000006
aF-1.1976994
aF-0.54647658
aa(lp176
F-5.770265630000001
aF-3.67258574
aF-3.4012030199999996
aa(lp177
F3.0362069099999998
aF-5.566997720000001
aF-7.700949906
aa(lp178
F8.172607549999999
aF-6.20397502
aF-9.233957265999999
aa(lp179
F7.6355879700000004
aF-6.57052728
aF-10.610503605999998
aa(lp180
F6.77966095
aF-5.473025260000001
aF-7.892246505999999
aa(lp181
F3.7314830700000003
aF-3.067690400000001
aF-4.754645205999999
aa(lp182
F1.1632228900000003
aF-1.379060000000001
aF-4.900452086
aa(lp183
F0.4466383300000002
aF-1.1529278000000007
aF-2.8480226359999996
aa(lp184
F-0.18076220999999976
aF-0.9522936000000006
aF-1.4449007663999995
aaa(lp185
(lp186
F1.1423933279999998
aF-0.2904166
aF-0.4425681816
aa(lp187
F1.5416264719999997
aF-0.2603694000000001
aF-0.2685097136
aa(lp188
F0.45070847999999974
aF0.0992398999999999
aF-0.170467149
aa(lp189
F-3.90649924
aF-0.8712497999999999
aF-2.246479443
aa(lp190
F-2.35433828
aF-4.76482058
aF-4.7793054396
aa(lp191
F8.91744362
aF-5.20475514
aF-7.421187239599999
aa(lp192
F10.41094668
aF-4.84047728
aF-9.085157579599999
aa(lp193
F7.3309258999999996
aF-5.3853974000000004
aF-6.887878839599999
aa(lp194
F3.6229060119999987
aF-2.1849483999999997
aF-3.3554736995999983
aa(lp195
F-0.13395558800000132
aF-0.4944027999999996
aF-1.7814057783999986
aa(lp196
F-1.4150928800000013
aF-0.04525019999999955
aF-0.8400056773999987
aa(lp197
F-0.02537855200000134
aF0.16531960000000084
aF0.3977966114000012
aaa(lp198
(lp199
F1.120366708
aF-0.2667138000000005
aF-0.14580687820000002
aa(lp200
F1.1380838
aF-0.47393220000000086
aF-0.269227977
aa(lp201
F-1.6427814680000001
aF0.035793199999999456
aF-1.6512809138000002
aa(lp202
F-3.5459324279999995
aF-2.2091301400000005
aF-4.172973831
aa(lp203
F1.8078617150000003
aF-5.366603160000001
aF-6.652289311
aa(lp204
F7.5322783520000005
aF-6.591237280000001
aF-10.217734471
aa(lp205
F7.337869232
aF-6.913377060000002
aF-11.139741390999998
aa(lp206
F5.5313241600000005
aF-4.495951540000002
aF-6.719925450999999
aa(lp207
F1.8823214
aF-1.9484012000000017
aF-3.0623036909999986
aa(lp208
F-0.258693488
aF-1.1573572000000016
aF-2.532347144999999
aa(lp209
F-0.4435259280000001
aF-0.38570620000000166
aF-2.3631967729999985
aaa(lp210
(lp211
F1.393305718
aF-0.3655946
aF0.24468742800000004
aa(lp212
F0.45178590399999985
aF-0.13096299999999986
aF-0.42904097199999996
aa(lp213
F-3.0891185660000002
aF-0.7724891000000003
aF-1.451245412
aa(lp214
F-3.1511284816
aF-4.40269738
aF-2.721010332
aa(lp215
F4.8893190184
aF-6.426396399999999
aF-5.7768497320000005
aa(lp216
F9.595840794
aF-7.18188668
aF-9.480679492
aa(lp217
F7.695203793999999
aF-7.48654878
aF-8.084979692000001
aa(lp218
F4.2853816600000005
aF-4.55867942
aF-4.509000192000001
aa(lp219
F0.4450821399999999
aF-1.7618928999999994
aF-2.6026169720000008
aa(lp220
F-1.267251006
aF-1.2175711999999994
aF-1.0228030060000004
aa(lp221
F-1.1232397660000002
aF-0.8095988999999992
aF0.10929531399999952
aaa(lp222
(lp223
F1.38325012
aF-0.11959050000000034
aF0.11923127199999994
aa(lp224
F1.90386926
aF0.2579750999999998
aF0.19201499599999997
aa(lp225
F0.99155874
aF-0.12832930000000004
aF0.03998318799999998
aa(lp226
F-2.4525004000000004
aF-0.13658949999999984
aF-1.732444466
aa(lp227
F-1.5185223800000003
aF-2.5017017000000004
aF-4.016991686
aa(lp228
F6.2646683
aF-5.2393515200000005
aF-6.467097886
aa(lp229
F9.13387962
aF-6.97239436
aF-9.248561806000001
aa(lp230
F8.123167400000002
aF-6.77894288
aF-8.346665906000002
aa(lp231
F5.4545901200000015
aF-3.8376661199999993
aF-6.376836506000001
aa(lp232
F1.1092336800000018
aF-1.4368803599999995
aF-2.9382841460000004
aa(lp233
F-1.1279083999999981
aF-0.3845090999999995
aF-0.7803900660000004
aaa(lp234
(lp235
F1.9913773
aF0.01520320000000055
aF0.7261613739999999
aa(lp236
F2.3579296
aF-0.02777279999999962
aF0.8121131859999998
aa(lp237
F2.23235372
aF-0.08810660000000006
aF0.7767987199999997
aa(lp238
F2.00083442
aF-0.10869699999999974
aF0.6673837059999999
aa(lp239
F-1.4182053200000002
aF-0.4017470799999995
aF-0.34620156800000024
aa(lp240
F-2.39515928
aF-2.0281280399999995
aF-1.9211074480000003
aa(lp241
F5.14154818
aF-4.743751479999999
aF-5.034766848
aa(lp242
F9.531197240000001
aF-6.29447598
aF-8.742068588
aa(lp243
F9.12980936
aF-6.829460299999999
aF-8.225279988
aa(lp244
F7.2540720190000005
aF-4.70436692
aF-4.263714108000001
aa(lp245
F2.655050059
aF-1.3145363400000003
aF-2.162323268000001
aa(lp246
F-0.6659471199999999
aF-0.8402448
aF-0.4030638918000012
aa(lp247
F-1.0773907199999997
aF-0.23558920000000008
aF0.4156333881999988
aaa(lp248
(lp249
F0.7720103799999999
aF-0.26072880000000004
aF0.15705963800000003
aa(lp250
F0.5805939399999999
aF-0.6130355999999999
aF0.2136825120000001
aa(lp251
F-2.24468396
aF-0.12892810000000027
aF-0.930506538
aa(lp252
F-4.165791389000001
aF-2.4841043800000002
aF-2.2661119659999995
aa(lp253
F5.891052931
aF-5.93295182
aF-5.494453446
aa(lp254
F10.40113042
aF-7.922294000000001
aF-10.060674866
aa(lp255
F8.17212878
aF-7.712921060000001
aF-8.373121666
aa(lp256
F4.6167391900000005
aF-4.76506014
aF-5.443696125999999
aa(lp257
F0.03471595000000036
aF-1.6177625199999994
aF-2.570893725999999
aa(lp258
F-1.7114949599999996
aF-0.44185019999999947
aF-0.49476176599999916
aa(lp259
F-0.6694186799999996
aF-0.15310959999999962
aF0.21499930600000078
aaa(lp260
(lp261
F0.50038808
aF-0.4197032999999998
aF0.42042180800000006
aa(lp262
F1.39462238
aF-0.14903860000000008
aF0.9345766257399999
aa(lp263
F-0.1999159200000001
aF0.17166460000000008
aF-0.060333922000000005
aa(lp264
F-3.51253332
aF-1.5695188
aF-2.5735275119999996
aa(lp265
F2.7940333
aF-2.958874
aF-4.482903432
aa(lp266
F8.39802152
aF-4.17273428
aF-6.686526511999999
aa(lp267
F8.64366652
aF-5.904221
aF-9.431598372
aa(lp268
F7.785345240000001
aF-5.046737459999999
aF-6.9343263120000005
aa(lp269
F4.953603230000001
aF-2.263477999999999
aF-2.5902867720000002
aa(lp270
F0.4559756900000009
aF-1.1780665999999995
aF-1.7999608520000006
aa(lp271
F-1.628176839999999
aF-0.7213725999999993
aF-0.3463212820000006
aa(lp272
F0.5784391000000008
aF0.12485800000000094
aF0.4027047379999994
aaa(lp273
(lp274
F1.33943612
aF-0.05961580000000026
aF-0.0003591430000000173
aa(lp275
F-0.36439752
aF-0.12569570000000035
aF-0.29628247099999994
aa(lp276
F-4.4018597
aF-1.1262327000000003
aF-1.233851862
aa(lp277
F-0.49284653999999933
aF-4.26958016
aF-3.15771267
aa(lp278
F9.136752260000002
aF-4.59303678
aF-7.033326730000001
aa(lp279
F9.78474304
aF-4.91529636
aF-8.82155597
aa(lp280
F6.482061540000001
aF-4.2248085799999995
aF-5.867230729999998
aa(lp281
F2.1696255300000002
aF-1.7865536
aF-4.06307991
aa(lp282
F-0.5045779999999995
aF-0.8746019999999997
aF-1.5574282099999996
aa(lp283
F-1.9511546399999997
aF-0.7908049999999998
aF-0.07721302239999943
aa(lp284
F-0.7747636199999998
aF-0.64021
aF0.8213308776000006
aaa(lp285
(lp286
F1.5174449700000001
aF0.3901353999999998
aF-0.9998186336
aa(lp287
F-0.1980006360000001
aF0.4926071999999998
aF-0.8228871235999999
aa(lp288
F-4.58741038
aF-0.5422863999999998
aF-1.7094600276
aa(lp289
F2.0399794800000004
aF-4.19404254
aF-4.847540227600001
aa(lp290
F11.51180064
aF-5.5722648
aF-10.240718667600001
aa(lp291
F9.94395756
aF-5.15244156
aF-9.8076077876
aa(lp292
F5.094023107999999
aF-3.09534348
aF-5.377017947600001
aa(lp293
F-0.10342963200000099
aF-0.9686936599999999
aF-2.8793866836000004
aa(lp294
F-1.6658856000000006
aF-0.19847900000000002
aF-2.2799982436
aaa.