(lp0
(lp1
(lp2
F-2.7867311
aF7.454945599999999
aF0.32752678999999996
aa(lp3
F-6.06690716
aF10.448296299999999
aF0.46459484999999995
aa(lp4
F-14.756542340000001
aF5.162617207999999
aF-2.88142166
aa(lp5
F2.2685061999999987
aF-3.6953304520000003
aF-4.81629558
aa(lp6
F12.434765239999999
aF-5.711248
aF-10.16314668
aa(lp7
F-2.9758730600000023
aF-0.2446871800000004
aF-3.43029242
aa(lp8
F-12.119688600000003
aF6.85843008
aF1.2132617399999996
aaa(lp9
(lp10
F6.10736896
aF1.8573021999999995
aF1.2816161400000001
aa(lp11
F3.8611291199999997
aF3.1906331999999997
aF1.03728782
aa(lp12
F4.7125074
aF-10.0100374
aF-2.9015330999999995
aa(lp13
F24.9511732
aF-13.368862799999999
aF-11.06971132
aa(lp14
F13.180678799999999
aF-10.61373536
aF-9.04649126
aa(lp15
F-3.1350874000000024
aF-1.5004459799999992
aF-5.336316479999999
aa(lp16
F3.4748246599999972
aF0.6386537200000006
aF0.14628554800000054
aa(lp17
F6.490082319999997
aF1.1960239000000008
aF0.7626728680000007
aaa(lp18
(lp19
F0.10737979999999965
aF0.12485710000000001
aF-0.200873508
aa(lp20
F-5.193502320000001
aF0.022385159999999793
aF-1.0954669540000002
aa(lp21
F-3.841615920000001
aF-12.09550746
aF-4.17943818
aa(lp22
F15.28901308
aF-16.5135278
aF-8.193436728
aa(lp23
F15.134466928
aF-10.265618899999998
aF-9.100360528000001
aa(lp24
F0.20973182800000104
aF-6.189250939999998
aF-4.960785788000002
aa(lp25
F-6.835206419999999
aF-1.9908985799999974
aF-2.5173833420000022
aa(lp26
F-3.642059719999999
aF-1.7697941399999977
aF0.40988736799999775
aaa(lp27
(lp28
F3.2546778000000005
aF2.35373954
aF-0.3693056040000001
aa(lp29
F-4.6473848
aF-0.4906918400000002
aF-4.035666404
aa(lp30
F6.716933399999999
aF-12.492106340000001
aF-8.522639636
aa(lp31
F25.643816200000003
aF-10.502644560000002
aF-12.246820216
aa(lp32
F5.503671520000002
aF-8.01710424
aF-6.449859395999998
aa(lp33
F-4.3788752199999985
aF0.19524702000000005
aF-0.3728968959999982
aa(lp34
F2.916975540000002
aF1.5885526000000003
aF0.8398859840000016
aa(lp35
F4.124251760000002
aF1.61692404
aF0.1804031300000016
aaa(lp36
(lp37
F-1.8589778799999999
aF0.11288674000000007
aF0.39073369400000024
aa(lp38
F-10.25113336
aF-3.9622841
aF-3.0473398859999996
aa(lp39
F5.524501239999999
aF-13.270222039999998
aF-11.005786386
aa(lp40
F20.83230884
aF-12.175113920000001
aF-18.764675526
aa(lp41
F5.92002306
aF-9.058222580000002
aF-10.596616926000001
aa(lp42
F-9.99890456
aF-3.058951740000002
aF-5.882074916000002
aa(lp43
F-3.572627779999999
aF-1.2203245000000027
aF-0.33195608600000215
aaa(lp44
(lp45
F0.56814428
aF0.42748486
aF-0.23834276000000001
aa(lp46
F-6.78983604
aF-1.7459713200000002
aF-1.6284163
aa(lp47
F-2.164836679999999
aF-14.52645932
aF-5.79588353
aa(lp48
F20.879234920000005
aF-16.949032600000002
aF-12.969869350000002
aa(lp49
F11.266395420000006
aF-11.373415800000004
aF-13.16679278
aa(lp50
F-6.826467379999995
aF-4.097556400000005
aF-8.2804666
aa(lp51
F-4.167227719999997
aF-0.35877092000000477
aF-4.6150632
aa(lp52
F0.05542588000000368
aF0.11923169999999539
aF-2.5846604520000005
aaa(lp53
(lp54
F-0.45693353999999997
aF0.26060877999999976
aF0.29580365
aa(lp55
F-7.57525402
aF-2.3708584999999998
aF-2.113481364
aa(lp56
F-2.0799625399999995
aF-14.8250168
aF-7.2225881439999995
aa(lp57
F19.842545460000004
aF-15.739602139999999
aF-11.642524128
aa(lp58
F5.665878480000002
aF-10.8195177
aF-8.634568947999998
aa(lp59
F-7.281964519999997
aF-0.4252105399999998
aF-4.184705507999998
aa(lp60
F-1.8508375399999963
aF0.41742878000000017
aF-1.4603433427999977
aa(lp61
F0.19847916000000368
aF0.47393196
aF-0.1510741227999976
aaa(lp62
(lp63
F-1.7187974000000001
aF0.4611233
aF0.29065605480000006
aa(lp64
F-9.89990402
aF-5.228697174
aF-1.9487604572000001
aa(lp65
F8.412387120000002
aF-14.957296073999998
aF-6.8496914972
aa(lp66
F19.89222508
aF-15.302779300000001
aF-11.0324815052
aa(lp67
F-0.3254917200000008
aF-8.65456018
aF-5.749794865199999
aa(lp68
F-7.536946880000002
aF-0.45406038000000154
aF-2.844790325199999
aa(lp69
F-0.7709330000000015
aF0.019033919999998615
aF0.14736307480000158
aaa(lp70
(lp71
F-0.38953668000000014
aF0.9543286999999999
aF-0.1698685599999999
aa(lp72
F-7.66264228
aF-2.9204474200000003
aF-3.179379964
aa(lp73
F1.9354733200000005
aF-12.85363102
aF-9.81646613
aa(lp74
F18.47593496
aF-13.234428560000001
aF-17.1025012
aa(lp75
F2.68282244
aF-10.85064194
aF-11.623011494
aa(lp76
F-7.29896368
aF-3.8710651
aF-0.9223660340000006
aa(lp77
F-3.3225534599999995
aF-0.4539406599999998
aF-0.7915230600000008
aaa(lp78
(lp79
F0.15418640000000003
aF0.6234501
aF-0.21595699999999987
aa(lp80
F-0.7733273600000002
aF1.1997343999999999
aF-0.32537195999999985
aa(lp81
F-8.45440516
aF-3.2143353999999995
aF-2.999695254
aa(lp82
F4.763264297
aF-17.755997880000002
aF-11.080365134000001
aa(lp83
F20.475572239999998
aF-15.286259660000002
aF-14.630008380000001
aa(lp84
F9.484151034
aF-13.849978210000003
aF-12.41094286
aa(lp85
F-5.691616486
aF-3.642299090000004
aF-5.890574194
aa(lp86
F-4.32440756
aF-0.0627281800000036
aF-1.8942923479999998
aa(lp87
F-0.2527081000000001
aF0.08571243999999645
aF-0.8617928939999997
aa(lp88
F-0.15538378000000003
aF0.2123656999999966
aF-0.39636013999999975
aaa(lp89
(lp90
F-7.620025520000001
aF-4.0391379999999995
aF-3.0450654399999997
aa(lp91
F3.1152158199999995
aF-13.394959499999999
aF-8.738955999999998
aa(lp92
F20.57564996
aF-13.93018352
aF-14.37095602
aa(lp93
F-2.0068200400000022
aF-8.623675213999999
aF-8.11347068
aaa(lp94
(lp95
F8.167579839999998
aF3.3254266939999995
aF3.1176099
aa(lp96
F-1.293227600000002
aF-0.4971557440000005
aF2.1781251399999997
aa(lp97
F16.72756986
aF-9.949344144
aF-8.50240862
aa(lp98
F20.268115
aF-6.048591346
aF-9.017281780000001
aa(lp99
F0.6248871999999999
aF1.1705251339999996
aF-0.18243810000000024
aa(lp100
F6.30477138
aF7.150642434
aF2.4119189199999997
aaa(lp101
(lp102
F-4.768890659999999
aF-0.5453989800000004
aF1.41281842
aa(lp103
F-2.946304519999999
aF-16.31612478
aF-1.8199520800000002
aa(lp104
F19.23992488
aF-19.7963368
aF-1.8719064800000003
aa(lp105
F7.145495165999999
aF-17.01858428
aF-6.39898292
aa(lp106
F-7.643129720000002
aF-2.8537684799999994
aF-2.875675628000001
aaa(lp107
(lp108
F2.18566668
aF-0.6251260999999996
aF-0.026216512000000147
aa(lp109
F-0.39647961999999987
aF-0.7540536999999997
aF0.8019378279999998
aa(lp110
F-1.0583564799999998
aF-12.4748681
aF-2.987844012
aa(lp111
F19.05473332
aF-21.271284700000002
aF-9.153032872
aa(lp112
F13.379397919999997
aF-13.060250539999998
aF-6.958627432000002
aa(lp113
F-5.218880680000003
aF-5.158427339999999
aF-3.1428687120000025
aa(lp114
F0.029807819999997064
aF-1.9494785999999995
aF1.3402740879999975
aaa(lp115
(lp116
F-1.5831659000000002
aF1.4902707999999998
aF1.51959984
aa(lp117
F-2.2341490200000016
aF-9.46834936
aF-4.00274607
aa(lp118
F17.16415198
aF-16.0400738
aF-14.245379839999998
aa(lp119
F13.840879972
aF-12.034334964
aF-14.290151639999996
aa(lp120
F-5.8489148280000025
aF-3.886507623999999
aF-7.064331439999995
aa(lp121
F-3.7371091600000015
aF-0.26599563999999914
aF-1.5508441399999953
aaa(lp122
(lp123
F0.6268018200000001
aF0.8353366799999999
aF2.286702
aa(lp124
F-5.53347906
aF-7.162853580000001
aF2.81582058
aa(lp125
F14.19941194
aF-17.98177162
aF-9.770377580000002
aa(lp126
F21.31521854
aF-14.324149920000002
aF-15.714342380000001
aa(lp127
F0.07062873999999794
aF-6.623200020000003
aF-5.927564420000001
aa(lp128
F1.9734205799999984
aF1.2205638999999975
aF-0.44101196000000104
aaa(lp129
(lp130
F0.7127536999999998
aF-0.6552928999999998
aF1.97880774
aa(lp131
F3.5958514399999997
aF-0.30933056000000025
aF1.8759767799999996
aa(lp132
F2.56658416
aF-0.10450675999999977
aF2.1942858599999995
aa(lp133
F-6.144239780000001
aF-4.04488416
aF-1.8049885600000006
aa(lp134
F5.416163359999998
aF-14.057794760000002
aF-7.13029152
aa(lp135
F23.069091296
aF-17.069700060000002
aF-10.90247596
aa(lp136
F2.767577695999999
aF-10.750324560000003
aF-11.19169564
aaa(lp137
(lp138
F5.82664876
aF1.3071144399999999
aF3.4899081800000005
aa(lp139
F-0.21499931999999972
aF1.6824055599999999
aF6.266583600000001
aa(lp140
F8.181466320000002
aF-9.21061334
aF-3.2893937
aa(lp141
F25.64034398
aF-14.180497324000001
aF-9.67915846
aa(lp142
F2.863704579999998
aF-7.553945744000001
aF-2.318066039999999
aa(lp143
F1.8716670799999988
aF1.8127695999999993
aF3.245938964000002
aaa(lp144
(lp145
F1.9612102
aF-0.38391006
aF0.607887796
aa(lp146
F-5.36432862
aF-0.8061277199999998
aF0.08882487599999997
aa(lp147
F3.294421979999999
aF-17.75276572
aF-6.704243424
aa(lp148
F26.777829580000002
aF-18.27254706
aF-10.373596964
aa(lp149
F7.370190840000002
aF-13.595953260000002
aF-10.590511584000001
aa(lp150
F-6.001785019999997
aF-2.1952433800000013
aF-5.225823824000001
aaa(lp151
(lp152
F3.7769731400000004
aF0.3359061199999999
aF0.32058371999999996
aa(lp153
F3.5409047800000004
aF-0.029808080000000105
aF1.2550406399999996
aa(lp154
F2.79930082
aF0.01496372000000008
aF1.2447455199999995
aa(lp155
F-6.053020120000001
aF-3.63056738
aF-2.4187421000000002
aa(lp156
F7.606738539999999
aF-13.641562579999999
aF-8.31458336
aa(lp157
F21.60264306
aF-15.108130799999998
aF-9.9681387
aa(lp158
F-0.48662134000000207
aF-7.483316859999998
aF-7.35079762
aa(lp159
F-2.725439320000002
aF-0.5251683399999976
aF-0.5115211600000003
aaa(lp160
(lp161
F1.5101429800000001
aF0.6179438000000003
aF1.538394306
aa(lp162
F-3.8400599399999997
aF-2.31794618
aF-2.1124041339999997
aa(lp163
F6.09348306
aF-9.1062263
aF-8.785523254000001
aa(lp164
F16.4645663
aF-11.89882314
aF-11.340375753999998
aa(lp165
F15.402498300000001
aF-10.813172391999998
aF-13.195882214
aa(lp166
F9.244012940000005
aF-8.196190232
aF-9.665033214000001
aa(lp167
F0.49679728000000445
aF-1.6207545799999998
aF-4.894586144800001
aa(lp168
F-0.8318650799999953
aF-1.5326479400000002
aF-1.4210783648000014
aaa(lp169
(lp170
F1.5261840399999997
aF0.4604049400000001
aF1.10336784
aa(lp171
F-1.0219647800000007
aF0.8929175600000002
aF0.17202339800000002
aa(lp172
F-2.2568940200000007
aF-1.9576188399999996
aF-3.908294841999999
aa(lp173
F8.22480106
aF-6.242761119999999
aF-8.34929946
aa(lp174
F14.096820099999999
aF-9.38527058
aF-12.719555459999999
aa(lp175
F16.13237044
aF-10.034697779999998
aF-14.04199266
aa(lp176
F7.012257679999999
aF-6.903441119999999
aF-6.5931524559999986
aa(lp177
F-2.5516203800000015
aF-2.0020314399999997
aF-3.550960235999999
aa(lp178
F-0.9674967800000012
aF-0.9470265399999995
aF-2.812588389999999
aa(lp179
F0.8750808599999985
aF0.6782774000000001
aF-0.7952340699999987
aa(lp180
F1.7439365999999985
aF0.5565324799999999
aF-0.5534196999999986
aaa(lp181
(lp182
F-0.6083666399999996
aF-0.1679532399999996
aF0.40773256
aa(lp183
F-4.9793410399999996
aF-0.8115147399999996
aF-1.116655664
aa(lp184
F-4.7529692
aF-5.3098607200000005
aF-4.7590744
aa(lp185
F10.403763900000001
aF-12.03529288
aF-10.3688088
aa(lp186
F14.791378260000002
aF-12.18900062
aF-13.25920874
aa(lp187
F11.014285660000002
aF-10.725664472
aF-10.99812454
aa(lp188
F-0.3515882799999986
aF-4.005379811999999
aF-4.960306939999998
aa(lp189
F-4.2400112399999985
aF-1.2921506999999994
aF-2.1521478819999977
aa(lp190
F-2.5403678399999983
aF-0.6101624799999994
aF-0.988206767999998
aaa(lp191
(lp192
F2.4858995800000003
aF2.0734983999999996
aF1.323873858
aa(lp193
F-2.1678301799999997
aF2.03878226
aF0.45346181519999995
aa(lp194
F-0.28479059999999945
aF-3.9665936000000004
aF-4.0651151720000005
aa(lp195
F13.523768200000001
aF-9.88637698
aF-8.651208312
aa(lp196
F13.88086338
aF-10.85088112
aF-10.733804772
aa(lp197
F13.207494160000001
aF-12.03936276
aF-10.980168171999999
aa(lp198
F5.588306460000003
aF-5.8334724399999995
aF-5.998791951999999
aa(lp199
F0.22541420000000265
aF0.6460755800000009
aF-1.2212822357999982
aa(lp200
F0.4243723000000026
aF0.447476540000001
aF0.8979453922000019
aaa(lp201
(lp202
F1.2522872
aF0.6131552599999998
aF0.419583832
aa(lp203
F-0.87460162
aF0.7933189399999996
aF-0.595797148
aa(lp204
F-1.72909242
aF-1.0550049400000001
aF-3.8702270279999995
aa(lp205
F5.476975573999999
aF-6.69011782
aF-9.131964027999999
aa(lp206
F12.700401893999999
aF-10.844297180000002
aF-11.609364187999997
aa(lp207
F9.963590095999999
aF-10.558788640000001
aF-11.163683588
aa(lp208
F12.342708299999998
aF-11.341094000000002
aF-13.590685787999998
aa(lp209
F7.415082139999997
aF-6.75799338
aF-8.677185447999998
aa(lp210
F-1.9458873800000027
aF-0.8607156000000001
aF-2.338057687999997
aa(lp211
F-2.4032996800000026
aF-0.4338293999999999
aF-2.166632887999997
aa(lp212
F0.6764817999999974
aF0.08798694000000004
aF-0.9039308479999969
aaa(lp213
(lp214
F-0.5491102
aF0.41383775999999983
aF0.44113162
aa(lp215
F-3.6244622
aF-0.7790731999999998
aF-1.070208182
aa(lp216
F-0.7770380799999999
aF-4.723759972
aF-4.595430742
aa(lp217
F11.167035520000002
aF-11.846988812
aF-10.140521608
aa(lp218
F11.051994220000001
aF-12.173079079999999
aF-10.811736268
aa(lp219
F10.61948158
aF-13.105261619999999
aF-11.759361068
aa(lp220
F9.748231559999999
aF-9.725606439999998
aF-10.055407848000002
aa(lp221
F1.001374579999999
aF-2.5577255799999987
aF-5.168123964000001
aa(lp222
F-3.2837675800000006
aF-1.2382810599999987
aF-1.6302120180000013
aa(lp223
F-2.0586543800000014
aF-0.8474275999999985
aF-1.4694413460000013
aa(lp224
F-0.3630807000000017
aF-0.30992931999999873
aF0.34668038799999845
aa(lp225
F0.2003945999999983
aF0.11109080000000145
aF0.6276399239999986
aaa(lp226
(lp227
F0.6659472599999999
aF0.6144719600000002
aF-0.9437943050000002
aa(lp228
F-2.93062254
aF-0.16759413999999956
aF-1.921466544
aa(lp229
F-5.875969540000001
aF-6.031712152
aF-6.210080292000001
aa(lp230
F8.47319926
aF-11.528200559999998
aF-9.893918852000002
aa(lp231
F12.913366060000001
aF-11.06336642
aF-12.671073052
aa(lp232
F10.787794139999999
aF-11.386224559999999
aF-13.471334992
aa(lp233
F5.758055139999999
aF-6.42436126
aF-7.868184831999997
aa(lp234
F-1.6633716200000008
aF-0.7824247000000002
aF-3.387196839999998
aa(lp235
F-2.8692114800000006
aF-0.10330925999999999
aF-3.563769251999998
aa(lp236
F-1.205839820000001
aF-0.4254492400000002
aF-0.9132682639999979
aaa(lp237
(lp238
F-0.22601242000000016
aF0.7860163800000002
aF-0.61578867784
aa(lp239
F-3.3351226600000006
aF0.07697349999999989
aF-2.597110278
aa(lp240
F-1.7423800999999997
aF-3.43196846
aF-6.189011488
aa(lp241
F8.11251316
aF-7.32326458
aF-9.350435068000001
aa(lp242
F10.460147580000001
aF-9.809044519999999
aF-11.708604088000003
aa(lp243
F10.910497000000001
aF-10.30021496
aF-13.282791488000004
aa(lp244
F9.612241160000002
aF-8.018061884
aF-9.636901228000003
aa(lp245
F1.1279086000000027
aF-1.7657239799999993
aF-3.5731066480000044
aa(lp246
F-2.513911659999997
aF-0.10271141999999926
aF-3.4068293080000047
aa(lp247
F-1.8495208199999968
aF-0.5023035599999993
aF-2.302862900000005
aa(lp248
F-0.26288327999999694
aF0.16962916000000075
aF-1.0554838120000047
aaa(lp249
(lp250
F-0.6992264200000001
aF0.81773974
aF0.08439560599999998
aa(lp251
F-4.3296743
aF-1.04159746
aF-1.5913062
aa(lp252
F0.2369060200000007
aF-7.7517069460000005
aF-5.220078056
aa(lp253
F13.088382520000001
aF-12.17966344
aF-10.950240536
aa(lp254
F12.952272200000001
aF-11.21647596
aF-12.286444416000002
aa(lp255
F10.705074512000003
aF-9.263525602400001
aF-9.591770616000002
aa(lp256
F2.9770700720000023
aF-3.0692469000000013
aF-4.3746853360000015
aa(lp257
F-2.1732168399999976
aF-0.6816293400000012
aF-2.559401556000002
aa(lp258
F-1.299213479999998
aF-0.24528590000000125
aF-1.9559430060000018
aa(lp259
F0.5398925400000021
aF0.2062605599999987
aF0.24516627119999815
aaa(lp260
(lp261
F-0.07757215999999989
aF0.8589200199999997
aF0.1138442752
aa(lp262
F-4.92176026
aF-1.626979896
aF-2.7430368892
aa(lp263
F0.5145141200000005
aF-10.916722195999998
aF-6.635889007199999
aa(lp264
F14.1646958
aF-13.143449479999997
aF-11.993753207199997
aa(lp265
F11.84806614
aF-10.918637299999999
aF-12.772347687199996
aa(lp266
F7.55095298
aF-8.861778579999998
aF-9.182601427199995
aa(lp267
F-0.5325902200000006
aF-1.1669340799999972
aF-3.884592287199996
aa(lp268
F-1.7936163000000005
aF0.44077226000000314
aF-3.000174247199996
aa(lp269
F-0.8564059400000005
aF-0.23546979999999706
aF-0.8398859991999957
aa(lp270
F0.4763263999999996
aF0.03615266000000261
aF0.8340201428000041
aaa.