(lp0
(lp1
(lp2
F4.02237852
aF6.50432762
aF-2.4280796400000004
aa(lp3
F6.40401052
aF9.1559059
aF-4.393599640000001
aa(lp4
F7.536707300000001
aF7.896196800000001
aF-9.39089734
aa(lp5
F2.1653159200000003
aF2.6417621600000003
aF-6.458479020000001
aa(lp6
F0.7690176400000002
aF1.8857929480000002
aF-0.1493982480000014
aa(lp7
F7.71256164
aF7.06469048
aF2.4666262399999987
aa(lp8
F14.7995182
aF9.4803202
aF-1.817797680000001
aa(lp9
F13.8058052
aF5.9275646
aF-7.259339120000002
aa(lp10
F8.081148980000002
aF3.9336734600000005
aF-7.436869260000002
aa(lp11
F3.3983298400000024
aF5.116289400000001
aF-3.921223660000001
aa(lp12
F1.7250222800000021
aF7.5158782
aF-1.997482509400001
aa(lp13
F2.250789060000002
aF9.5474778
aF-2.541804195400001
aaa(lp14
(lp15
F0.90560674
aF-0.6690596
aF0.06943189539999998
aa(lp16
F3.3893515799999996
aF-0.5992685999999999
aF-4.8840517646
aa(lp17
F1.4420276399999996
aF-4.04488398
aF-7.1307706446
aa(lp18
F-2.9799431400000005
aF-8.203253268000001
aF-0.11264722459999951
aa(lp19
F2.00095418
aF-5.240907588000001
aF4.5060072354
aa(lp20
F11.04876214
aF-0.35039140000000035
aF2.6103980154000004
aa(lp21
F12.170325539999999
aF-2.2987926800000005
aF-2.7717673845999995
aa(lp22
F8.213428139999998
aF-4.911704780000001
aF-4.447110284599999
aa(lp23
F2.4515427199999977
aF-4.998015780000001
aF-1.8346768845999997
aa(lp24
F-0.8656236320000021
aF-3.071401600000001
aF0.4095281354000003
aa(lp25
F-1.0381259220000019
aF-0.5579686800000013
aF0.4871002954000003
aa(lp26
F0.0535103599999982
aF0.3400963999999993
aF-0.8913613445999996
aaa(lp27
(lp28
F0.53414638
aF-0.15239080000000021
aF-0.8868123000000001
aa(lp29
F0.89076272
aF-1.1682506000000004
aF-4.494874380000001
aa(lp30
F-1.837789222
aF-6.206129940000001
aF-1.3563152800000005
aa(lp31
F1.113543124
aF-5.16824352
aF5.566159839999999
aa(lp32
F9.484749699999998
aF-0.05985511999999993
aF6.806954807999999
aa(lp33
F12.831843679999997
aF-0.17788919999999955
aF-0.3648763520000003
aa(lp34
F8.829337059999997
aF-3.1719581199999993
aF-2.7435157200000004
aa(lp35
F1.8528727599999981
aF-5.09952994
aF0.1359906599999995
aa(lp36
F-1.872146010800002
aF-3.05512112
aF2.206615994399999
aa(lp37
F-1.1629834648000021
aF0.3172320000000006
aF1.9771317543999996
aa(lp38
F-0.349314000000002
aF0.053989400000000035
aF0.5136759999999996
aaa(lp39
(lp40
F1.03668932
aF0.5420472000000004
aF-0.81247234
aa(lp41
F0.9312247279999999
aF-0.6975508799999999
aF-3.54964338
aa(lp42
F-2.0441694320000003
aF-4.99107278
aF-1.52343054
aa(lp43
F-0.22301990000000044
aF-5.3795321
aF2.65014182
aa(lp44
F8.714774420000001
aF-0.9132685999999992
aF5.5285708499999995
aa(lp45
F14.334205180000001
aF-0.5324704599999993
aF-0.04297600999999958
aa(lp46
F10.529220060000004
aF-5.030936279999999
aF-4.84718118
aa(lp47
F2.227924424000002
aF-6.648818039999999
aF-1.5021222199999997
aa(lp48
F-2.054105347199998
aF-3.7626076999999993
aF1.9580978180000002
aa(lp49
F-0.18794479119999785
aF0.4134786000000009
aF0.8154650800000003
aa(lp50
F0.24157496000000206
aF-0.12330159999999957
aF-0.4070142999999997
aaa(lp51
(lp52
F0.92679548
aF0.48362859999999974
aF-1.40372046
aa(lp53
F-1.0660183200000002
aF-3.12191918
aF-3.2580296599999996
aa(lp54
F-1.1581950680000004
aF-6.23462094
aF2.0317195200000002
aa(lp55
F7.38048618
aF-1.6949749599999997
aF7.46679686
aa(lp56
F12.619837219999999
aF-0.17465671999999977
aF3.7732618899999992
aa(lp57
F11.227967719999999
aF-2.65385282
aF-1.649964140000001
aa(lp58
F5.186319479999999
aF-4.79798024
aF-1.7512388000000008
aa(lp59
F-1.5156494440000015
aF-5.024112560000001
aF1.2461819999999992
aa(lp60
F-2.039740140000001
aF-1.5145717600000004
aF2.0040664999999995
aa(lp61
F-0.13706808000000104
aF0.7185001999999991
aF1.2175712799999996
aa(lp62
F-0.14460980000000112
aF-0.04860220000000037
aF0.5161898799999995
aaa(lp63
(lp64
F0.7994239600000002
aF0.5172673999999994
aF-0.6672639800000001
aa(lp65
F-0.989763
aF-2.2521058400000005
aF-2.66450712
aa(lp66
F0.11839335999999996
aF-4.7115496
aF2.656486464
aa(lp67
F9.469546580000001
aF-1.2996924999999997
aF7.253353840000001
aa(lp68
F15.12812228
aF-0.3166331599999996
aF2.0497957200000014
aa(lp69
F10.703398279999998
aF-3.33213028
aF-2.2767661999999986
aa(lp70
F2.207214479999999
aF-5.01202194
aF-0.7899667799999991
aa(lp71
F-1.789546060000001
aF-2.74926172
aF2.207334306000001
aa(lp72
F-0.420780940000001
aF0.7924811000000004
aF2.0968418760000005
aaa(lp73
(lp74
F1.0346543000000001
aF-0.2882621
aF-2.1174320559999997
aa(lp75
F-0.7692569599999999
aF-4.11467542
aF-3.6821626359999997
aa(lp76
F2.3600844000000003
aF-5.432324400000001
aF2.405693824
aa(lp77
F12.73248422
aF-1.4522036200000004
aF5.528690626
aa(lp78
F15.91294202
aF-2.6062086800000004
aF-2.5747244139999994
aa(lp79
F8.61721122
aF-6.30908112
aF-5.993285416
aa(lp80
F-0.4351461999999998
aF-6.7095113
aF-0.6603208559999999
aa(lp81
F-1.118690744
aF-2.1923708399999997
aF1.228464876
aa(lp82
F1.0747571599999999
aF0.7284352999999999
aF0.26120740200000025
aa(lp83
F1.2290633999999998
aF0.056622500000000284
aF-0.4236539699999998
aaa(lp84
(lp85
F0.40294418
aF-0.23702600000000018
aF-3.357628466
aa(lp86
F-2.4067711600000004
aF-5.6616885880000005
aF-3.8988377639999996
aa(lp87
F2.8489803399999998
aF-5.8853070280000015
aF4.381149716
aa(lp88
F12.53771642
aF-0.14772210000000072
aF4.250186854
aa(lp89
F11.42848262
aF-3.1195250000000008
aF-3.2213983859999997
aa(lp90
F5.21995826
aF-4.963898380000001
aF-3.5980062860000004
aa(lp91
F-1.375109695999999
aF-4.616260380000001
aF0.0003591139999993942
aa(lp92
F-1.5874753819999992
aF-1.0099941400000003
aF1.6949750639999994
aaa(lp93
(lp94
F1.34135144
aF0.38235359999999974
aF-2.97994302
aa(lp95
F-0.7382521199999997
aF-4.465545588
aF-4.97778463
aa(lp96
F-0.07290329999999975
aF-8.618288267999999
aF1.8186356099999994
aa(lp97
F11.39233038
aF-2.2734143399999995
aF6.387131569999999
aa(lp98
F16.27039614
aF-1.866280319999999
aF-1.0789468960000008
aa(lp99
F10.304404340000001
aF-6.926665079999998
aF-7.002441330000001
aa(lp100
F0.9676165160000011
aF-7.203793939999997
aF-2.511397802000001
aa(lp101
F-1.210987223999999
aF-2.832819399999997
aF-0.1576581760000011
aa(lp102
F-0.359010579999999
aF-0.7176617999999966
aF-1.667800904000001
aaa(lp103
(lp104
F0.9770736799999999
aF-0.35434179999999993
aF-1.94911964
aa(lp105
F-0.888368556
aF-4.547427140000001
aF-1.9015946700000002
aa(lp106
F3.453037404
aF-4.596867440000001
aF5.24485797
aa(lp107
F12.98818536
aF-0.3487158000000015
aF6.260837540000001
aa(lp108
F13.024936360000002
aF-3.598844600000001
aF-2.9181727399999993
aa(lp109
F5.66551948
aF-6.076484060000001
aF-3.838623619999999
aa(lp110
F-0.40473980799999953
aF-3.345298500000001
aF1.6644490000000005
aa(lp111
F0.41527430000000043
aF0.43346989999999863
aF1.7320852400000006
aa(lp112
F0.8160637200000007
aF0.29376819999999826
aF0.3745729000000007
aaa(lp113
(lp114
F-1.19913598
aF-1.65223838
aF-2.52253098
aa(lp115
F-2.549824892
aF-5.67413816
aF-0.90943756
aa(lp116
F5.239710274
aF-2.25737292
aF6.08091312
aa(lp117
F11.850699639999998
aF0.49164956000000026
aF4.554849006
aa(lp118
F9.990764039999998
aF-2.42460798
aF-2.5026590599999996
aa(lp119
F3.7253777859999992
aF-4.380790419999999
aF-1.9237409799999994
aa(lp120
F-2.3545777020000007
aF-4.584297599999999
aF0.6523002640000006
aa(lp121
F-1.9665973200000004
aF-0.58035456
aF1.5462950880000004
aa(lp122
F-0.9334992800000004
aF0.7208942000000003
aF0.3530249600000005
aa(lp123
F-1.2065579800000001
aF-0.21835100000000002
aF0.0934935400000005
aaa(lp124
(lp125
F1.7132907199999998
aF0.7597998000000002
aF-3.24510088
aa(lp126
F-1.7956513600000001
aF-8.352292389999999
aF-2.27221709
aa(lp127
F6.4514160799999996
aF-6.182547539999999
aF8.783607710000002
aa(lp128
F17.34862556
aF0.41563287200000154
aF-1.9522317799999989
aa(lp129
F6.609553137999998
aF-10.327029947999998
aF-3.0684087539999987
aa(lp130
F-1.9741390300000023
aF-4.396951299999998
aF2.9484594260000017
aaa(lp131
(lp132
F1.32590892
aF-1.8468872399999998
aF-6.941508740000001
aa(lp133
F0.7808689
aF-13.77575766
aF1.3261483199999993
aa(lp134
F13.862069128000002
aF-5.998552679999999
aF7.159979599999998
aa(lp135
F14.856979408
aF-7.612962899999998
aF-8.5227596
aa(lp136
F2.285624468000001
aF-11.108976199999997
aF-1.668279866000001
aa(lp137
F-1.2305000059999989
aF-2.6659436599999986
aF1.4834473339999987
aaa(lp138
(lp139
F1.2829330340000005
aF-0.5868189999999995
aF-5.48080655
aa(lp140
F-0.02023096599999974
aF-10.40208805
aF-1.9602527399999996
aa(lp141
F12.911451414000002
aF-2.29161005
aF9.002437653600001
aa(lp142
F16.825133094
aF-3.3184833119999992
aF-6.7238756863999996
aa(lp143
F4.450701233999999
aF-10.466731483999999
aF-4.6696507800000004
aa(lp144
F-1.0255562680000003
aF-3.222954371999998
aF1.3188460039999994
aa(lp145
F0.3517082579999996
aF0.686776800000002
aF-0.6809109480000007
aaa(lp146
(lp147
F1.138801986
aF-0.5398924600000005
aF-4.856159492000001
aa(lp148
F0.360925926
aF-9.742126352
aF-1.1376051520000012
aa(lp149
F13.210487076000001
aF-4.745068192
aF8.446145192399998
aa(lp150
F18.527530436
aF-2.6506206671999997
aF-5.515881607600003
aa(lp151
F8.215583616
aF-10.3222415112
aF-6.593272344000002
aa(lp152
F-2.1217415479999984
aF-7.2513186639999985
aF1.0147823479999982
aa(lp153
F-1.2363657371999985
aF-0.48650165999999884
aF0.28167781999999814
aa(lp154
F-0.4610035279999984
aF-0.11456259999999877
aF-1.4847641720000018
aaa(lp155
(lp156
F2.6169821939999998
aF-0.3896560000000003
aF-4.2542569199999996
aa(lp157
F0.10199297400000021
aF-9.25765938
aF-0.45717275999999957
aa(lp158
F11.330679634000001
aF-3.1930269200000003
aF9.75134384
aa(lp159
F18.523220834
aF-0.8362944800000001
aF-4.480150140000001
aa(lp160
F7.3533118239999995
aF-9.772053719999999
aF-4.09408498
aa(lp161
F-1.235527792000001
aF-4.68222028
aF3.4006044
aa(lp162
F0.8109161379999991
aF0.6689404
aF0.30849284000000027
aaa(lp163
(lp164
F-1.025676024
aF-5.87381483
aF-4.79199454
aa(lp165
F6.413587736000001
aF-5.996158930000001
aF6.668809179999999
aa(lp166
F18.513644096
aF0.09229605999999997
aF2.2513874799999996
aa(lp167
F10.211629396000001
aF-8.28405779
aF-8.393113254000001
aa(lp168
F-0.5722142639999998
aF-6.805757990000001
aF1.6813281839999987
aa(lp169
F0.48973385600000013
aF-0.32237940000000054
aF1.0092757199999987
aaa(lp170
(lp171
F1.0667366200000001
aF-0.6757634799999999
aF-2.990118394
aa(lp172
F-2.5780763739999997
aF-7.76487496
aF-1.0042478539999997
aa(lp173
F7.2854364060000005
aF-4.43693478
aF9.621458686
aa(lp174
F17.65185092
aF0.8711300400000006
aF0.13299804899999898
aa(lp175
F7.908527080000001
aF-9.116880566
aF-6.712144146
aa(lp176
F-1.9626467599999997
aF-6.20565116
aF2.8538884740000006
aa(lp177
F-0.07888889999999993
aF0.28155799999999936
aF0.5723339460000005
aaa(lp178
(lp179
F1.6954538799999999
aF-1.3160928000000003
aF-6.05050696
aa(lp180
F-0.4289210800000001
aF-10.8944556
aF0.4896143000000002
aa(lp181
F11.80437258
aF-3.74501022
aF7.57417676
aa(lp182
F14.396574699999999
aF-4.93672392
aF-5.8550203000000005
aa(lp183
F1.180940119999999
aF-9.74296418
aF-1.5192408399999997
aa(lp184
F-1.5521609600000008
aF-2.698983319999999
aF2.185786384000001
aa(lp185
F0.7401674599999992
aF-0.010414599999999297
aF-0.26779149599999946
aaa(lp186
(lp187
F-0.21248541999999998
aF-2.3813927599999998
aF-3.24534026
aa(lp188
F1.2763490600000007
aF-8.28549402
aF3.15304406
aa(lp189
F14.278301220000003
aF-2.2534225599999997
aF5.43268316
aa(lp190
F13.487376620000003
aF-6.24324008
aF-7.172549500000001
aa(lp191
F1.1665748712000024
aF-8.135257937999999
aF-1.85849912034
aa(lp192
F-1.5443797887999975
aF-1.7453728599999994
aF2.8451495920000003
aaa(lp193
(lp194
F1.2617443488
aF-1.12790854
aF-6.116467032
aa(lp195
F0.7473498887999994
aF-8.360073739999999
aF-1.9060240119999996
aa(lp196
F13.2617228488
aF-3.021363199999999
aF7.760086548000001
aa(lp197
F17.093044448799997
aF-2.960789799999999
aF-6.293877571999999
aa(lp198
F5.587707828799996
aF-9.474814019999998
aF-6.390004739999999
aa(lp199
F-1.9570204212000046
aF-4.434780039999998
aF1.1984176400000004
aa(lp200
F0.8778341487999952
aF0.6971914000000015
aF-0.7601590419999995
aaa(lp201
(lp202
F-0.544082392
aF-1.1178525999999998
aF-2.5956738
aa(lp203
F-2.024058186
aF-4.030399159999999
aF-2.4229321500000003
aa(lp204
F0.42963942599999994
aF-4.973714759999999
aF0.9799467499999995
aa(lp205
F7.2028360199999995
aF-2.7140670799999986
aF3.25695219
aa(lp206
F10.8077855
aF-2.8124686599999986
aF0.3214215435999998
aa(lp207
F8.392754499999999
aF-4.689163899999999
aF-3.42155367
aa(lp208
F4.63744916
aF-5.004480239999999
aF-3.3979708300000007
aa(lp209
F0.25019405999999994
aF-4.213196519999999
aF-1.7456125380000003
aa(lp210
F-1.5527595400000003
aF-2.3574507399999995
aF-0.18219878400000017
aaa(lp211
(lp212
F0.6077681050000001
aF-0.5404911999999996
aF-3.226306474
aa(lp213
F-1.3241132649999998
aF-3.9886201799999994
aF-2.150830986
aa(lp214
F4.990593890000001
aF-4.16686838
aF3.288436094
aa(lp215
F13.91210756
aF-0.32740692000000066
aF3.6370318760000004
aa(lp216
F12.295183159999999
aF-1.907939420000001
aF-2.483146244
aa(lp217
F8.03230722
aF-3.5254620200000013
aF-3.9603687539999997
aa(lp218
F2.0939688200000006
aF-2.961148580000001
aF-0.641167194
aa(lp219
F-0.4352658871999996
aF-1.470398760000001
aF0.10175358599999998
aaa(lp220
(lp221
F0.399233144
aF-0.6065709800000001
aF-2.298792848
aa(lp222
F-0.9598355007999999
aF-5.178778060000001
aF-1.191354728
aa(lp223
F8.7840866672
aF-2.6950333200000003
aF4.934210272
aa(lp224
F15.8888801072
aF0.5370191999999998
aF2.738248501
aa(lp225
F11.292611707199999
aF-3.0925904
aF-3.8460456479999996
aa(lp226
F6.474280607200001
aF-3.201167360000001
aF-3.061226268
aa(lp227
F1.3821726072000002
aF-2.087265060000001
aF-0.06260835400000006
aa(lp228
F-0.08523362279999973
aF0.2882615399999988
aF1.0114305175999998
aa(lp229
F0.49811363720000024
aF1.683482639999999
aF0.12497736759999985
aaa(lp230
(lp231
F0.48638212999999997
aF-0.5085284999999999
aF-1.055005
aa(lp232
F-0.5829880620000001
aF-3.00819462
aF-2.4759636756
aa(lp233
F1.2063184779999998
aF-4.51318962
aF1.1972205824000004
aa(lp234
F8.243116689999999
aF-2.3281213000000003
aF5.1563921644
aa(lp235
F11.748347769999999
aF-1.4993684000000005
aF1.8073828563999996
aa(lp236
F9.494805369999998
aF-3.0917521399999996
aF-1.3485341036000005
aa(lp237
F4.187698189999999
aF-4.08678242
aF-1.1595118756000002
aa(lp238
F-0.27605146000000075
aF-3.7385457599999996
aF-0.11384426760000022
aa(lp239
F-1.1139023380000006
aF-1.3151347799999997
aF1.3771447863999997
aa(lp240
F0.0369904179999994
aF0.24085690000000035
aF0.8390479683999998
aaa(lp241
(lp242
F0.12713210599999997
aF-0.9544485999999995
aF-2.488772724
aa(lp243
F-0.998382088
aF-3.8686708600000004
aF-3.0912735379999994
aa(lp244
F1.9418171979999996
aF-5.24294266
aF1.8217480620000004
aa(lp245
F10.659105511999998
aF-1.70012294
aF5.096776536
aa(lp246
F12.107238651999998
aF-1.7283744000000003
aF-0.2789244640000003
aa(lp247
F8.366058991999997
aF-3.4063505399999996
aF-2.7240029640000003
aa(lp248
F3.4414255719999978
aF-3.7946900599999998
aF-1.7176003160000004
aa(lp249
F-0.08283937200000198
aF-2.9729999
aF-0.4310760460000004
aa(lp250
F-0.6593631660000019
aF-1.3008893000000001
aF0.025019415999999593
aa(lp251
F-0.18686743800000194
aF-0.5868187999999996
aF-0.7455544240000004
aaa(lp252
(lp253
F0.37553052000000003
aF0.03268079999999962
aF-1.0506954
aa(lp254
F-0.705092427
aF-2.03483194
aF-2.03626854
aa(lp255
F-0.18483242400000002
aF-4.08809956
aF0.4708197524
aa(lp256
F6.93061536
aF-2.4329879199999995
aF6.0118406576000005
aa(lp257
F12.992135480000002
aF-0.772609139999999
aF4.8209646280000005
aa(lp258
F10.507432920000003
aF-2.6956318399999994
aF-1.7731458119999999
aa(lp259
F4.8165353200000025
aF-3.7144842999999996
aF-1.2186486719999998
aa(lp260
F0.6704961800000024
aF-2.9599517399999997
aF0.23187848200000022
aa(lp261
F-0.044412433999997614
aF-1.0831369399999997
aF0.6891709860000003
aa(lp262
F0.2183511860000024
aF-0.030645999999999417
aF0.9300276628000003
aaa(lp263
(lp264
F2.280118054
aF-0.2735375999999999
aF-3.1270668828
aa(lp265
F1.9351136539999998
aF-2.4893714000000005
aF-3.7877468627999997
aa(lp266
F0.6928820339999999
aF-4.82299956
aF0.333272872400001
aa(lp267
F7.780556954
aF-1.8776525000000006
aF3.344580077200001
aa(lp268
F12.643539694000001
aF-0.5888535200000005
aF0.3604470372000012
aa(lp269
F9.430281774000001
aF-3.6349966800000004
aF-3.9724594027999993
aa(lp270
F4.434660194000001
aF-4.48122732
aF-4.057932502799999
aa(lp271
F1.0408791940000015
aF-2.9494171200000006
aF-1.5273810227999995
aa(lp272
F0.5792771340000015
aF-0.6063314600000007
aF-0.41288008559999945
aaa(lp273
(lp274
F-0.17441752000000008
aF-1.2745533599999999
aF-2.0456058971999997
aa(lp275
F-1.3735534839999999
aF-3.59489386
aF-2.1150377771999995
aa(lp276
F1.6867151320000002
aF-4.9257108800000005
aF2.3458389028
aa(lp277
F11.05462816
aF-2.1076158000000005
aF4.2118796688
aa(lp278
F11.77360674
aF-3.1364044600000005
aF-2.5066096311999995
aa(lp279
F7.227496339999999
aF-5.035604880000001
aF-4.3460747772
aa(lp280
F1.162026019999999
aF-4.68198114
aF-1.2352883571999995
aa(lp281
F-1.822705726000001
aF-2.5413256000000004
aF1.0782287508000004
aaa(lp282
(lp283
F0.41575306600000006
aF-1.3241130600000004
aF-3.1280245200000003
aa(lp284
F0.6734888760000001
aF-4.8420333200000005
aF-1.4947001480000002
aa(lp285
F10.427825866000001
aF-1.7128118599999997
aF2.520016982
aa(lp286
F14.210065906000002
aF-0.56491188
aF-0.8549694179999999
aa(lp287
F10.489596106000002
aF-3.58064806
aF-4.633378808000001
aa(lp288
F5.155434586000004
aF-4.11192144
aF-3.5567063080000003
aa(lp289
F0.853293486000003
aF-2.6718091599999996
aF-0.9538499600000006
aa(lp290
F0.6558915660000031
aF0.24636354000000046
aF0.4231751399999995
aaa.