(lp0
(lp1
(lp2
F2.6446351999999997
aF9.1527936
aF-0.4616021
aa(lp3
F2.9107507059999995
aF10.507911840000002
aF-3.1156944564
aa(lp4
F-0.8549694300000003
aF4.578791010000001
aF5.0350060236
aa(lp5
F6.013396664
aF0.3120841500000003
aF14.436437179999999
aa(lp6
F17.031153999999997
aF2.7633875800000003
aF5.574659059999998
aa(lp7
F16.6786076
aF6.968563360000002
aF-8.244194120000001
aa(lp8
F13.013324099999997
aF6.069540620000002
aF-1.3549985000000013
aa(lp9
F4.897578955999997
aF5.3347602000000025
aF8.918880059999998
aaa(lp10
(lp11
F2.2346281279999998
aF3.4076676399999997
aF-8.948328720000001
aa(lp12
F-0.7068880119999997
aF-0.5012260400000009
aF-8.823351468000002
aa(lp13
F3.6413415400000004
aF-4.085705080000001
aF3.5456930119999988
aa(lp14
F16.103999288
aF-2.302144600000001
aF1.0190919999999983
aa(lp15
F15.671845688000001
aF0.7797914399999991
aF-15.232629200000002
aa(lp16
F10.209354768
aF0.3968390399999988
aF-12.592662620000004
aa(lp17
F4.9422309828
aF-0.4343081200000013
aF-2.703891620000004
aa(lp18
F1.1621455303999997
aF1.716762239999999
aF-1.9067422000000036
aaa(lp19
(lp20
F2.3736116523999997
aF1.4516045999999996
aF-5.529049812
aa(lp21
F-0.1095346076000002
aF-1.8714277000000004
aF-8.63792066
aa(lp22
F-1.9902998935999996
aF-7.10024456
aF1.6450559599999999
aa(lp23
F7.1652471464000005
aF-9.571539488
aF12.197619379999997
aa(lp24
F15.659875212400001
aF-6.4694920200000015
aF-1.0568005000000027
aa(lp25
F10.7342837524
aF-3.3682826000000015
aF-10.593863620000002
aa(lp26
F6.0432044924
aF-2.6277560600000016
aF-4.301781926000002
aa(lp27
F2.7603948164000003
aF-2.4313119000000016
aF2.5781960399999972
aaa(lp28
(lp29
F-0.13144159999999996
aF2.9281088000000004
aF-4.583699059999999
aa(lp30
F1.528697876
aF3.2266657000000007
aF-11.816462859999998
aa(lp31
F-0.9621098720000001
aF-3.2103849059999994
aF-5.357385459999998
aa(lp32
F1.1780669159999997
aF-9.887095226
aF8.050143780000003
aa(lp33
F12.259869255999998
aF-7.15112122
aF0.6602011800000014
aa(lp34
F12.559623175999999
aF-0.6488284800000003
aF-15.521130899999998
aa(lp35
F5.944563295999998
aF-1.2686872400000004
aF-9.407895939999998
aaa(lp36
(lp37
F0.8000226799999997
aF3.522588619999999
aF-9.0270981
aa(lp38
F-1.2789823940000005
aF0.880348059999999
aF-10.42926234
aa(lp39
F-3.617878076000001
aF-4.956715866000001
aF3.2436647600000015
aa(lp40
F3.672346439999999
aF-6.236895526
aF11.47313444
aa(lp41
F12.74433612
aF-3.85957286
aF-0.644159759999998
aa(lp42
F10.077913520000001
aF0.34045543999999967
aF-11.945749739999997
aa(lp43
F3.9583337400000014
aF0.7279568399999998
aF-6.8067153599999966
aa(lp44
F-1.6582239359999984
aF0.25582024
aF2.866578040000003
aa(lp45
F-3.905182227999999
aF2.18231488
aF1.294066320000003
aaa(lp46
(lp47
F2.449627482
aF1.5314510000000001
aF-2.5639506271999997
aa(lp48
F1.293467542
aF-1.33656326
aF-4.427836641200001
aa(lp49
F-1.5625757180000002
aF-9.03404156
aF6.214988226
aa(lp50
F9.540654662
aF-11.0147646
aF11.93114468
aa(lp51
F16.273149862000004
aF-4.153700859999999
aF-3.1893162000000004
aa(lp52
F9.726683742000002
aF-2.3416492599999996
aF-7.6476789188
aa(lp53
F4.435138822000003
aF-3.0125045399999992
aF0.47680524119999995
aa(lp54
F0.6475118420000033
aF-1.6528374599999993
aF3.9278077199999997
aaa(lp55
(lp56
F2.40677122
aF2.3603237200000002
aF-4.70664154
aa(lp57
F2.16759044
aF0.3052606199999996
aF-11.6072097
aa(lp58
F1.1929111
aF-7.87033943
aF-0.6608001000000001
aa(lp59
F9.169553279999999
aF-12.60834493
aF10.961373159999999
aa(lp60
F18.2391489
aF-8.067262589999999
aF-5.775652580000002
aa(lp61
F13.6310281
aF-3.780085379999998
aF-15.693274000000002
aa(lp62
F4.466742200000001
aF-2.612313459999998
aF-0.9736022800000029
aaa(lp63
(lp64
F3.152804454
aF1.9772516000000002
aF-7.894042059999999
aa(lp65
F2.235825314
aF-0.5293578199999998
aF-12.77546022
aa(lp66
F1.5034390539999998
aF-8.450454711999999
aF2.4167069000000003
aa(lp67
F9.058941154
aF-15.26674694
aF12.04271436
aa(lp68
F17.084305734000004
aF-9.757808560000003
aF-3.53216573
aa(lp69
F11.546516834000002
aF-2.304658500000002
aF-13.25310341
aa(lp70
F3.9950846340000012
aF-2.2449230200000025
aF-3.5070265199999993
aaa(lp71
(lp72
F1.15987098
aF1.6290149999999997
aF-4.799536300000001
aa(lp73
F1.7244238199999997
aF1.5852008599999998
aF-15.33103112
aa(lp74
F1.26928604
aF-4.536533520000001
aF-8.717048700000001
aa(lp75
F4.4035353200000005
aF-11.096526540000001
aF8.070614179999998
aa(lp76
F12.743737300000001
aF-8.174403440000003
aF3.5161243799999986
aa(lp77
F14.1917506
aF-1.8318039600000016
aF-12.148059740000003
aa(lp78
F6.9644932
aF-0.34859604000000155
aF-10.402686680000002
aa(lp79
F1.82462108
aF0.9654615399999983
aF-3.2102653800000014
aaa(lp80
(lp81
F0.92140856
aF0.3670309999999997
aF-3.4936190000000003
aa(lp82
F3.52893368
aF-0.08858540000000055
aF-14.201925639999999
aa(lp83
F2.0436904600000005
aF-6.750571404
aF-8.414062679999997
aa(lp84
F2.0489575600000003
aF-14.6936949
aF8.901881060000003
aa(lp85
F11.967537060000002
aF-14.520953279999997
aF6.846698220000002
aa(lp86
F14.6604154
aF-5.3985659399999975
aF-8.228631579999998
aa(lp87
F8.388923319999998
aF-3.3656492999999967
aF-8.521681939999997
aa(lp88
F2.1462819799999986
aF-3.0263909999999963
aF1.1429919400000024
aaa(lp89
(lp90
F3.5608961988000005
aF3.4630929999999998
aF-9.536344668000002
aa(lp91
F2.1685482388000006
aF-0.04273646000000042
aF-14.000573000000003
aa(lp92
F1.5473726388000002
aF-6.911820920000001
aF0.8629896999999971
aa(lp93
F9.2470058188
aF-9.47014502
aF7.4988786399999965
aa(lp94
F17.1086063988
aF-5.5346759720000005
aF-5.722740660000004
aa(lp95
F12.556270998799997
aF-1.2389993400000006
aF-16.92652684
aa(lp96
F5.828923518799995
aF-1.0023326600000004
aF-8.071452260000003
aa(lp97
F1.2332533987999945
aF0.3520673199999994
aF-1.3178881200000028
aaa(lp98
(lp99
F0.82324622
aF1.5320498800000004
aF-8.39850046
aa(lp100
F1.9982007199999998
aF-0.6749254399999998
aF-14.99500507
aa(lp101
F0.6138732799999997
aF-8.23389894
aF0.5880158299999998
aa(lp102
F7.700231559999999
aF-11.74320017
aF9.93713396
aa(lp103
F15.526398400000001
aF-6.18972963
aF-6.388807367999999
aa(lp104
F10.218932000000004
aF-1.078947
aF-16.61899202
aa(lp105
F3.648404200000003
aF-0.43299116000000026
aF-7.241741929999998
aa(lp106
F-0.306936755999997
aF1.46740628
aF-1.9749770999999974
aaa(lp107
(lp108
F1.91596
aF0.4547784
aF-10.25903474
aa(lp109
F2.0914549560000006
aF-3.9449260699999997
aF-12.131779259999998
aa(lp110
F3.830842596000001
aF-12.16302341
aF6.158604740000001
aa(lp111
F12.321400556
aF-14.091073950000004
aF11.784619720000002
aa(lp112
F16.873615796000003
aF-5.680123810000004
aF-7.154951279999997
aa(lp113
F11.025059496
aF-3.062303680000004
aF-10.510305939999999
aa(lp114
F5.171595256000002
aF-2.8409596000000037
aF-0.5462371799999968
aaa(lp115
(lp116
F3.1641769899999996
aF3.4563894000000004
aF-12.152489
aa(lp117
F1.4263456699999997
aF-1.5265429199999996
aF-14.029064400000001
aa(lp118
F2.33338895
aF-10.9599371
aF1.459265599999999
aa(lp119
F11.726680589999999
aF-14.160146822799998
aF4.84083598
aa(lp120
F15.896183189999999
aF-5.618592842799999
aF-14.35814732
aa(lp121
F9.81790333
aF-2.188659519999999
aF-15.382506580000001
aa(lp122
F2.8554446619999996
aF-1.1232396999999987
aF-3.699520420000001
aaa(lp123
(lp124
F7.545326688
aF1.6041148599999997
aF-15.753128839999999
aa(lp125
F6.474399968
aF-10.86225384
aF-1.7976868199999985
aa(lp126
F12.181459168
aF-14.80131413
aF6.819045140000002
aa(lp127
F15.600618467999999
aF-6.0950388900000005
aF-14.996082259999998
aa(lp128
F9.399156927999998
aF-3.2283413800000007
aF-11.785218329999996
aaa(lp129
(lp130
F2.115756
aF2.7714080570000004
aF-10.15644279
aa(lp131
F-1.9505563599999995
aF-8.634808142999999
aF5.945880009999999
aa(lp132
F4.19248664
aF-13.589488979999999
aF13.542202609999999
aa(lp133
F10.869915800000001
aF-0.5766435799999983
aF-8.178832390000002
aa(lp134
F2.5999836600000004
aF1.4954182800000022
aF-8.291359790000001
aaa(lp135
(lp136
F1.61680432
aF4.2092458399999995
aF-9.085875392
aa(lp137
F1.2454635600000004
aF-1.2524071200000002
aF-11.84770688
aa(lp138
F4.198232920000001
aF-12.473072720000001
aF7.722137919999997
aa(lp139
F13.49132716
aF-10.509348540000001
aF-0.08702912000000254
aa(lp140
F10.217974360000001
aF-2.2963985800000026
aF-15.305053732000001
aa(lp141
F2.5863362600000004
aF-0.6270414200000023
aF-0.7728481120000026
aaa(lp142
(lp143
F-2.364513568
aF0.24061707999999946
aF-8.067981128
aa(lp144
F-3.040995348
aF-6.87363354
aF1.9320004120000014
aa(lp145
F6.44028318
aF-8.81904214
aF9.188227232000001
aa(lp146
F13.51467044
aF-4.0325541000000005
aF-8.995614567999999
aa(lp147
F8.16662198
aF-1.0737996200000002
aF-16.230892328
aa(lp148
F0.37517124000000057
aF-0.7462728600000001
aF0.18722617200000116
aaa(lp149
(lp150
F0.031483800000000305
aF1.36565272
aF-10.201214420000001
aa(lp151
F-3.52953195
aF-4.481347080000001
aF1.6950947800000002
aa(lp152
F4.541202530000001
aF-8.653722273
aF9.63211278
aa(lp153
F13.771448800000002
aF-3.5903447130000004
aF-7.26975356
aa(lp154
F7.498161200000001
aF-0.7062894600000005
aF-15.768690799999998
aaa(lp155
(lp156
F-0.94702656
aF4.41323208
aF-2.326804866
aa(lp157
F-2.936967352
aF-0.44460340599999953
aF-0.4662709359999996
aa(lp158
F-2.889921372
aF-10.603320625999999
aF17.006851943999997
aa(lp159
F7.195893100000001
aF-8.3841350286
aF12.317568724
aa(lp160
F7.0612195600000005
aF-1.352245068599999
aF-4.134547176000002
aa(lp161
F-2.0361488599999995
aF-1.3618218999999987
aF3.876332083999999
aaa(lp162
(lp163
F2.6064477800000003
aF4.211879680000001
aF-9.299199148
aa(lp164
F1.8735825000000002
aF0.2250550400000005
aF-13.192530159999999
aa(lp165
F0.08439558000000007
aF-9.904931959999999
aF4.079599640000002
aa(lp166
F9.547358560000001
aF-10.518805359999998
aF7.084921380000003
aa(lp167
F14.635635880000004
aF-3.3575087199999993
aF-9.344808739999996
aa(lp168
F6.795223440000003
aF-0.49907133999999925
aF-11.508688139999999
aa(lp169
F-1.2990938739999982
aF0.4121618000000006
aF-0.7232881399999986
aaa(lp170
(lp171
F1.4767436739999997
aF2.2659924600000005
aF-6.3069259099999995
aa(lp172
F0.32884365399999993
aF1.9686323800000003
aF-10.87829498
aa(lp173
F-2.0794838540000002
aF-0.08535305999999991
aF-7.781155659999999
aa(lp174
F-2.572928806
aF-0.67564352
aF0.44196946000000137
aa(lp175
F3.159149162
aF-1.0890024199999997
aF3.384204020000001
aa(lp176
F9.473616854
aF-1.0613493999999997
aF-1.116296599999999
aa(lp177
F8.187810654
aF-0.15227097999999958
aF-6.254852059999999
aa(lp178
F6.365463914
aF0.5542580000000001
aF-9.844718039999998
aa(lp179
F3.955221194
aF0.5791575200000001
aF-9.17505984
aa(lp180
F0.5035006206
aF0.7229292
aF-4.476438899999998
aaa(lp181
(lp182
F2.0369868280000003
aF1.54677408
aF-5.48128528
aa(lp183
F1.3037625414000003
aF0.2895788400000002
aF-10.770555779999999
aa(lp184
F-2.1936872906
aF-3.48476048
aF-5.406227191999999
aa(lp185
F-0.19345155859999963
aF-4.9658136
aF6.7663727200000015
aa(lp186
F11.3591705214
aF-6.45285228
aF8.683290340000001
aa(lp187
F14.3272625614
aF-4.291366880000001
aF-6.416460599999999
aa(lp188
F8.949645761399998
aF-2.149274520000001
aF-10.00105954
aa(lp189
F6.326917561399999
aF-2.1533448600000002
aF-6.041768063999999
aaa(lp190
(lp191
F0.04740520000000022
aF2.6956315799999997
aF-6.9814920560000004
aa(lp192
F-1.6543934999999999
aF2.22217858
aF-12.567404076
aa(lp193
F-3.1447840539999996
aF-0.9726442799999999
aF-4.4698546960000005
aa(lp194
F-2.5884913339999995
aF-3.2217574799999995
aF6.581062003999999
aa(lp195
F4.66881272
aF-1.3609838799999998
aF4.301422663999999
aa(lp196
F5.653069100000001
aF1.3874399800000001
aF-4.666059636000002
aa(lp197
F2.012924920000001
aF2.1464019800000003
aF-8.699092316000002
aa(lp198
F1.255399500000001
aF2.3301569800000004
aF-9.294889436000002
aa(lp199
F-1.1543645399999993
aF1.4161703400000003
aF-4.861785646000001
aaa(lp200
(lp201
F1.4271836799999997
aF2.4698585399999997
aF-4.193803470000001
aa(lp202
F0.4083311399999999
aF0.9825803400000005
aF-8.54011745
aa(lp203
F-0.047884039999999926
aF-3.851791602
aF1.3949817899999986
aa(lp204
F4.22468848
aF-7.967783452000001
aF12.476305049999999
aa(lp205
F12.75570808
aF-5.55849831
aF3.4580656500000004
aa(lp206
F9.7069318
aF-0.19823998000000068
aF-8.74206829
aa(lp207
F2.99011858
aF-0.4801571200000005
aF-6.11311522
aa(lp208
F-0.9163807275999997
aF-0.14975702000000074
aF2.2047006600000003
aaa(lp209
(lp210
F1.6648082000000002
aF2.1200653600000003
aF-6.139810649999999
aa(lp211
F2.3132777476
aF0.6204572800000001
aF-8.86141929
aa(lp212
F0.4373010036000001
aF-3.9191887199999997
aF2.0408175499999985
aa(lp213
F2.9549237636
aF-6.15908412
aF9.200437989999998
aa(lp214
F11.6413273076
aF-3.9626434800000006
aF1.6931794559999964
aa(lp215
F10.6599440076
aF-0.8620325000000006
aF-8.935280384000004
aa(lp216
F5.9084110276000015
aF-0.3385402000000006
aF-8.165783990000003
aa(lp217
F2.6781540676000004
aF-0.4893749600000003
aF-2.5005043500000017
aaa(lp218
(lp219
F1.39881239
aF1.93307838
aF-5.26113844
aa(lp220
F0.9601947299999999
aF0.8889669399999995
aF-10.20384808
aa(lp221
F-0.2525882700000001
aF-3.5666423200000006
aF-0.6882132999999996
aa(lp222
F3.28735853
aF-5.9264871900000005
aF7.77038134
aa(lp223
F11.261726550000002
aF-5.084566152000001
aF3.68264134
aa(lp224
F12.13165961
aF-1.7235858199999998
aF-9.17996746
aa(lp225
F6.600095809999999
aF-0.53857576
aF-11.61056122
aa(lp226
F1.5506047099999989
aF-0.14484940000000038
aF-5.42813402
aa(lp227
F-1.1913546700000013
aF0.7372941199999996
aF0.007422179999999656
aaa(lp228
(lp229
F1.37151838
aF0.41838720000000046
aF-4.29735264
aa(lp230
F2.87519678
aF0.7625536600000002
aF-11.09233636
aa(lp231
F1.6948553599999996
aF-2.1021087
aF-8.167220399999998
aa(lp232
F2.2002713
aF-6.20612958
aF4.265390380000001
aa(lp233
F10.17787108
aF-7.635468033999999
aF5.440105360000002
aa(lp234
F14.148295479999998
aF-3.817195079999999
aF-9.118915759999998
aa(lp235
F7.576451259999999
aF-1.9047068399999987
aF-12.163262959999997
aa(lp236
F3.2298977599999987
aF-1.2569555399999985
aF-8.280585967999999
aa(lp237
F1.3178882899999986
aF-0.6458355999999986
aF-2.139219127999999
aaa(lp238
(lp239
F0.8875305099999998
aF0.5434838599999997
aF-4.718013879999999
aa(lp240
F0.82803465
aF0.06392538000000006
aF-10.775224419999999
aa(lp241
F0.22816745000000002
aF-3.01034942
aF-7.077140571999999
aa(lp242
F2.76817617
aF-7.60901238
aF6.504686688000001
aa(lp243
F10.94138229
aF-7.7855847659999995
aF8.06031912
aa(lp244
F14.522629270000001
aF-4.414069939999999
aF-6.386054259999999
aa(lp245
F9.13962579
aF-2.284307939999999
aF-12.262382799999997
aa(lp246
F3.065655709999999
aF-1.8327613799999987
aF-7.301357409999999
aa(lp247
F0.5646724299999984
aF-1.0864885799999984
aF0.44735653000000186
aa(lp248
F-0.8680178040000015
aF0.5064935600000016
aF0.5756857000000019
aaa(lp249
(lp250
F1.4863203600000001
aF0.012450099999999863
aF-6.1123969
aa(lp251
F2.5868151740000003
aF-0.47381269999999986
aF-12.48624052
aa(lp252
F2.2273258140000003
aF-4.261559486
aF-3.833835220000002
aa(lp253
F4.284064814
aF-8.255566738599999
aF8.418851319999998
aa(lp254
F13.446914474
aF-6.078998128600001
aF4.04117358
aa(lp255
F13.540168574
aF-3.4717124000000013
aF-7.051522194
aa(lp256
F8.332300573999998
aF-2.4143130400000006
aF-12.064741294000001
aa(lp257
F3.1076737339999982
aF-2.9368475200000006
aF-3.6385880200000016
aa(lp258
F0.8610746339999981
aF-1.2949039800000008
aF0.794874939999998
aaa.