(lp0
(lp1
(lp2
F1.4820108399999998
aF8.0124356
aF-0.130244572
aa(lp3
F1.9387048200000003
aF8.756074440000003
aF3.2690429500000002
aa(lp4
F4.2031408400000005
aF6.893265820000002
aF7.4998367
aa(lp5
F9.446202959999999
aF5.888658800000002
aF2.27006232
aa(lp6
F13.135309000000001
aF5.752428660000001
aF-6.0234525
aa(lp7
F10.820474820000001
aF6.795941460000002
aF-2.5397691940000002
aa(lp8
F6.6694078600000015
aF7.385633260000001
aF2.3023840799999995
aa(lp9
F2.0989966800000017
aF7.510969840000001
aF5.72501496
aaa(lp10
(lp11
F0.32513260600000005
aF1.23660476
aF-3.833835024
aa(lp12
F1.20512142
aF-0.09900028000000027
aF-0.28933915999999976
aa(lp13
F5.48224314
aF-1.0248378800000002
aF-1.2470198719999996
aa(lp14
F10.47008384
aF-1.78308158
aF-8.548137797999999
aa(lp15
F10.14842294
aF-1.84018316
aF-9.96370962
aa(lp16
F6.791512420000001
aF-0.7240063000000001
aF-4.672643599999998
aa(lp17
F3.6910210600000015
aF-0.10127452000000012
aF-2.9218835999999984
aa(lp18
F0.6070498460000016
aF0.17908621999999977
aF-1.3942632999999982
aaa(lp19
(lp20
F0.210689706
aF0.63637886
aF-2.651458618
aa(lp21
F1.101931294
aF-0.6958744599999998
aF0.8344991800000005
aa(lp22
F4.597465594
aF-0.5027817399999996
aF-0.5505466199999995
aa(lp23
F7.731355794000001
aF-1.2234365599999997
aF-5.3382317299999995
aa(lp24
F9.562201994000002
aF-2.4353816599999996
aF-8.724829996
aa(lp25
F8.489599894000001
aF-1.7689556599999996
aF-5.737464872
aa(lp26
F5.448843894000001
aF-0.7576448599999998
aF-2.06475942
aa(lp27
F1.1002553540000015
aF-0.3945641399999996
aF0.6157887400000001
aa(lp28
F-0.4910507859999985
aF0.6050150600000004
aF-1.0961852399999998
aaa(lp29
(lp30
F0.48877629999999994
aF-0.864666
aF1.8066647080000002
aa(lp31
F2.26276014
aF-1.6121357
aF4.2652705200000005
aa(lp32
F5.486672520000001
aF-2.05386564
aF1.1106702420000005
aa(lp33
F7.892725320000001
aF-3.0394390799999997
aF-3.532644617999999
aa(lp34
F9.40143132
aF-3.30890644
aF-6.2169038799999985
aa(lp35
F7.442136520000001
aF-2.87172512
aF-2.8282704479999987
aa(lp36
F4.817373240000001
aF-1.8124105200000002
aF0.05482727200000124
aa(lp37
F1.8205509600000007
aF-1.5781382000000004
aF2.9448681400000014
aa(lp38
F-0.04477155999999956
aF-0.7669824000000007
aF3.028665260000001
aa(lp39
F0.26982654000000045
aF-0.09720460000000042
aF-0.19416972799999943
aaa(lp40
(lp41
F0.5003881600000001
aF0.04405360000000016
aF-1.305558178
aa(lp42
F0.95540624
aF-1.31345908
aF2.4584861699999996
aa(lp43
F3.06242344
aF-2.2477960799999996
aF4.774158047999999
aa(lp44
F6.255091520000001
aF-2.3806743
aF0.577002702
aa(lp45
F8.723752780000002
aF-3.2046388200000004
aF-4.457404938
aa(lp46
F8.54729978
aF-2.8772318400000003
aF-5.0248307896
aa(lp47
F5.99244758
aF-1.9614499000000003
aF-0.4323928295999998
aa(lp48
F3.2345667
aF-1.80822086
aF1.4962563480000002
aa(lp49
F0.6732495500000001
aF-1.58711606
aF3.7369897080000003
aa(lp50
F-0.33458967
aF-0.5133165999999999
aF2.2762872880000002
aaa(lp51
(lp52
F0.8334216299999999
aF0.49703610000000004
aF-2.7528531334
aa(lp53
F1.20105127
aF-0.21715429999999997
aF-0.2719814400000001
aa(lp54
F2.97144371
aF-1.5678431400000001
aF2.95947264
aa(lp55
F7.438066569999999
aF-2.5823860000000005
aF-0.7794323300000002
aa(lp56
F10.19331365
aF-3.43160934
aF-7.435911630000001
aa(lp57
F9.199360850000001
aF-2.75285334
aF-7.409096562
aa(lp58
F7.169676450000002
aF-1.6130936200000001
aF-3.061585402000001
aa(lp59
F4.336497890000002
aF-1.2853273600000001
aF-0.9417592400000009
aa(lp60
F1.3879187100000023
aF-0.9652229600000002
aF1.0360907999999993
aa(lp61
F0.10857705000000237
aF-0.12246400000000009
aF-0.09624694000000078
aaa(lp62
(lp63
F0.3313574999999999
aF0.08248040000000038
aF-1.1255142
aa(lp64
F0.8487445000000001
aF-0.44951089999999994
aF1.44789356
aa(lp65
F2.97958398
aF-1.1094726
aF2.3615210200000005
aa(lp66
F5.712565119999999
aF-2.1157558800000005
aF-1.3703212479999995
aa(lp67
F8.55424322
aF-3.07068316
aF-5.847119348
aa(lp68
F8.86489102
aF-3.0048424600000003
aF-6.12005833
aa(lp69
F6.515341220000001
aF-1.6504424999999998
aF-1.73459905
aa(lp70
F4.203858940000001
aF-1.0752355999999998
aF-0.36822816
aa(lp71
F1.454956300000001
aF-1.0292669
aF1.2650963000000002
aa(lp72
F0.03411738000000075
aF-0.09277479999999994
aF0.9573216800000001
aaa(lp73
(lp74
F0.4517858200000001
aF0.3214216999999994
aF-1.3764265880000002
aa(lp75
F0.7161057200000001
aF0.19704279999999946
aF-1.4380773000000002
aa(lp76
F1.4058752399999999
aF-1.1830949400000006
aF2.67516124
aa(lp77
F4.2951979
aF-2.0234597800000005
aF3.2247503200000005
aa(lp78
F7.417715459999999
aF-2.595554260000001
aF-2.516066608
aa(lp79
F8.829216859999999
aF-2.944030360000001
aF-7.1040753
aa(lp80
F7.904456859999999
aF-2.360802900000001
aF-4.60452864
aa(lp81
F5.426099099999999
aF-1.6472111400000007
aF-0.7799112199999995
aa(lp82
F2.2556971199999993
aF-1.2216416400000008
aF1.3290213400000006
aa(lp83
F0.099718459999999
aF-0.2703056000000007
aF1.0897209000000008
aaa(lp84
(lp85
F0.37385461999999997
aF0.3471596000000005
aF-1.699164956
aa(lp86
F0.7574057599999999
aF-0.4102463399999996
aF0.5849035120000001
aa(lp87
F2.8179754200000002
aF-1.7435771399999997
aF3.03189732
aa(lp88
F7.09617442
aF-2.0797232
aF-1.48703868
aa(lp89
F9.286030720000001
aF-2.99275206
aF-6.248148200000001
aa(lp90
F7.97963452
aF-2.85221238
aF-5.91679071
aa(lp91
F5.955816000000001
aF-1.88782782
aF-1.5373168900000003
aa(lp92
F3.774698500000002
aF-1.3068748200000002
aF-0.3165134600000003
aa(lp93
F1.6394297200000025
aF-1.1401185999999996
aF0.7601589999999996
aa(lp94
F0.028371320000002552
aF-0.7752423999999998
aF1.4923058399999996
aaa(lp95
(lp96
F0.57424928
aF0.5613208000000001
aF-3.4002451859999994
aa(lp97
F1.36672994
aF-0.5008668999999998
aF-0.034715871999998885
aa(lp98
F3.9808390599999997
aF-1.60303768
aF3.1621418200000013
aa(lp99
F7.09868812
aF-1.8553866999999997
aF-1.964442433999999
aa(lp100
F9.10024116
aF-2.0594925
aF-7.873691553999999
aa(lp101
F8.68017856
aF-1.68815174
aF-7.374859589999998
aa(lp102
F5.695686139999999
aF-1.53947176
aF-1.345301909999998
aa(lp103
F2.55437376
aF-1.1499351000000002
aF1.0930727000000018
aaa(lp104
(lp105
F0.18136088
aF0.0814029200000002
aF-1.68276468
aa(lp106
F3.19434398
aF-2.0032283199999994
aF3.8024713399999994
aa(lp107
F10.27555482
aF-4.896860666399999
aF-0.6927620800000007
aa(lp108
F14.170322579999999
aF-4.910866686399999
aF-9.99495394
aa(lp109
F9.85225998
aF-2.7988216999999986
aF-6.625354548
aa(lp110
F5.943126940000001
aF-1.2490549999999987
aF-2.13107884
aa(lp111
F1.2045229
aF-0.7241261199999987
aF0.8086417000000001
aaa(lp112
(lp113
F-0.3393781000000001
aF0.6743268200000001
aF-4.095042562
aa(lp114
F1.7220295599999997
aF-0.9190143000000001
aF1.1133038500000005
aa(lp115
F8.76349666
aF-3.8217446120000007
aF0.9239225192000002
aa(lp116
F13.59355906
aF-4.357806452000001
aF-10.499292800800001
aa(lp117
F10.04128166
aF-2.370858520000001
aF-8.733569024400001
aa(lp118
F6.160041379999998
aF-1.185728700000001
aF-3.9148789320000006
aa(lp119
F1.6353593999999987
aF-1.275630900000001
aF0.7088034599999997
aa(lp120
F-0.8583213400000013
aF0.48901529999999893
aF-1.1092336800000004
aaa(lp121
(lp122
F0.41216189999999997
aF1.3617024199999999
aF-5.153160004
aa(lp123
F0.40869027999999996
aF1.2640189199999996
aF-5.865315312
aa(lp124
F1.47291288
aF-0.8687359200000001
aF0.11731585200000012
aa(lp125
F6.24862696
aF-3.2640148999999994
aF3.8669949000000003
aa(lp126
F12.3818534
aF-3.275866239999999
aF-4.5276747
aa(lp127
F11.692562800000001
aF-2.797025879999999
aF-8.3878461
aa(lp128
F8.428308600000003
aF-2.2208611399999993
aF-3.0635007199999995
aa(lp129
F3.6889863460000027
aF-1.8962074199999996
aF2.2687456200000002
aa(lp130
F-0.6052541839999968
aF-0.4311953599999999
aF0.43718128000000045
aaa(lp131
(lp132
F0.80684599
aF0.20590170000000008
aF-1.1012130480000002
aa(lp133
F2.453099044
aF-1.07523586
aF2.60333514
aa(lp134
F7.753981383999999
aF-2.6452337999999997
aF1.5920243120000002
aa(lp135
F12.399690644
aF-3.2591070799999997
aF-8.236532768
aa(lp136
F11.188104843999998
aF-2.3350650599999994
aF-7.718666880000001
aa(lp137
F6.094081363999999
aF-2.0356701599999996
aF1.1756727199999997
aa(lp138
F1.1225213639999987
aF-0.9476250399999993
aF3.0838515199999996
aaa(lp139
(lp140
F0.22840683999999997
aF1.2668919999999997
aF-5.132689576
aa(lp141
F2.34200818
aF-2.449387928
aF2.62536156
aa(lp142
F11.900978380000002
aF-6.014474122
aF-3.5672409000000007
aa(lp143
F15.34946708
aF-3.722145674
aF-14.51017904
aa(lp144
F9.505459779999999
aF-1.0626664400000003
aF-8.29435268
aa(lp145
F3.917512619999998
aF-0.5123591800000004
aF-3.71975146
aaa(lp146
(lp147
F-0.2201469060000001
aF-0.26515794000000004
aF2.2925676000000004
aa(lp148
F8.82047826
aF-3.8528692399999995
aF3.518997440000001
aa(lp149
F15.563627399999998
aF-2.92080666
aF-9.90612936
aa(lp150
F11.238023599999996
aF-1.5872362800000004
aF-6.046676135999999
aa(lp151
F2.768894381999997
aF-0.6777986600000002
aF1.9857509200000005
aaa(lp152
(lp153
F0.36523546599999984
aF0.86478574
aF-4.100190114
aa(lp154
F3.5014003439999994
aF-2.0496760600000004
aF1.9325995060000003
aa(lp155
F11.188104643999997
aF-3.4914643400000003
aF-0.09097971399999949
aa(lp156
F16.165889643999996
aF-3.11713094
aF-11.906843974000001
aa(lp157
F12.973939844
aF-1.9820398599999998
aF-9.443569673999999
aa(lp158
F7.593330464000002
aF-1.0526106599999998
aF-2.4359806740000005
aa(lp159
F1.544619190000002
aF-0.7576451399999999
aF0.3147177259999993
aa(lp160
F-0.414077215999998
aF1.2802993600000003
aF-2.336262080000001
aaa(lp161
(lp162
F0.69024836
aF0.2382233000000003
aF-1.216015084
aa(lp163
F0.6095637999999999
aF0.05889750000000014
aF-1.34649909
aa(lp164
F0.7875726799999999
aF-1.2880804000000001
aF0.8244432532000001
aa(lp165
F5.48535552
aF-4.36079896
aF8.245151771999998
aa(lp166
F14.71212988
aF-5.73327514
aF-0.8196548480000019
aa(lp167
F14.69429308
aF-5.543534660000001
aF-8.574234988000002
aa(lp168
F10.99908228
aF-3.479852400000001
aF-2.129283344000002
aa(lp169
F5.068165853999998
aF-2.829467480000001
aF4.358524531999999
aa(lp170
F-0.2063801760000013
aF-0.9429564800000009
aF1.138083861999998
aaa(lp171
(lp172
F0.46651019
aF0.1379062999999995
aF0.07625532200000004
aa(lp173
F0.3863044299999999
aF-0.018435300000000508
aF-0.12581530399999993
aa(lp174
F0.6386532999999999
aF0.025258699999999478
aF-0.23822306999999993
aa(lp175
F1.8007987699999997
aF-1.9225440000000007
aF6.205172308
aa(lp176
F7.99675333
aF-4.80288802
aF8.581297780000002
aa(lp177
F15.262915950000002
aF-5.25934274
aF-4.843470019999998
aa(lp178
F15.240410550000004
aF-4.67659418
aF-7.0849217499999995
aa(lp179
F9.495762990000006
aF-4.4587217599999995
aF5.19362199
aa(lp180
F1.4726734500000056
aF-3.0740352999999994
aF6.837839896
aaa(lp181
(lp182
F0.83641436
aF0.8898051400000003
aF-2.4520215419999998
aa(lp183
F0.5036203200000001
aF1.8559852400000003
aF-5.112817562
aa(lp184
F0.46507370000000015
aF1.8458102400000005
aF-5.322429918
aa(lp185
F1.0820595200000003
aF-0.3509896999999997
aF0.29233238400000017
aa(lp186
F8.75439834
aF-3.13209442
aF2.148197834
aa(lp187
F15.46319054
aF-3.2064342599999995
aF-10.621276966
aa(lp188
F14.48420174
aF-3.2726339399999995
aF-11.289498706000002
aa(lp189
F8.910500299999999
aF-2.8295869799999993
aF0.38702261399999716
aa(lp190
F0.7437587839999982
aF-1.5327676399999997
aF3.012145153999997
aaa(lp191
(lp192
F1.592622956
aF1.4113817000000002
aF-3.890218694
aa(lp193
F0.7621940880000002
aF1.2112266400000002
aF-4.3084857340000005
aa(lp194
F1.5541960560000003
aF0.6718134400000004
aF-1.8714277040000002
aa(lp195
F3.4951753360000004
aF1.34230954
aF-5.343738406
aa(lp196
F4.810310476000001
aF1.03070384
aF-7.694365675999999
aa(lp197
F6.485054496000001
aF-0.1331175599999998
aF-9.453385604
aa(lp198
F8.271487776
aF-0.8528145799999998
aF-10.873865524
aa(lp199
F7.259339156000001
aF-0.16424213999999981
aF-7.839813397999999
aa(lp200
F4.8177323360000015
aF0.8131907399999996
aF-6.412749502999998
aa(lp201
F3.1179688760000017
aF1.2685679399999998
aF-6.558077547599997
aa(lp202
F1.2047622640000017
aF1.44837254
aF-5.0110640645999975
aa(lp203
F0.42532991800000186
aF1.9815609400000003
aF-4.782298115999997
aaa(lp204
(lp205
F-0.03208225999999996
aF-0.22325940000000025
aF0.6570886679999999
aa(lp206
F0.4886566460000001
aF-0.7459134000000003
aF1.935113508
aa(lp207
F1.4419080460000002
aF-1.0116698000000004
aF2.092173188
aa(lp208
F2.524566086
aF-0.7831430000000005
aF0.65062434
aa(lp209
F3.702034426
aF-1.0059238000000001
aF-0.48530466399999994
aa(lp210
F4.688684906000001
aF-1.5799336000000004
aF-1.55910412
aa(lp211
F7.2268979259999995
aF-2.269343980000001
aF-4.325843592
aa(lp212
F7.5562202659999995
aF-2.606926380000001
aF-3.2508470351999996
aa(lp213
F5.255990985999999
aF-1.893693660000001
aF-0.4018667151999997
aa(lp214
F3.0552408059999996
aF-1.0432732000000011
aF-0.04740518225999972
aa(lp215
F0.8057686219999998
aF-1.0984595000000006
aF1.0521319577400001
aaa(lp216
(lp217
F0.49631804399999996
aF0.4521450999999995
aF-0.995628816
aa(lp218
F1.541985592
aF-0.4905719000000003
aF1.06709564
aa(lp219
F3.178542152
aF-0.7473503000000002
aF0.31136592820000003
aa(lp220
F5.347449591999999
aF-0.5732917000000006
aF-1.7566257698
aa(lp221
F6.501933611999999
aF-1.6813280000000002
aF-4.541082338
aa(lp222
F7.553945751999999
aF-1.6348804600000002
aF-6.45919702
aa(lp223
F7.4871476119999985
aF-1.52295152
aF-4.303697252000001
aa(lp224
F5.048413831999997
aF-1.2095506
aF-1.6508020920000015
aa(lp225
F2.2166716919999967
aF-0.98736862
aF0.8786719799999986
aa(lp226
F0.7799111919999966
aF-0.13144129999999965
aF1.3322535199999987
aaa(lp227
(lp228
F0.16029185999999998
aF0.17310079999999992
aF-0.965222356
aa(lp229
F0.24564508
aF-0.5257668000000002
aF0.6409278800000001
aa(lp230
F1.28185554
aF-1.3126212600000002
aF0.8164228600000001
aa(lp231
F3.5089419800000003
aF-0.6347030000000004
aF-1.953309398
aa(lp232
F4.66977086
aF-0.8386889400000003
aF-3.267726118
aa(lp233
F5.5391055399999996
aF-1.3931858600000004
aF-4.98508706
aa(lp234
F6.738720219999999
aF-1.8138470200000003
aF-5.517557568
aa(lp235
F4.823359019999999
aF-1.51002282
aF-2.6855759840000006
aa(lp236
F2.1481974599999987
aF-0.4630384000000003
aF-1.5152902180000005
aa(lp237
F-0.3794809920000013
aF-0.24384920000000038
aF-0.5438429000000005
aaa(lp238
(lp239
F1.3532027640000002
aF0.4532222000000001
aF-0.856046798
aa(lp240
F2.0377050300000006
aF-0.2962825999999996
aF1.4848838800000002
aa(lp241
F3.7298071100000003
aF-0.8948331999999997
aF1.9142839999999999
aa(lp242
F6.35971805
aF-1.5617382
aF-0.6539761480000001
aa(lp243
F9.14166095
aF-1.9242200599999997
aF-4.569094617999999
aa(lp244
F10.05002121
aF-2.2196644799999996
aF-7.0271016799999995
aa(lp245
F8.12592063
aF-2.04404972
aF-2.6226084739999997
aa(lp246
F4.882495629999999
aF-1.33584476
aF0.4004302400000001
aa(lp247
F1.8185158819999998
aF-0.7957130000000001
aF1.8322826200000002
aaa(lp248
(lp249
F0.682467228
aF0.6695386000000003
aF-3.1032445619999995
aa(lp250
F0.859279008
aF0.5729326000000003
aF-2.7186160639999994
aa(lp251
F1.230499988
aF0.05758080000000021
aF-0.44316671999999924
aa(lp252
F2.489730348
aF-0.005267100000000013
aF-1.0597933165999993
aa(lp253
F4.166270188
aF0.0831986999999998
aF-3.6722265965999994
aa(lp254
F5.011064268000001
aF-1.25539946
aF-4.77715068
aa(lp255
F7.284358728000001
aF-1.9156006599999995
aF-7.28771058
aa(lp256
F7.608772968000001
aF-1.6882712599999992
aF-5.571905973199999
aa(lp257
F5.0971358680000005
aF-0.9188944599999991
aF-2.417066333199999
aa(lp258
F2.4199394480000005
aF-0.24815899999999935
aF-1.535640979999999
aa(lp259
F0.10582376600000058
aF0.18806480000000078
aF-0.6993463799999992
aaa(lp260
(lp261
F0.7467515220000001
aF0.3353078000000004
aF-1.830367171
aa(lp262
F0.773087702
aF0.08128300000000017
aF-1.6637307370000003
aa(lp263
F0.974440042
aF0.22948400000000008
aF-1.5027206770000001
aa(lp264
F1.1230002620000001
aF0.45585580000000014
aF-1.7756596650000003
aa(lp265
F0.789966802
aF-0.5137957999999998
aF1.521994023
aa(lp266
F1.955943062
aF-0.6933612999999997
aF1.2319365029999996
aa(lp267
F3.8563406820000004
aF-0.45322269999999987
aF-1.3189656950000004
aa(lp268
F5.441421942
aF-1.6444575399999999
aF-2.054464443
aa(lp269
F8.577227662
aF-2.5117572800000003
aF-5.4360349470000005
aa(lp270
F8.898050762
aF-2.5002651400000007
aF-4.419576617000001
aa(lp271
F6.0110024619999995
aF-1.4909892600000005
aF-0.6939593570000004
aa(lp272
F3.035728022
aF-0.8878902000000002
aF-0.021428117000000347
aa(lp273
F0.9238027899999999
aF-0.5037403000000007
aF0.7703344029999997
aa(lp274
F-0.20482398200000013
aF-0.08655060000000052
aF0.4976348309999997
aaa(lp275
(lp276
F0.701022272
aF0.3118448000000004
aF-1.4330494059999999
aa(lp277
F0.7404068840000001
aF0.07230500000000042
aF-1.6388310499999998
aa(lp278
F0.9123105440000001
aF-0.11252739999999975
aF0.3527856520000001
aa(lp279
F2.0276494240000003
aF-0.8294711999999997
aF1.499009772
aa(lp280
F4.005140384
aF-0.8935159999999996
aF-1.5042769260000002
aa(lp281
F5.946718244
aF-0.8730456599999998
aF-2.704250804
aa(lp282
F7.810484344
aF-2.06308372
aF-4.991072516000001
aa(lp283
F9.142378943999999
aF-2.4321498399999997
aF-6.187335394000001
aa(lp284
F7.236355024
aF-1.9555839799999997
aF-2.505292642
aa(lp285
F4.795466284
aF-1.37403244
aF-1.0310629220000003
aa(lp286
F2.0034679639999995
aF-0.8605955999999996
aF0.8470685719999999
aaa(lp287
(lp288
F0.5480328
aF0.6511028
aF-2.1762096000000004
aa(lp289
F0.6396109899999999
aF0.003112100000000595
aF-0.22433668000000023
aa(lp290
F1.6111780100000002
aF-0.5918469999999996
aF0.053510509999999734
aa(lp291
F3.72884947
aF-0.45370159999999976
aF-2.1696255360000003
aa(lp292
F5.84759831
aF-1.22858486
aF-3.4365173708
aa(lp293
F8.48313555
aF-2.45070512
aF-6.24635245
aa(lp294
F8.22432215
aF-2.78577362
aF-4.842751743999999
aa(lp295
F5.54568945
aF-1.5344441400000004
aF-2.1292832439999994
aa(lp296
F3.0126242100000007
aF-0.6202183000000003
aF-1.8338387599999997
aa(lp297
F0.2839523700000008
aF-0.08535360000000036
aF-0.47931915999999974
aaa(lp298
(lp299
F0.22409722000000004
aF0.6168664000000004
aF-1.6452953879999999
aa(lp300
F0.36068644000000005
aF0.8607158000000001
aF-2.143648478
aa(lp301
F0.3848678800000001
aF0.7603986000000003
aF-2.3274034579999996
aa(lp302
F0.4966771199999999
aF0.0866699999999998
aF0.12437877400000055
aa(lp303
F1.85586542
aF-0.4475959999999997
aF1.6882713200000006
aa(lp304
F3.72729316
aF-0.40509879999999965
aF-1.9087772819999995
aa(lp305
F5.10156502
aF-0.4866214000000003
aF-4.911465359999999
aa(lp306
F6.02022018
aF-1.1853692000000002
aF-6.475836704
aa(lp307
F7.520426980000001
aF-1.60914292
aF-6.822876199999998
aa(lp308
F6.409517400000001
aF-1.2919112599999998
aF-2.768295691999998
aa(lp309
F3.9890991400000013
aF-0.5809531999999997
aF-0.8735244799999983
aa(lp310
F1.030584180000001
aF-0.5844248000000001
aF0.7382521800000019
aa(lp311
F-0.40821141999999905
aF-0.001316800000000029
aF0.7598000000000017
aaa.