(lp0
(lp1
(lp2
F4.363911419999999
aF6.971197000000001
aF-0.41228148
aa(lp3
F10.27052648
aF8.7211192
aF-5.76918818
aa(lp4
F14.593975799999999
aF5.336316440000001
aF-4.32608316
aa(lp5
F16.0287018
aF1.3676877040000008
aF4.2384553
aa(lp6
F9.98214538
aF-1.285327211999999
aF14.411537999999998
aa(lp7
F4.163875859999999
aF0.7522581040000011
aF13.3042196
aa(lp8
F7.52748988
aF3.276584720000001
aF8.253651179999999
aa(lp9
F9.30123422
aF7.4141243
aF-0.622253040000001
aaa(lp10
(lp11
F-3.0720002400000004
aF-0.6586445999999999
aF4.20302098
aa(lp12
F-0.22685081999999995
aF-0.9047685999999995
aF-2.0972011200000003
aa(lp13
F4.628949220000001
aF-3.2466570199999993
aF-4.24228626
aa(lp14
F6.6955046199999995
aF-8.577706286
aF6.19547582
aa(lp15
F2.3737313199999996
aF-11.890443486
aF17.29738888
aa(lp16
F-1.2714406400000007
aF-9.12023246
aF16.0975346
aa(lp17
F-0.11121054000000061
aF-4.777270280000001
aF8.021413568
aa(lp18
F-0.035434160000000506
aF-0.3629609000000006
aF1.3682862479999998
aaa(lp19
(lp20
F-2.92990434
aF-0.33566730000000006
aF2.152028172
aa(lp21
F0.1345541599999997
aF-0.7222112999999999
aF-2.385103528
aa(lp22
F5.04254794
aF-2.8660990000000006
aF-2.444479788000001
aa(lp23
F5.14454094
aF-9.18691112
aF9.792284731999999
aa(lp24
F0.22888583999999917
aF-11.622532444
aF17.479108911999997
aa(lp25
F-0.12808980000000095
aF-6.493434184
aF10.767323792
aa(lp26
F1.3898341199999993
aF-3.11545518
aF4.306929391999999
aa(lp27
F0.017956679999999104
aF-0.45262422
aF-1.3581110480000005
aaa(lp28
(lp29
F-0.96079314
aF-0.25869320000000007
aF1.6136920199999998
aa(lp30
F3.3984494599999997
aF-0.8852557999999998
aF-2.4236502599999996
aa(lp31
F10.20696082
aF-4.980777006000001
aF-2.2117633099999994
aa(lp32
F9.95616822
aF-12.792338946000003
aF12.23820123
aa(lp33
F0.5675454400000011
aF-11.032959840000002
aF18.21939579
aa(lp34
F-0.8182184599999991
aF-6.136099120000003
aF12.63515995
aa(lp35
F1.3870808200000009
aF-2.5315085600000033
aF4.65193401
aa(lp36
F-0.3979163799999988
aF-0.10438676000000342
aF1.25528005
aaa(lp37
(lp38
F-1.0911574800000001
aF-1.00568444
aF1.96492128
aa(lp39
F4.3642704
aF-1.80594644
aF-4.16938264
aa(lp40
F11.885894599999997
aF-5.673061079999999
aF-1.6008829439999999
aa(lp41
F9.989327739999997
aF-10.335529437999998
aF12.05133362
aa(lp42
F2.0989965399999964
aF-9.191220719999999
aF17.754681240000004
aa(lp43
F2.290532739999996
aF-4.974672439999999
aF9.162011286000002
aa(lp44
F2.4056938799999963
aF-1.9461269399999988
aF1.6237474900000017
aaa(lp45
(lp46
F-2.2269666599999995
aF-0.01400599999999983
aF1.3274652560000004
aa(lp47
F4.9175707200000005
aF-1.16394122
aF-3.29968879
aa(lp48
F11.88350072
aF-7.4361511400000015
aF2.0136432100000006
aa(lp49
F4.325724
aF-11.542206920000002
aF15.381189650000001
aa(lp50
F-3.1894357999999996
aF-5.898115800000002
aF11.665508250000002
aa(lp51
F-2.1306000399999996
aF-2.707961780000002
aF6.384617730000002
aaa(lp52
(lp53
F-0.6658274200000001
aF1.5242683799999999
aF-2.09732076
aa(lp54
F2.8190531
aF0.9378087799999998
aF-8.38509296
aa(lp55
F8.999445380000001
aF-2.8318618730000003
aF-9.06983472
aa(lp56
F8.7450613
aF-11.051635093
aF5.88171508
aa(lp57
F0.8504206400000001
aF-9.0437378
aF11.85464974
aa(lp58
F0.6513427200000004
aF-3.2831687400000007
aF5.106592879999999
aa(lp59
F2.1313184000000005
aF0.8063670999999989
aF-2.6829424800000004
aa(lp60
F-0.5081693799999997
aF3.4592624799999996
aF-6.1315506520000005
aa(lp61
F-3.9525875200000002
aF2.5242068799999995
aF-3.0251936000000006
aa(lp62
F-4.22241404
aF2.7210102799999993
aF-2.2971168340000006
aaa(lp63
(lp64
F3.10659646
aF-1.58244776
aF-0.8971073659999999
aa(lp65
F10.98399872
aF-3.23360888
aF-7.844123005999999
aa(lp66
F16.39788762
aF-7.296449508
aF-4.1452012059999985
aa(lp67
F12.876495759999997
aF-11.532510502000001
aF9.804734874000001
aa(lp68
F3.8774097399999974
aF-8.449736414
aF12.841420774
aa(lp69
F4.106654419999997
aF-4.56263038
aF7.520427013999999
aaa(lp70
(lp71
F0.21152814000000006
aF0.12258315999999994
aF-4.129279644
aa(lp72
F6.93384806
aF-1.0515334399999998
aF-8.790909888000002
aa(lp73
F9.518388459999999
aF-6.16530888
aF-1.0578779160000011
aa(lp74
F2.6023776199999986
aF-8.107245848000002
aF10.608468104
aa(lp75
F-3.3145327800000017
aF-4.738364647999999
aF8.284775944
aa(lp76
F-1.2938266200000015
aF-2.3786395199999997
aF3.0320171839999985
aa(lp77
F1.7407041799999985
aF1.99281368
aF-3.793133716000001
aaa(lp78
(lp79
F-2.25042972
aF0.3056199200000004
aF0.2045844599999997
aa(lp80
F-0.07685341999999942
aF-1.7501613999999996
aF-5.16477186
aa(lp81
F6.103539080000001
aF-6.199905029999999
aF-2.7380091097399997
aa(lp82
F4.787924880000001
aF-10.135733109999999
aF12.864524690259998
aa(lp83
F-1.3157334599999988
aF-9.312965713999997
aF14.60522886
aa(lp84
F-0.875080439999999
aF-5.241266503999998
aF6.66150694
aa(lp85
F0.27772762000000084
aF-0.47608699999999793
aF-0.11540047999999992
aaa(lp86
(lp87
F-3.57035324
aF0.76638352
aF-0.5463568919999998
aa(lp88
F-0.4259281800000004
aF-0.11587948000000008
aF-5.9852648
aa(lp89
F5.67354026
aF-3.5393483634000007
aF-6.173329520000001
aa(lp90
F7.07522546
aF-9.679518023400002
aF9.068756879999999
aa(lp91
F-0.9819818200000008
aF-9.769899127000002
aF16.98135414
aa(lp92
F-1.94002154
aF-6.493912947000001
aF10.935037339999997
aa(lp93
F3.4134136600000007
aF-1.1027692400000007
aF1.2848482659999987
aaa(lp94
(lp95
F1.0856507399999997
aF-0.2586935
aF-3.321954696200001
aa(lp96
F8.12627994
aF-9.027217740000001
aF-3.7371092860000004
aa(lp97
F1.86711814
aF-20.444447200000003
aF17.588523314
aa(lp98
F-3.7703890600000007
aF-8.37396006
aF13.464032386
aa(lp99
F-1.1293453600000012
aF-2.90715942
aF6.672520326
aa(lp100
F-0.5384562600000014
aF0.6416459000000001
aF0.4491523540000003
aa(lp101
F-5.665758860000001
aF0.23379349999999963
aF2.12030509
aaa(lp102
(lp103
F4.37001684
aF0.21535860000000007
aF-5.573462016000001
aa(lp104
F14.905701800000003
aF-8.36713619
aF-4.630385736000001
aa(lp105
F9.246886220000004
aF-20.195809360000002
aF16.743250663999998
aa(lp106
F0.2647987200000038
aF-10.133458440000002
aF10.774864963999995
aa(lp107
F5.194340480000004
aF-2.693117660000001
aF1.9800047439999957
aa(lp108
F7.359536800000003
aF1.108994499999999
aF-3.7841554760000036
aaa(lp109
(lp110
F-3.3657686799999995
aF-2.7657819399999997
aF4.77739008
aa(lp111
F5.785708340000001
aF-6.79043504
aF-6.706278760000001
aa(lp112
F10.980647540000001
aF-20.554341140000002
aF4.02776514
aa(lp113
F2.20817246
aF-20.336827880000005
aF18.82297394
aa(lp114
F-1.7782934000000001
aF-9.008902260000003
aF13.782940439999999
aa(lp115
F1.1759118399999997
aF-3.8359901600000015
aF2.9205669399999983
aaa(lp116
(lp117
F-3.3911471
aF-1.3994107999999998
aF3.6020764400000003
aa(lp118
F6.22552354
aF-5.91918482
aF-6.232825179999999
aa(lp119
F10.12412206
aF-18.50059522
aF6.86680958
aa(lp120
F1.5425845999999979
aF-14.82812902
aF19.75264244
aa(lp121
F-2.547430480000002
aF-6.34068412
aF13.336182480000002
aa(lp122
F1.583525179999998
aF-2.440768819999999
aF3.2319329720000027
aaa(lp123
(lp124
F-6.075645979999999
aF-1.4641739200000001
aF7.827842548000001
aa(lp125
F-0.6691793199999985
aF-3.1568745799999993
aF-1.754829791999999
aa(lp126
F8.463024600000002
aF-11.620377506
aF-1.8514360119999977
aa(lp127
F4.516661940000003
aF-22.000319419999997
aF20.121588588
aa(lp128
F-0.729273779999998
aF-15.026967399999995
aF19.290321928000004
aa(lp129
F4.389170200000002
aF-7.242699499999995
aF8.697536148000003
aaa(lp130
(lp131
F-9.31488102
aF0.9149442600000002
aF5.5189941199999994
aa(lp132
F-3.9313986
aF-1.07858782
aF-2.6694150800000003
aa(lp133
F5.6104532
aF-9.525331332
aF-4.134068119999999
aa(lp134
F0.020710400000000816
aF-19.264345240000004
aF15.75600168
aa(lp135
F-6.68700516
aF-11.493604481400002
aF17.043603679999997
aa(lp136
F-1.9880253999999993
aF-4.326561781400003
aF7.022193599999999
aa(lp137
F-2.7644648999999992
aF1.443225059999997
aF-1.1123460400000014
aaa(lp138
(lp139
F-7.0303337400000006
aF-0.5541382000000004
aF6.87495026
aa(lp140
F-2.4990673799999996
aF-1.7350781400000002
aF1.5483305199999997
aa(lp141
F7.320990700000001
aF-10.360309472
aF-4.31363302
aa(lp142
F2.762071300000001
aF-21.567687499999998
aF14.707580580000002
aa(lp143
F-5.2419848
aF-12.74110378
aF17.43038662
aa(lp144
F0.010055600000000098
aF-4.8275487
aF11.88218366
aa(lp145
F1.1767500000000006
aF0.8339003399999994
aF0.5803546800000007
aaa(lp146
(lp147
F-5.965392830000001
aF-2.56610548
aF6.7648167400000006
aa(lp148
F-0.05710163999999977
aF-5.35726574
aF-0.7153879599999989
aa(lp149
F8.747455900000002
aF-16.5209493
aF0.35685510000000065
aa(lp150
F3.1574736999999997
aF-22.98074498
aF20.4290043
aa(lp151
F-2.483026600000001
aF-12.65970072
aF18.677286900000002
aa(lp152
F-0.517746000000001
aF-5.813720280000003
aF7.104673860000001
aaa(lp153
(lp154
F-4.93037956
aF0.6770801799999997
aF5.489545288
aa(lp155
F1.16418064
aF-1.0269929400000002
aF-2.931579912
aa(lp156
F10.26346432
aF-12.94173788
aF0.027533579999999346
aa(lp157
F3.99568338
aF-19.214067256
aF20.313124979999998
aa(lp158
F-3.5739446200000002
aF-8.800008115999997
aF18.47306174
aa(lp159
F-0.07266408000000038
aF-3.5604174999999976
aF11.299195539999996
aa(lp160
F0.7097609199999996
aF0.9985016600000023
aF1.310226979999996
aaa(lp161
(lp162
F-3.83539133
aF-0.6585254000000003
aF4.4965502
aa(lp163
F3.2701207099999996
aF-2.68509726
aF-5.383003239999999
aa(lp164
F11.80712612
aF-12.597690739999999
aF-0.008858309999999392
aa(lp165
F6.292201799999999
aF-18.95896472
aF17.28242518
aa(lp166
F0.006704039999997846
aF-9.10155784
aF15.81238544
aa(lp167
F4.316147419999998
aF-3.9299627
aF6.55532408
aaa(lp168
(lp169
F-7.767508676
aF0.2385825999999998
aF4.18877576
aa(lp170
F-3.8371871200000003
aF-0.4805162000000003
aF1.9124884999999998
aa(lp171
F0.06859369999999956
aF-1.6342820400000004
aF1.9146432699999998
aa(lp172
F0.8834601999999994
aF-3.2835278400000005
aF3.53539813
aa(lp173
F-1.4004885200000003
aF-6.0479929000000014
aF10.04104282
aa(lp174
F-5.70262946
aF-6.523600960000001
aF16.15990382
aa(lp175
F-5.933310860000001
aF-3.994007120000002
aF12.807901619999999
aa(lp176
F-3.5406653399999994
aF-1.3645752800000024
aF8.379227179999997
aa(lp177
F-2.8343757599999995
aF0.3636793999999977
aF1.6350004799999986
aaa(lp178
(lp179
F-4.1672278
aF-0.19512760000000035
aF5.12083833
aa(lp180
F-5.41640256
aF-1.0724826600000004
aF5.85585824
aa(lp181
F-1.3560759400000009
aF-1.2154166400000004
aF-1.8501195200000005
aa(lp182
F6.300341559999998
aF-1.8727449000000007
aF-1.1677720399999998
aa(lp183
F5.838499959999998
aF-2.5668238400000005
aF4.670967738
aa(lp184
F2.426762759999998
aF-3.7954084200000002
aF10.488279178
aa(lp185
F-3.0487765000000016
aF-5.9673085
aF13.857399980000002
aa(lp186
F-4.451658960000001
aF-4.513429480000001
aF11.490133120000001
aa(lp187
F-3.236601620000002
aF-1.4520835800000007
aF6.634931400000002
aa(lp188
F-1.4399926800000016
aF-0.12820960000000065
aF5.509417240000003
aa(lp189
F-0.9222466000000014
aF0.01568219999999947
aF3.9521087400000026
aa(lp190
F-3.591661720000001
aF0.5501877999999994
aF2.208770760000003
aaa(lp191
(lp192
F-1.7347189200000002
aF-1.2248738000000006
aF3.50594921
aa(lp193
F1.3649344199999995
aF-2.7615922800000003
aF0.4789600239999999
aa(lp194
F8.927738680000001
aF-3.1787818000000003
aF-4.212597880000001
aa(lp195
F11.869374480000001
aF-6.567774420000001
aF1.8000805259999992
aa(lp196
F9.46368048
aF-9.598714068000001
aF10.44219086
aa(lp197
F3.540545280000001
aF-10.582371866
aF16.34724972
aa(lp198
F1.4859611200000005
aF-6.916489906000001
aF9.772413040000004
aa(lp199
F3.5394679800000004
aF-3.1562764000000003
aF4.187219336000004
aaa(lp200
(lp201
F-4.8824954599999995
aF-0.009696500000000085
aF1.8534712800000002
aa(lp202
F-1.8210297199999992
aF-0.9272743
aF-4.487931076
aa(lp203
F4.19883128
aF-2.5918431
aF-5.341224596
aa(lp204
F7.64133368
aF-4.614464752
aF1.1562796759999998
aa(lp205
F3.314652439999999
aF-8.969278231999999
aF12.177388343999999
aa(lp206
F-1.6180014600000014
aF-6.222889459999999
aF12.294584644
aa(lp207
F0.13108247999999884
aF-2.5473110199999986
aF5.802108524
aa(lp208
F1.6546326799999989
aF0.24408880000000172
aF-0.5317522960000002
aa(lp209
F-2.4161085200000008
aF1.4578292200000016
aF-2.4702176959999997
aaa(lp210
(lp211
F-1.8444930800000001
aF-0.5550957000000004
aF4.14484208
aa(lp212
F-1.1283874
aF-1.5272611
aF2.17597038
aa(lp213
F4.3957542
aF-2.8983006
aF-3.7196314999999998
aa(lp214
F9.197085999999999
aF-5.60087568
aF0.9040506000000004
aa(lp215
F6.808151399999998
aF-8.704838466
aF12.3093093
aa(lp216
F1.0347737999999977
aF-8.31362595
aF16.211140040000004
aa(lp217
F1.015261079999998
aF-6.3573237
aF12.153686320000002
aa(lp218
F5.158786199999997
aF-4.2011055200000005
aF7.166923320000004
aa(lp219
F4.888600459999997
aF-0.8528146
aF-1.599087139999996
aaa(lp220
(lp221
F-5.32231026
aF-0.4475962000000003
aF3.6181175599999995
aa(lp222
F-3.9858668600000002
aF-1.2841301200000002
aF-1.3637373400000006
aa(lp223
F0.5674260400000002
aF-2.2182278600000003
aF-0.9291896600000008
aa(lp224
F2.3865405400000004
aF-5.97700482
aF8.297704379999999
aa(lp225
F-1.1492165599999995
aF-7.255628240000002
aF14.87888576
aa(lp226
F-1.0074798399999993
aF-1.8072632000000024
aF6.2075663599999995
aa(lp227
F-2.5391704799999992
aF0.959955399999998
aF0.8058881999999997
aaa(lp228
(lp229
F-3.8466442200000004
aF-0.43502640000000026
aF3.20104768
aa(lp230
F-2.8475436000000007
aF-1.9351137400000002
aF0.1890223800000001
aa(lp231
F2.446155819999999
aF-3.62625814
aF-3.5595791600000006
aa(lp232
F2.6528949799999992
aF-8.665214786
aF10.575548439999999
aa(lp233
F-0.9651028200000008
aF-8.569207286000001
aF17.27847498
aa(lp234
F0.27976243999999895
aF-5.078820260000001
aF10.477864559999999
aa(lp235
F2.5258828199999988
aF-3.102885520000002
aF3.790380259999999
aaa(lp236
(lp237
F-3.9053020800000007
aF0.02489992000000001
aF4.641279808
aa(lp238
F-4.573284580000001
aF-0.17645268000000006
aF1.169687288
aa(lp239
F-1.8629285200000012
aF-0.6120776199999998
aF-0.47117879999999995
aa(lp240
F-0.09038124000000139
aF-1.68982748
aF1.1696873680000002
aa(lp241
F1.0875659599999985
aF-4.0383000000000004
aF6.406883848000001
aa(lp242
F-0.25055328000000154
aF-5.45698428
aF13.398311960000001
aa(lp243
F-2.2396562200000014
aF-3.9510314400000004
aF12.781685560000001
aa(lp244
F0.10869651999999874
aF-2.4289176400000003
aF8.404246732
aa(lp245
F0.019153319999998607
aF-1.0292675400000004
aF0.6549340520000012
aaa(lp246
(lp247
F-4.3308713
aF0.8763978000000001
aF4.67264366
aa(lp248
F-4.61446448
aF0.9497797600000002
aF2.2005106880000005
aa(lp249
F-1.641704
aF0.4276043600000003
aF-2.388575451999999
aa(lp250
F0.6602010599999997
aF-1.03992144
aF-0.2954445519999993
aa(lp251
F1.6751031399999998
aF-4.54491298
aF7.708850508
aa(lp252
F-0.9215281200000002
aF-5.38372156
aF14.720270008
aa(lp253
F-2.21020726
aF-3.4897883199999997
aF11.523172948
aa(lp254
F-0.9589974600000002
aF-0.08056459999999924
aF2.277843547999997
aaa.